cnltk.probability
FreqDist
p0
((dp1
V\u4e66\u8bb0
p2
I1
sV\u6d77\u5ce1\u4e24\u5cb8
p3
I1
sV\u8d77\u8ba2
p4
I1
sV\u79d1\u6280\u9886\u57df
p5
I1
sV\u5305\u88c5
p6
I3
sV\u4e2d\u4e4c
p7
I1
sV\u4e0a\u9996
p8
I1
sV\u56fd\u4e8b\u8bbf\u95ee
p9
I6
sV\u51dd\u805a
p10
I1
sV\u7f16\u8bd1
p11
I10
sV\u548c\u4eb2
p12
I1
sV\u786e\u4fdd
p13
I16
sV\u4e3a\u4e3b
p14
I5
sV\u5438\u7eb3
p15
I1
sV\u65b0\u5e72\u7ebf
p16
I4
sV\u4f5c\u5f0a
p17
I1
sV\u5fc3\u7406\u5b66\u7cfb
p18
I1
sV\u94fa\u5e73
p19
I1
sV\u59d4\u5458
p20
I5
sV\u786e\u4fe1
p21
I1
sV\u8c08\u5230
p22
I1
sV\u7eb8\u5e01
p23
I3
sV\u65e5\u672c\u4ea7
p24
I1
sV\u65b0\u5174\u529b\u91cf
p25
I1
sV\u56db\u805a\u4f53
p26
I1
sV\u8ffd\u968f
p27
I1
sV\u91cd\u542f
p28
I5
sV\u8c08\u5224
p29
I65
sV\u7814\u7a76\u9662
p30
I12
sV\u53e4\u5df4
p31
I4
sV\u4e8b\u52a1
p32
I11
sV\u6761\u7ea6
p33
I1
sV\u62e5\u6324
p34
I2
sV\u5f39\u6027
p35
I2
sV\u7528\u7535
p36
I1
sV\u56f0\u5883
p37
I4
sV\u54c1\u79cd\u6539\u826f
p38
I1
sV\u6298\u5c04\u51fa
p39
I1
sV\u4e2d\u4e1c
p40
I19
sV\u53cc\u65b9\u540c\u610f
p41
I2
sV\u5173\u7cfb
p42
I56
sV\u8038\u7acb
p43
I1
sV\u8463\u4e8b\u5c40
p44
I1
sV\u63a8\u52a8\u529b
p45
I1
sV\u4e16\u7eaa
p46
I18
sV\u5feb\u8f68
p47
I1
sV\u627f\u5305\u5546
p48
I3
sV\u8d77\u8bc9
p49
I5
sV\u4e1c\u6b27
p50
I2
sV\u76c8\u5229
p51
I12
sV\u7ebf\u4e0b
p52
I2
sV\u7535\u8baf\u62a5
p53
I3
sV\u4ef7\u683c\u4f53\u7cfb
p54
I1
sV\u9635\u8425
p55
I1
sV\u4e58\u6570
p56
I1
sV\u4e1a\u754c
p57
I3
sV\u53cd\u503e\u9500\u7a0e
p58
I2
sV\u75ab\u60c5
p59
I5
sV\u7ecf\u6d4e\u635f\u5931
p60
I1
sV\u89e3\u9664
p61
I5
sV\u7a81\u53d1
p62
I1
sV\u5b98\u5458
p63
I40
sV\u5206\u5e03
p64
I1
sV\u6253\u57ae
p65
I1
sV\u5916\u5957
p66
I2
sV\u5ba1\u6838
p67
I4
sV\u65f6\u62a5
p68
I3
sV\u68c0\u8ba8\u4f1a
p69
I1
sV\u70b9\u4f4d
p70
I1
sV\u4fdd\u62a4\u73af\u5883
p71
I1
sV\u516c\u8def
p72
I7
sV\u673a\u5382
p73
I1
sV\u7ae5\u8bdd
p74
I1
sV\u503a\u989d
p75
I1
sV\u7559\u9a7b
p76
I1
sV\u5a5a\u623f
p77
I1
sV\u8328\u57ce
p78
I1
sV\u7ec8\u7aef
p79
I1
sV\u60c5\u51b5
p80
I76
sV\u8d2c\u503c
p81
I42
sV\u6444\u5f71
p82
I1
sV\u6b27\u6d32\u5404\u56fd
p83
I2
sV\u6539\u52a8
p84
I1
sV\u4f9d\u8d56
p85
I18
sV\u4ee3\u8d2d
p86
I2
sV\u9009\u6c11
p87
I3
sV\u91c7\u53d6\u6709\u6548
p88
I1
sV\u4e0d\u7528
p89
I2
sV\u7834\u574f
p90
I1
sV\u539f\u5b50\u80fd
p91
I2
sV\u636e\u7edf\u8ba1
p92
I1
sV\u53d1\u95ee
p93
I1
sV\u964d\u5e45
p94
I6
sV\u7ffb\u8bd1
p95
I1
sV\u6536\u96c6
p96
I1
sV\u5f00\u5de5
p97
I3
sV\u65b0\u95fb
p98
I18
sV\u5eb7\u6d85\u72c4\u683c\u5dde
p99
I2
sV\u6d6a\u6f6e
p100
I1
sV\u5546\u52a1
p101
I4
sV\u8fdd\u7ea6
p102
I6
sV\u4e92\u89c1
p103
I1
sV\u4ea7\u54c1
p104
I50
sV\u5411\u4e0b
p105
I2
sV\u6d88\u9664
p106
I6
sV\u5bf9\u7b56
p107
I2
sV\u4f9b\u5e94\u91cf
p108
I2
sV\u4e24\u56fd\u95f4
p109
I1
sV\u6d88\u8d39\u4e3b\u4e49
p110
I1
sV\u5317\u6781\u5708
p111
I1
sV\u517c\u987e
p112
I2
sV\u95ee\u53ca
p113
I3
sV\u62ff\u5230
p114
I2
sV\u6708\u520a
p115
I1
sV\u56fa\u5b9a\u6c47\u7387
p116
I2
sV\u52a0\u4ef7
p117
I1
sV\u91cd\u7533
p118
I2
sV\u673a\u5236
p119
I33
sV\u7f51\u8baf
p120
I1
sV\u4e2d\u8f66
p121
I1
sV\u4efd\u989d
p122
I10
sV\u4eba\u6570
p123
I12
sV\u6700\u4f4e\u5de5\u8d44
p124
I2
sV\u56fd\u52a1\u59d4\u5458
p125
I1
sV\u4e3b\u89c2
p126
I1
sV\u6d6e\u51fa
p127
I1
sV\u8868\u660e
p128
I16
sV\u5de8\u4e8f
p129
I1
sV\u53d7\u56f0
p130
I1
sV\u91cd\u751f
p131
I1
sV\u843d\u811a\u70b9
p132
I1
sV\u906d\u9047
p133
I12
sV\u5927\u9009\u5e74
p134
I1
sV\u4fee\u590d
p135
I2
sV\u57c3\u91cc
p136
I1
sV\u5c97\u4f4d
p137
I6
sV\u5360\u636e
p138
I5
sV\u542b\u6c99\u5c04\u5f71
p139
I1
sV\u524d\u53f0
p140
I1
sV\u5f00\u5c55
p141
I19
sV\u6ca1\u80fd
p142
I1
sV\u6811\u7acb
p143
I1
sV\u5ba2\u673a
p144
I6
sV\u7ecf\u6d4e\u5708
p145
I1
sV\u8bb2\u53f0
p146
I1
sV\u524a\u5f31
p147
I6
sV\u6709\u52a9
p148
I2
sV\u4ea7\u5546
p149
I15
sV\u8d70\u79c1
p150
I1
sV\u6307\u8d23
p151
I7
sV\u505a\u51fa
p152
I28
sV\u4e0a\u58eb
p153
I1
sV\u89c1\u5e95
p154
I1
sV\u62b5\u5fa1
p155
I3
sV\u79ef\u96e8\u4e91
p156
I1
sV\u7cbe\u51c6
p157
I1
sV\u8d2d\u503a
p158
I2
sV\u4e2d\u4fc4
p159
I11
sV\u5047\u5192
p160
I1
sV\u7ee7\u7eed\u52a0\u5f3a
p161
I1
sV\u4f5c\u5e9f
p162
I2
sV\u521d\u521b
p163
I1
sV\u6536\u83b7
p164
I1
sV\u65b0\u949e
p165
I1
sV\u5b66\u6d3e
p166
I1
sV\u7231\u60c5
p167
I1
sV\u53d7\u9650
p168
I1
sV\u51fa\u66f4
p169
I1
sV\u4e2d\u8fdc
p170
I2
sV\u60f3\u8981
p171
I8
sV\u9576\u7740
p172
I1
sV\u94dd\u4ef7
p173
I1
sV\u5e94\u4f1a
p174
I1
sV\u8fbe\u6210
p175
I53
sV\u8bbf\u6cd5
p176
I1
sV\u5019\u673a\u697c
p177
I1
sV\u914d\u5408
p178
I1
sV\u610f\u89c1
p179
I5
sV\u7559\u5b66
p180
I1
sV\u6539\u53d8
p181
I22
sV\u8fc7\u6e21
p182
I1
sV\u5148\u884c\u8005
p183
I1
sV\u96c7\u7528
p184
I1
sV\u66fc\u8c37
p185
I5
sV\u6240\u9700
p186
I2
sV\u91d1\u4ef7
p187
I6
sV\u7980\u8d4b
p188
I1
sV\u6bd4\u5229\u65f6
p189
I2
sV\u5c45\u6c11\u6d88\u8d39
p190
I2
sV\u8c08\u53ca
p191
I2
sV\u6807\u7684
p192
I3
sV\u9500\u552e\u6536\u5165
p193
I1
sV\u4e4c\u5179\u522b\u514b\u65af\u5766
p194
I3
sV\u5927\u836f
p195
I1
sV\u5973\u513f
p196
I2
sV\u5236\u836f
p197
I1
sV\u6027\u683c\u7279\u5f81
p198
I1
sV\u63d0\u70bc\u5382
p199
I1
sV\u9519\u8bef
p200
I7
sV\u81f4\u7535
p201
I1
sV\u4e0e\u90a3\u56fd\u5c9b
p202
I1
sV\u7f05\u7538
p203
I2
sV\u683c\u5c40
p204
I5
sV\u526f\u8463\u4e8b\u957f
p205
I2
sV\u7f5a\u91d1
p206
I2
sV\u6c42\u52a9\u4e8e
p207
I1
sV\u76ee\u5149
p208
I8
sV\u603b\u91cf
p209
I7
sV\u51cf\u85aa
p210
I1
sV\u8c03\u67e5\u8fc7\u7a0b
p211
I1
sV\u6c42\u804c
p212
I1
sV\u643a\u5e26
p213
I2
sV\u5df4\u82cf
p214
I1
sV\u8054\u7cfb
p215
I6
sV\u8c0b\u6c42
p216
I2
sV\u63a8\u9ad8
p217
I6
sV\u5de5\u4e1a\u751f\u4ea7
p218
I1
sV\u9047\u5230
p219
I5
sV\u516c\u53f8\u603b\u88c1
p220
I4
sV\u65f6\u95f4\u8868
p221
I2
sV\u6574\u6574
p222
I1
sV\u6b27\u4e9a
p223
I14
sV\u6574\u6570
p224
I1
sV\u83b7\u8d54
p225
I1
sV\u4e09\u5ce1
p226
I1
sV\u79bb\u5f00
p227
I1
sV\u8054\u624b
p228
I3
sV\u6cd5\u5236
p229
I1
sV\u6d88\u8d39\u8005
p230
I33
sV\u6469\u6d1b\u54e5
p231
I1
sV\u85aa\u6c34
p232
I1
sV\u6539\u9020
p233
I4
sV\u9690\u533f
p234
I1
sV\u516c\u4f17
p235
I4
sV\u94c1\u9053
p236
I1
sV\u6ce2\u52a8\u6027
p237
I6
sV\u82f1\u62c9
p238
I1
sV\u9152\u7c7b
p239
I2
sV\u57fa\u5730
p240
I6
sV\u534e\u76db\u987f\u5dde
p241
I6
sV\u673a\u5173
p242
I4
sV\u6bdb\u94b1
p243
I1
sV\u9996\u4efb
p244
I2
sV\u5a92\u4f53
p245
I43
sV\u5b63\u8c03
p246
I1
sV\u5728\u5916
p247
I1
sV\u98de\u821e
p248
I1
sV\u5c06\u4ee4
p249
I1
sV\u732a\u8089
p250
I2
sV\u79fb\u6c11
p251
I9
sV\u51fa\u53e3\u989d
p252
I2
sV\u5b9a\u5236
p253
I1
sV\u4e0e\u4f1a\u8005
p254
I3
sV\u53ea\u80fd
p255
I11
sV\u4f7f\u7136
p256
I1
sV\u6d41\u7a0b
p257
I2
sV\u9ed1\u4eba
p258
I1
sV\u79d1\u7814\u673a\u6784
p259
I1
sV\u827a\u672f
p260
I1
sV\u5e73\u590d
p261
I1
sV\u524d\u503c
p262
I2
sV\u4e34\u7701
p263
I1
sV\u759f\u75be
p264
I1
sV\u57c3\u5229
p265
I2
sV\u56de\u8c03
p266
I4
sV\u5e72\u6270
p267
I1
sV\u6cd5\u5b98
p268
I1
sV\u6cd5\u5b9a
p269
I6
sV\u7ae0\u7a0b
p270
I3
sV\u89c4\u683c
p271
I1
sV\u53f8\u4ee4\u90e8
p272
I1
sV\u524d\u9014
p273
I1
sV\u8d2c\u5230
p274
I1
sV\u8fbe\u610f
p275
I1
sV\u7a81\u51fa
p276
I1
sV\u505a\u5230
p277
I1
sV\u7fa4\u4f53
p278
I2
sV\u6210\u7247
p279
I1
sV\u5f00\u5fc3
p280
I2
sV\u5f03\u5b88
p281
I1
sV\u613f\u4e3a
p282
I1
sV\u9971\u53d7
p283
I2
sV\u4ea7\u56fd
p284
I1
sV\u8d22\u653f\u56f0\u96be
p285
I1
sV\u91d1\u878d\u4ea4\u6613
p286
I1
sV\u6210\u90fd
p287
I2
sV\u53f8\u673a
p288
I3
sV\u63a5\u6536\u7ad9
p289
I1
sV\u5168\u90e8
p290
I16
sV\u4ebf\u4e07\u5bcc\u7fc1
p291
I4
sV\u6838\u707e
p292
I1
sV\u771f\u5047
p293
I1
sV\u8ba2\u8d27\u91cf
p294
I1
sV\u65b0\u57ce
p295
I1
sV\u793c\u7269
p296
I1
sV\u6cbb\u6108
p297
I1
sV\u72c2\u6b22
p298
I1
sV\u5546\u6807\u6cd5
p299
I1
sV\u8f70\u70b8
p300
I1
sV\u6cd7\u6c34
p301
I1
sV\u5e02\u653f\u5e9c
p302
I2
sV\u767e\u8001\u6c47
p303
I1
sV\u5173\u8054
p304
I6
sV\u666e\u5929\u95f4\u673a\u573a
p305
I1
sV\u5bb6\u5c5e
p306
I1
sV\u4e0a\u5b66
p307
I1
sV\u5f15\u7206
p308
I1
sV\u6210\u50cf
p309
I1
sV\u6697\u6307
p310
I1
sV\u4e2d\u8d44
p311
I2
sV\u653e\u7f13
p312
I50
sV\u7a7a\u7f6e\u7387
p313
I1
sV\u4ea7\u5730
p314
I1
sV\u4f9d\u9760
p315
I7
sV\u79d8\u9c81
p316
I6
sV\u6324\u5360
p317
I1
sV\u65c1\u542c
p318
I1
sV\u9694\u65ad
p319
I1
sV\u505a\u5ba2
p320
I1
sV\u5bc6\u96c6
p321
I3
sV\u82cf\u5dde\u5e02
p322
I1
sV\u7ea6\u675f
p323
I1
sV\u4ee3\u4ef7
p324
I5
sV\u79d1\u5411
p325
I1
sV\u5e74\u957f
p326
I1
sV\u56de\u843d
p327
I6
sV\u8bc1\u5238\u5e02\u573a
p328
I1
sV\u821e\u53f0
p329
I1
sV\u6cd5\u56fd\u5df4\u9ece
p330
I1
sV\u8c03\u67e5\u7ed3\u679c
p331
I4
sV\u5730\u7403\u7269\u7406
p332
I1
sV\u4e3a\u8d1f
p333
I1
sV\u529f\u592b
p334
I1
sV\u906d\u5230
p335
I13
sV\u5439\u98ce\u4f1a
p336
I1
sV\u4e70\u8fdb
p337
I1
sV\u7b3c\u7f69
p338
I2
sV\u5766\u767d\u4ea4\u4ee3
p339
I1
sV\u7ecf\u5546\u53c2
p340
I1
sV\u57c3\u53ca
p341
I4
sV\u5382\u5546
p342
I1
sV\u6b65\u9aa4
p343
I1
sV\u5916\u5a92
p344
I20
sV\u5927\u81e3
p345
I6
sV\u6de1\u6c34
p346
I1
sV\u6cc4\u6f0f
p347
I1
sV\u5f00\u5e55
p348
I3
sV\u6d88\u8d39\u989d
p349
I1
sV\u592a\u539f
p350
I1
sV\u5426\u51b3\u7968
p351
I1
sV\u65a1\u65cb
p352
I1
sV\u673a\u9047
p353
I16
sV\u4e2d\u8d28
p354
I1
sV\u63a5\u53d7\u8005
p355
I1
sV\u7535\u6c60
p356
I4
sV\u63d0\u9ad8\u6548\u7387
p357
I2
sV\u96c6\u7fa4
p358
I1
sV\u519b\u8b66
p359
I1
sV\u6ce2\u7f57\u7684\u6d77
p360
I1
sV\u65b0\u7586
p361
I3
sV\u5e73\u58e4
p362
I1
sV\u8fc7\u6c14
p363
I1
sV\u68c0\u89c6
p364
I1
sV\u8def\u5f84
p365
I6
sV\u57fa\u56e0
p366
I1
sV\u70ed\u8877\u4e8e
p367
I2
sV\u4e8b\u5173
p368
I1
sV\u5f00\u5b87
p369
I1
sV\u5c0f\u6c14\u9b3c
p370
I1
sV\u5f00\u5e97
p371
I1
sV\u63a7\u80a1
p372
I5
sV\u6df1\u6c34\u6e2f
p373
I1
sV\u6e17\u900f\u7387
p374
I1
sV\u9884\u9632\u6027
p375
I1
sV\u610f\u8bc6
p376
I3
sV\u5148\u9a71
p377
I1
sV\u673a\u68b0\u8bbe\u5907
p378
I1
sV\u60c5\u52bf
p379
I1
sV\u594b\u6597
p380
I1
sV\u9996\u9009
p381
I1
sV\u4eba\u6c14
p382
I1
sV\u6240\u957f
p383
I2
sV\u5e02\u573a\u4ef7
p384
I1
sV\u514d\u9664
p385
I1
sV\u751f\u5b58
p386
I2
sV\u6c34\u5854
p387
I2
sV\u6295\u8d44\u65b9
p388
I1
sV\u95f9\u5267
p389
I1
sV\u5bfc\u5f39
p390
I1
sV\u538b\u8231
p391
I1
sV\u9aa4\u964d
p392
I1
sV\u62db\u6807
p393
I3
sV\u65f6\u6bb5
p394
I4
sV\u529e\u516c\u5385
p395
I1
sV\u62ff\u4e0b
p396
I1
sV\u5b9e\u9a8c\u5ba4
p397
I1
sV\u6df1\u5733\u5e02
p398
I1
sV\u6324\u538b
p399
I1
sV\u7f62\u624b
p400
I1
sV\u4e0a\u9a6c
p401
I1
sV\u76f8\u7518
p402
I1
sV\u7f14\u7ea6\u65b9
p403
I1
sV\u5931\u63a7
p404
I1
sV\u5916\u56fd\u6e38\u5ba2
p405
I2
sV\u5f00\u5efa
p406
I1
sV\u62a8\u51fb
p407
I1
sV\u732e\u4e0a
p408
I1
sV\u6301\u7eed\u65f6\u95f4
p409
I2
sV\u98df\u7cd6
p410
I2
sV\u4f53\u5236
p411
I4
sV\u6280\u672f
p412
I69
sV\u6536\u5230
p413
I6
sV\u673a\u573a
p414
I10
sV\u72ee\u5b50
p415
I1
sV\u6c34\u8d44\u6e90
p416
I1
sV\u62c9\u52a8
p417
I8
sV\u5f53\u6210
p418
I2
sV\u70b9\u8bc4
p419
I1
sV\u6848\u6587
p420
I1
sV\u4f9b\u5e94\u94fe
p421
I2
sV\u516c\u7528\u4e8b\u4e1a
p422
I1
sV\u4f4f\u5b85\u5efa\u8bbe
p423
I1
sV\u526f\u603b\u88c1
p424
I4
sV\u53cd\u5bf9\u515a
p425
I1
sV\u4f4d\u5c45
p426
I4
sV\u79d8\u5bc6
p427
I2
sV\u8c6a\u5b85
p428
I3
sV\u653f\u5e9c\u90e8\u95e8
p429
I2
sV\u7f16\u8f91
p430
I5
sV\u5ba2\u6237
p431
I18
sV\u62c9\u52a0
p432
I13
sV\u963f\u7a46\u5c14\u6cb3
p433
I1
sV\u53c2\u8bae\u9662
p434
I6
sV\u4e9a\u7279\u5170\u5927
p435
I5
sV\u5b9a\u5411
p436
I3
sV\u6446\u8131
p437
I3
sV\u62e5\u6709
p438
I31
sV\u6b20\u4f73
p439
I1
sV\u7092\u4f5c
p440
I1
sV\u6c99\u7279\u963f\u62c9\u4f2f
p441
I11
sV\u786e\u8ba4
p442
I6
sV\u4ea7\u5047
p443
I1
sV\u5b98\u90b8
p444
I1
sV\u5feb\u9910
p445
I2
sV\u5934\u7eea
p446
I1
sV\u9a87\u5ba2
p447
I1
sV\u60f3\u8c61
p448
I1
sV\u8d1f\u53cd\u9988
p449
I1
sV\u89c2\u70b9
p450
I14
sV\u8d22\u653f\u8d64\u5b57
p451
I5
sV\u5012\u8d34
p452
I1
sV\u5b50\u5973
p453
I3
sV\u6cb9\u8f6e
p454
I1
sV\u7ec8\u7ed3
p455
I3
sV\u4eba\u6b21
p456
I1
sV\u6cb9\u8f66
p457
I1
sV\u4f4f\u5bbf
p458
I2
sV\u5b66\u6821
p459
I4
sV\u9970\u54c1
p460
I1
sV\u79f0\u5f97\u4e0a
p461
I1
sV\u5de5\u4f5c\u7ec4
p462
I6
sV\u552f\u6050
p463
I1
sV\u4f5c\u5bb6
p464
I1
sV\u5438\u70df\u7387
p465
I1
sV\u7981\u4ee4
p466
I4
sV\u7eaa\u5ff5\u6d3b\u52a8
p467
I1
sV\u673a\u578b
p468
I1
sV\u77e5\u60c5
p469
I4
sV\u57fa\u51c6
p470
I10
sV\u4f4d\u6709
p471
I1
sV\u6253\u538b
p472
I7
sV\u793e\u4f1a\u6548\u76ca
p473
I1
sV\u5168\u4f53\u4f1a\u8bae
p474
I1
sV\u5973\u6027
p475
I3
sV\u57fa\u91d1
p476
I29
sV\u91c7\u7528
p477
I10
sV\u9632\u6b62
p478
I6
sV\u58eb\u7ec5
p479
I1
sV\u8d85\u8d8a
p480
I6
sV\u6050\u6016\u5206\u5b50
p481
I2
sV\u80a1\u7968
p482
I15
sV\u5bb6\u4eba
p483
I1
sV\u53d1\u51fa
p484
I12
sV\u5916\u957f
p485
I3
sV\u5929\u4ef7
p486
I1
sV\u62c5\u4fdd
p487
I5
sV\u8f68\u9053
p488
I5
sV\u5927\u897f\u6d0b
p489
I2
sV\u4fc4\u514b\u62c9\u8377\u9a6c\u5dde
p490
I1
sV\u5408\u5efa
p491
I1
sV\u53cb\u597d\u4eba\u58eb
p492
I1
sV\u601d\u60f3
p493
I1
sV\u9700\u81ea
p494
I1
sV\u5168\u529b
p495
I1
sV\u7535\u52a8\u6c7d\u8f66
p496
I1
sV\u53d7\u76ca\u8005
p497
I1
sV\u635f\u5bb3
p498
I12
sV\u5e02\u76c8\u7387
p499
I2
sV\u6536\u8d2d\u8ba1\u5212
p500
I1
sV\u91cd\u7f5a
p501
I1
sV\u80a1\u795e
p502
I2
sV\u6539\u9769
p503
I71
sV\u662f\u4ece
p504
I1
sV\u7cd6\u5e02
p505
I1
sV\u4e1c\u9053\u56fd
p506
I1
sV\u76ef\u4e0a
p507
I1
sV\u52a8\u80fd
p508
I1
sV\u80cc\u666f
p509
I8
sV\u53d1\u503a
p510
I2
sV\u4f9b\u9700
p511
I4
sV\u79ef\u538b
p512
I2
sV\u5165\u72f1
p513
I1
sV\u6cb9\u4ef7
p514
I77
sV\u79ef\u7d2f
p515
I6
sV\u5339\u914d
p516
I1
sV\u80fd\u6e90
p517
I78
sV\u5c42\u9762
p518
I8
sV\u51fa\u624b
p519
I2
sV\u79cd\u690d
p520
I3
sV\u519b\u8d39
p521
I1
sV\u8840\u8def
p522
I1
sV\u9a71\u9f20
p523
I1
sV\u6700\u9ad8\u70b9
p524
I1
sV\u540e\u679c
p525
I3
sV\u652f\u51fa
p526
I15
sV\u6781\u5177
p527
I1
sV\u671f\u8d27\u5e02\u573a
p528
I2
sV\u4e2d\u4e9a
p529
I7
sV\u7559\u5ff5
p530
I1
sV\u8c03\u6574
p531
I33
sV\u7ade\u9009\u4eba
p532
I1
sV\u7ec4\u88c5
p533
I1
sV\u673a\u5668
p534
I2
sV\u5f25\u8865
p535
I3
sV\u81ea\u52a8\u68c0\u6d4b
p536
I1
sV\u9886\u5bfc\u8005
p537
I1
sV\u7591\u4f3c
p538
I2
sV\u8d85\u8c03
p539
I1
sV\u7ecf\u6d4e\u533a
p540
I1
sV\u5168\u9762
p541
I31
sV\u4e39\u9633
p542
I1
sV\u5e94\u8be5
p543
I47
sV\u4eba\u5458\u540d\u5355
p544
I1
sV\u4e0d\u70b8
p545
I1
sV\u94dc\u4ef7
p546
I7
sV\u4ee3\u540d\u8bcd
p547
I1
sV\u83ab\u6839
p548
I1
sV\u5546\u573a
p549
I1
sV\u51fa\u6d77\u53e3
p550
I1
sV\u7ecf\u7eaa\u4eba
p551
I1
sV\u4ea4\u5f80
p552
I6
sV\u5de5\u671f
p553
I1
sV\u4fe1\u606f\u7f51
p554
I1
sV\u5e94\u8bc9
p555
I2
sV\u6cb9\u4e95
p556
I3
sV\u91cc\u7ea6\u6e2f
p557
I1
sV\u9006\u5dee
p558
I2
sV\u5728\u5efa
p559
I2
sV\u652f\u914d
p560
I1
sV\u4ee3\u8868
p561
I37
sV\u8003\u91cf
p562
I2
sV\u9a6c\u54c8\u62c9\u65bd\u7279\u62c9\u90a6
p563
I1
sV\u539f\u9898
p564
I3
sV\u6d77\u6e2f
p565
I1
sV\u4f9b\u5e94\u5546
p566
I5
sV\u5317\u7f8e\u5730\u533a
p567
I1
sV\u4e0d\u706b
p568
I1
sV\u56fd\u8425
p569
I2
sV\u7981\u8fd0
p570
I2
sV\u6709\u964d
p571
I1
sV\u9177\u7231
p572
I1
sV\u67e5\u51fa
p573
I1
sV\u7ecf\u6d4e\u53f2
p574
I1
sV\u672c\u571f
p575
I9
sV\u4e0a\u5c06
p576
I1
sV\u6df1\u6e0a
p577
I1
sV\u4ec0\u53f6\u6d3e
p578
I1
sV\u5f97\u76ca\u4e8e
p579
I5
sV\u79fb\u52a8
p580
I3
sV\u7814\u8ba8\u4f1a
p581
I3
sV\u6c88\u9633
p582
I1
sV\u589e\u81f3
p583
I3
sV\u5e03\u5b9c\u8bfa\u65af\u827e\u5229\u65af
p584
I1
sV\u529e\u4e8b\u5904
p585
I1
sV\u8b66\u5907
p586
I1
sV\u590d\u5370\u673a
p587
I1
sV\u8d3f\u8d42
p588
I1
sV\u5206\u5b50
p589
I1
sV\u514d\u906d
p590
I1
sV\u6807\u51c6\u7bb1
p591
I1
sV\u4ea7\u51fa
p592
I34
sV\u5f15\u7533
p593
I1
sV\u91d1\u878d\u4e1a
p594
I2
sV\u6d3b\u6027
p595
I1
sV\u5f15\u7528
p596
I1
sV\u6d77\u6e7e
p597
I3
sV\u5ba3\u79f0
p598
I3
sV\u671f\u6743
p599
I3
sV\u884c\u5c06
p600
I3
sV\u5f97\u4ee5
p601
I4
sV\u7b56\u7565
p602
I16
sV\u4fbf\u5229\u5316
p603
I9
sV\u503a\u738b
p604
I1
sV\u5238\u5546
p605
I2
sV\u6c34\u5e73
p606
I69
sV\u592a\u5e73\u6d0b
p607
I7
sV\u9898\u4e3a
p608
I2
sV\u6536\u53d6
p609
I1
sV\u53d7\u5230
p610
I48
sV\u4ea7\u91cf
p611
I28
sV\u523b\u610f
p612
I1
sV\u63a8\u5d07
p613
I1
sV\u5168\u957f\u7ea6
p614
I1
sV\u4e2d\u65ad
p615
I1
sV\u8ba1\u4ef7
p616
I10
sV\u4e0b\u6d41
p617
I1
sV\u667a\u80fd
p618
I8
sV\u624b\u673a
p619
I4
sV\u513f\u7ae5
p620
I3
sV\u7565\u6709
p621
I4
sV\u610f\u4e49
p622
I10
sV\u65b0\u533a
p623
I1
sV\u5317\u4eac
p624
I141
sV\u7834\u51b0
p625
I1
sV\u7ed9\u51fa
p626
I4
sV\u8d85\u8f7b
p627
I1
sV\u6587\u7ae0
p628
I17
sV\u6218\u4e71
p629
I1
sV\u56fd\u6c11\u7ecf\u6d4e
p630
I1
sV\u53d9\u5229\u4e9a
p631
I6
sV\u5e74\u901f
p632
I1
sV\u8c03\u67e5\u5c40
p633
I1
sV\u731c\u8c1c
p634
I1
sV\u900f\u660e\u5ea6
p635
I6
sV\u77ff\u5c71
p636
I3
sV\u5f81\u7a0e
p637
I5
sV\u88c5\u4f5c
p638
I1
sV\u7ec6\u8282
p639
I3
sV\u6b7b\u56e0
p640
I1
sV\u6253\u5165
p641
I2
sV\u53c2\u8bae\u5458
p642
I2
sV\u9ad8\u901f\u8def
p643
I1
sV\u6210\u5458
p644
I26
sV\u635f\u5931
p645
I11
sV\u5217\u4e3a
p646
I1
sV\u897f\u4e9a\u5730\u533a
p647
I1
sV\u514d\u53d7
p648
I1
sV\u5ef6\u7f13
p649
I1
sV\u8c08\u59a5
p650
I1
sV\u5931\u662f
p651
I1
sV\u5b8f\u6e90
p652
I2
sV\u8d54\u507f
p653
I3
sV\u5e76\u5165
p654
I1
sV\u8d85\u8fc7
p655
I67
sV\u8bf4\u9053
p656
I3
sV\u53f0\u6e7e\u5730\u533a
p657
I5
sV\u707c\u70e7
p658
I1
sV\u5229\u6da6\u7387
p659
I6
sV\u603b\u7edf\u5e9c
p660
I1
sV\u4fe1\u53f7
p661
I12
sV\u4f7f\u7528
p662
I31
sV\u519b\u4e8b
p663
I6
sV\u6d88\u9000
p664
I3
sV\u52a8\u8361
p665
I30
sV\u6323\u94b1
p666
I1
sV\u4eb2\u670b
p667
I1
sV\u9047\u96be
p668
I1
sV\u72c2\u6f6e
p669
I2
sV\u6d77\u6d0b
p670
I8
sV\u627e\u5230
p671
I9
sV\u4fee\u5efa
p672
I5
sV\u884c\u5f53
p673
I1
sV\u6cd5\u5f8b
p674
I20
sV\u4fb5\u5165
p675
I1
sV\u539f\u6cb9\u671f\u8d27
p676
I8
sV\u539f\u5ba1
p677
I1
sV\u6253\u51fb
p678
I22
sV\u5e1d\u56fd
p679
I2
sV\u6218\u4e89
p680
I6
sV\u7a0b\u5ea6
p681
I19
sV\u53c2\u8003
p682
I3
sV\u547c\u5401
p683
I14
sV\u8054\u7edc\u5c0f\u7ec4
p684
I1
sV\u592a\u9633
p685
I1
sV\u5e38\u9a7b
p686
I1
sV\u57f9\u517b
p687
I1
sV\u78b0\u58c1
p688
I1
sV\u6392\u653e\u91cf
p689
I2
sV\u4e92\u4fe1
p690
I7
sV\u5927\u90fd\u5e02
p691
I2
sV\u65e5\u5185\u74e6
p692
I3
sV\u5bcc\u4eba
p693
I7
sV\u88c5\u8fd0
p694
I1
sV\u5fc5\u62d3
p695
I1
sV\u5730\u4f4d
p696
I21
sV\u4ff1\u4e50\u90e8
p697
I3
sV\u88c5\u4fee
p698
I1
sV\u7ed3\u675f
p699
I32
sV\u6df1\u6d77
p700
I1
sV\u66b4\u529b\u4e8b\u4ef6
p701
I1
sV\u5df4\u62ff\u9a6c\u8fd0\u6cb3
p702
I1
sV\u7a0b\u5e8f
p703
I8
sV\u6708\u95f4
p704
I3
sV\u65b0\u836f
p705
I1
sV\u6ce2\u82ac\u683c\u5c14
p706
I1
sV\u7535\u5b50\u5316
p707
I1
sV\u8131\u8eab
p708
I1
sV\u7ea0\u9519
p709
I1
sV\u6b66\u88c5\u51b2\u7a81
p710
I2
sV\u8863\u7269
p711
I2
sV\u6000\u6709
p712
I1
sV\u4ea7\u533a
p713
I2
sV\u5b8f\u89c2
p714
I4
sV\u9012\u4ea4
p715
I1
sV\u9884\u89c1\u5230
p716
I1
sV\u6050\u6016\u88ad\u51fb
p717
I3
sV\u5386\u7a0b
p718
I2
sV\u7ec6\u83cc
p719
I2
sV\u7559\u8a00\u7c3f
p720
I1
sV\u8d26\u76ee
p721
I2
sV\u7533\u62a5\u8868
p722
I1
sV\u6ce8\u5b9a
p723
I3
sV\u89e3\u91ca
p724
I6
sV\u62b5\u62bc\u54c1
p725
I1
sV\u9ad8\u8d28\u91cf
p726
I2
sV\u65e0\u5e8f
p727
I1
sV\u6d88\u8d39\u7a0e
p728
I2
sV\u63d0\u51fa
p729
I44
sV\u5f00\u91c7\u91cf
p730
I1
sV\u5730\u4ea7
p731
I8
sV\u6625\u4f1a
p732
I1
sV\u8131\u8f68
p733
I2
sV\u80a1\u7968\u4ef7\u683c
p734
I1
sV\u8868\u6001
p735
I12
sV\u6570\u636e
p736
I69
sV\u6028\u58f0
p737
I1
sV\u89c6\u9891
p738
I4
sV\u8bfa\u6e2f
p739
I1
sV\u6536\u5165
p740
I37
sV\u89e6\u53d1
p741
I5
sV\u6cb3\u5317
p742
I2
sV\u5931\u671b
p743
I7
sV\u535a\u89c8\u4f1a
p744
I3
sV\u4e0b\u8bae\u9662
p745
I1
sV\u6210\u957f
p746
I3
sV\u5409\u6797
p747
I1
sV\u89e3\u51bb
p748
I1
sV\u5178\u793c
p749
I1
sV\u89e3\u51b3
p750
I23
sV\u7740\u529b
p751
I1
sV\u5386\u53f2\u5b66\u5bb6
p752
I1
sV\u8981\u7d20
p753
I1
sV\u7f79\u764c
p754
I1
sV\u6709\u94b1
p755
I3
sV\u5426\u5b9a
p756
I1
sV\u75de\u5973
p757
I1
sV\u5730\u52e4\u4eba\u5458
p758
I1
sV\u65e5\u5b50
p759
I2
sV\u65b0\u5efa
p760
I5
sV\u4e4c\u62c9\u572d
p761
I3
sV\u536b\u751f\u90e8\u95e8
p762
I1
sV\u7cbe\u795e\u79d1
p763
I1
sV\u6280\u80fd
p764
I2
sV\u5168\u79d1
p765
I1
sV\u644a\u8fd8
p766
I1
sV\u6740\u624b
p767
I1
sV\u4eba\u5de5\u667a\u80fd
p768
I2
sV\u6709\u529b
p769
I3
sV\u5357\u534a\u7403
p770
I1
sV\u6c47\u7387
p771
I38
sV\u6d89\u53ca
p772
I16
sV\u7a0e\u6b3e
p773
I1
sV\u53d1\u52a8
p774
I5
sV\u52df\u8d44
p775
I1
sV\u4e0a\u5e02
p776
I4
sV\u6838\u7535
p777
I18
sV\u4e3b\u4f53
p778
I1
sV\u6539\u5efa
p779
I1
sV\u6df1\u6c34
p780
I2
sV\u811a\u6b65
p781
I2
sV\u91cd\u65b0\u8003\u8651
p782
I2
sV\u8c03\u67e5
p783
I43
sV\u4eba\u6c11\u7f51
p784
I1
sV\u5efa\u8bbe\u9879\u76ee
p785
I1
sV\u7535\u5b50\u90ae\u4ef6
p786
I1
sV\u4e89\u7aef
p787
I6
sV\u653f\u7b56\u63aa\u65bd
p788
I2
sV\u8017\u5c3d
p789
I1
sV\u786c\u901a\u8d27
p790
I2
sV\u5916\u5e01
p791
I2
sV\u6d88\u606f\u9762
p792
I1
sV\u534a\u5c9b
p793
I1
sV\u666e\u901a\u4eba
p794
I1
sV\u80af\u5b9a
p795
I6
sV\u6fc0\u589e
p796
I5
sV\u6bd2\u8d29
p797
I1
sV\u6f14\u8bb2\u65f6
p798
I1
sV\u5317\u8f66
p799
I1
sV\u66ff\u4ee3\u56fd
p800
I1
sV\u94bb\u4e95
p801
I6
sV\u6848\u4f8b
p802
I2
sV\u6539\u5584
p803
I42
sV\u793e\u4f1a\u4fdd\u969c
p804
I2
sV\u4e2a\u4eba\u6d88\u8d39
p805
I2
sV\u70ed\u8877
p806
I1
sV\u4f18\u70b9
p807
I1
sV\u4f53\u91cf
p808
I2
sV\u6380\u8d77
p809
I2
sV\u53d1\u6398
p810
I2
sV\u7535\u6c60\u677f
p811
I1
sV\u5f00\u9500
p812
I1
sV\u5e73\u539f
p813
I1
sV\u53cd\u6620
p814
I11
sV\u521b\u5efa\u8005
p815
I1
sV\u7528\u6237\u7fa4
p816
I1
sV\u5b9e\u4f53
p817
I2
sV\u7f29\u6c34
p818
I3
sV\u5185\u655b
p819
I1
sV\u4e70\u4e0b
p820
I5
sV\u96c6\u4e2d\u5ea6
p821
I1
sV\u65b0\u95fb\u5b98
p822
I1
sV\u520a\u6587
p823
I2
sV\u4e0d\u786e\u5b9a\u6027
p824
I12
sV\u4e09\u56fd
p825
I3
sV\u5206\u6821
p826
I1
sV\u5371\u673a
p827
I51
sV\u8b66\u949f
p828
I1
sV\u52bf\u5fc5\u4f1a
p829
I2
sV\u6bd4\u964d
p830
I1
sV\u6240\u5efa
p831
I1
sV\u5546\u672c
p832
I1
sV\u5f3a\u5316
p833
I1
sV\u6253\u5f00
p834
I4
sV\u517c\u5e76
p835
I1
sV\u79bb\u804c
p836
I4
sV\u8d22\u4ea7
p837
I5
sV\u8f90\u5c04
p838
I1
sV\u8bb0\u5f55
p839
I6
sV\u6cd5\u5174
p840
I2
sV\u52a8\u7269
p841
I2
sV\u6742\u97f3
p842
I1
sV\u7ecf\u6d4e\u5e26
p843
I4
sV\u5bf9\u7acb
p844
I3
sV\u964d\u96ea
p845
I1
sV\u59d4\u5185\u745e\u62c9
p846
I11
sV\u662f\u5426
p847
I48
sV\u6559\u8bad
p848
I1
sV\u62e8\u4ed8
p849
I1
sV\u5171\u548c\u56fd
p850
I5
sV\u6760\u6746\u4f5c\u7528
p851
I1
sV\u4e0a\u51fa
p852
I1
sV\u4e0d\u5229\u4e8e
p853
I1
sV\u6b62\u8dcc
p854
I3
sV\u5e73\u53f0
p855
I13
sV\u67e5\u5c01
p856
I1
sV\u7269\u8d44
p857
I3
sV\u601d\u7525
p858
I1
sV\u65e0\u91d1
p859
I1
sV\u610f\u5927\u5229
p860
I11
sV\u8bbe\u5907
p861
I4
sV\u963b\u788d
p862
I3
sV\u5408\u529b
p863
I2
sV\u7cd6\u5382
p864
I1
sV\u8bb0\u5f97
p865
I1
sV\u526f\u53f8\u957f
p866
I1
sV\u6b65\u5165
p867
I2
sV\u4e3b\u5bfc\u5730\u4f4d
p868
I1
sV\u9884\u8c03
p869
I1
sV\u8d8b\u4e8e
p870
I1
sV\u6350\u8d60
p871
I3
sV\u77e5\u8bc6\u4ea7\u6743
p872
I5
sV\u7f8a\u8089
p873
I1
sV\u6218\u80dc
p874
I1
sV\u8d22\u52a1\u72b6\u51b5
p875
I1
sV\u8bbf\u65e5
p876
I2
sV\u4ea4\u5272
p877
I2
sV\u9707\u60ca
p878
I1
sV\u8ddf\u7740
p879
I2
sV\u6b21\u5b50
p880
I1
sV\u826f\u6027
p881
I1
sV\u9002\u7528
p882
I3
sV\u677e\u624b
p883
I1
sV\u98df\u54c1
p884
I18
sV\u8239\u8fd0
p885
I1
sV\u9014\u5f84
p886
I3
sV\u91d1\u878d
p887
I60
sV\u5c0f\u89d1
p888
I1
sV\u73af\u4fdd\u7f72
p889
I1
sV\u75db\u65a5
p890
I1
sV\u8ffd\u5e73
p891
I1
sV\u53c2\u4e0e
p892
I28
sV\u56e2\u4f53
p893
I3
sV\u65e0\u5173
p894
I2
sV\u5934\u724c
p895
I1
sV\u51cf\u8f7b
p896
I2
sV\u57c3\u585e
p897
I3
sV\u5934\u7248
p898
I1
sV\u5927\u4e0d\u5217\u98a0
p899
I1
sV\u6295\u4ea7
p900
I1
sV\u5408\u6cd5
p901
I2
sV\u58f0\u660e
p902
I19
sV\u4e92\u8054\u7f51
p903
I5
sV\u7edf\u4e00
p904
I3
sV\u5d29\u76d8
p905
I9
sV\u7279\u62c9\u534e\u5dde
p906
I1
sV\u7ecf\u624b
p907
I1
sV\u5bfc\u5411
p908
I2
sV\u673a\u5bc6
p909
I2
sV\u7236\u6bcd
p910
I3
sV\u8d77\u8349
p911
I2
sV\u4eba\u6743
p912
I1
sV\u8fdb\u53e3
p913
I34
sV\u5783\u573e
p914
I3
sV\u94f6\u884c\u884c\u957f
p915
I4
sV\u5e74\u5ea6
p916
I17
sV\u8b66\u544a
p917
I10
sV\u6301\u4ed3\u91cf
p918
I1
sV\u63a7\u8bc9
p919
I1
sV\u63a8\u51fa
p920
I14
sV\u6d77\u62a5
p921
I1
sV\u5730\u65b9
p922
I23
sV\u6c34\u529b
p923
I1
sV\u52fa\u5b50
p924
I1
sV\u70c8\u9152
p925
I1
sV\u9a6c\u6765\u897f\u4e9a
p926
I11
sV\u7a00\u6709
p927
I1
sV\u9c91\u9c7c
p928
I1
sV\u4e8b\u52a1\u90e8
p929
I3
sV\u7279\u8272\u65c5\u6e38
p930
I1
sV\u5760\u673a
p931
I1
sV\u5f3a\u5236
p932
I2
sV\u4ef7\u683c
p933
I98
sV\u5360\u6b3e
p934
I1
sV\u6e29\u5e26
p935
I1
sV\u538b\u88c2
p936
I2
sV\u521b\u65b0
p937
I29
sV\u53ef\u884c\u6027
p938
I3
sV\u52d8\u63a2
p939
I1
sV\u804c\u573a
p940
I1
sV\u5747\u503c
p941
I7
sV\u6b86\u5c3d
p942
I1
sV\u57fa\u5c42
p943
I1
sV\u5de5\u4f5c\u4eba\u5458
p944
I1
sV\u5b89\u7f6e
p945
I1
sV\u5b9e\u4e60
p946
I11
sV\u6838\u7b97
p947
I1
sV\u53f8\u6cd5
p948
I2
sV\u6559\u6388
p949
I10
sV\u5168\u4e16\u754c
p950
I9
sV\u4e07\u5411
p951
I1
sV\u996e\u6599
p952
I2
sV\u6355\u635e
p953
I1
sV\u4e1c\u5317\u5730\u533a
p954
I2
sV\u8fdc\u89c1
p955
I1
sV\u65b0\u5c4b
p956
I1
sV\u8463\u4e8b\u957f
p957
I4
sV\u5faa\u73af
p958
I1
sV\u4e92\u8054
p959
I2
sV\u53d1\u5c55
p960
I155
sV\u6709\u6548\u671f
p961
I3
sV\u7edf\u7b79
p962
I2
sV\u8d70\u4e0a
p963
I3
sV\u5f81\u7528
p964
I1
sV\u4eba\u5458
p965
I14
sV\u730e\u6740
p966
I1
sV\u7bc7\u7ae0
p967
I1
sV\u6324\u51fa
p968
I2
sV\u4e8b\u5b9e
p969
I6
sV\u575a\u5b88
p970
I1
sV\u4e8b\u5b9c
p971
I3
sV\u5f71\u54cd\u529b
p972
I10
sV\u8bae\u7a0b
p973
I4
sV\u68d5\u6cb9
p974
I1
sV\u5168\u5bb6
p975
I1
sV\u9738\u4e3b
p976
I1
sV\u5f3a\u52bf
p977
I15
sV\u6d25\u5df4\u5e03\u97e6
p978
I3
sV\u9996\u7ad9
p979
I1
sV\u5404\u534a
p980
I1
sV\u7a0e\u6536
p981
I14
sV\u6e29\u5ea6
p982
I2
sV\u5df4\u897f
p983
I43
sV\u7784\u51c6
p984
I2
sV\u7406\u8d22
p985
I4
sV\u6536\u76ca\u5206\u914d
p986
I1
sV\u8c08\u4e0d\u62e2
p987
I1
sV\u5f3a\u529b
p988
I4
sV\u6355\u6349
p989
I1
sV\u7535\u5b50\u5c55
p990
I1
sV\u822a\u7ad9\u697c
p991
I1
sV\u5e7f\u897f
p992
I2
sV\u5546\u5b9a
p993
I3
sV\u4e24\u4f4d\u6570
p994
I3
sV\u7a7a\u6c14
p995
I2
sV\u666e\u901a\u80a1
p996
I1
sV\u6838\u7b7e
p997
I1
sV\u8d77\u8272
p998
I2
sV\u5e74\u9f84
p999
I4
sV\u66ff\u4ee3
p1000
I4
sV\u66fc\u8428
p1001
I1
sV\u8d22\u52a1\u9884\u7b97
p1002
I1
sV\u505a\u996d
p1003
I1
sV\u79b9\u6d0b
p1004
I1
sV\u6c11\u4f17
p1005
I11
sV\u6e10\u8fdb
p1006
I1
sV\u6a2a\u5411
p1007
I1
sV\u6279\u51c6
p1008
I22
sV\u505a\u597d
p1009
I7
sV\u552e\u51fa
p1010
I1
sV\u9886\u5148\u5730\u4f4d
p1011
I1
sV\u8bc4\u8bba
p1012
I9
sV\u5360\u6bd4
p1013
I3
sV\u89d2\u5ea6\u770b
p1014
I1
sV\u5916\u503a
p1015
I3
sV\u5f92\u52b3
p1016
I1
sV\u884c\u5019
p1017
I1
sV\u7ef4\u5dde
p1018
I1
sV\u5171\u548c\u515a\u4eba
p1019
I1
sV\u8bbe\u65bd
p1020
I3
sV\u53f0\u6e7e
p1021
I7
sV\u8d22\u653f\u5f00\u652f
p1022
I1
sV\u5e03\u5c40
p1023
I1
sV\u9000\u7a0e
p1024
I1
sV\u5148\u4ed8
p1025
I1
sV\u79df\u91d1
p1026
I4
sV\u624b\u6301
p1027
I1
sV\u503a\u5238
p1028
I28
sV\u540d\u79f0
p1029
I1
sV\u5fb7\u897f
p1030
I1
sV\u7ee7\u7eed
p1031
I89
sV\u51fa\u6d77
p1032
I1
sV\u6536\u5c3e
p1033
I1
sV\u6770\u51fa\u4eba\u7269
p1034
I1
sV\u6d3e\u9063
p1035
I3
sV\u9752\u7750
p1036
I1
sV\u81f4\u547d
p1037
I1
sV\u8d2d\u6c47
p1038
I1
sV\u91cc\u7ea6\u70ed\u5185\u5362
p1039
I1
sV\u5bb6\u7528\u7535\u5668
p1040
I1
sV\u5e02\u51b5
p1041
I1
sV\u9876\u7ea7
p1042
I3
sV\u4f30\u8ba1
p1043
I6
sV\u91cd\u62fe
p1044
I2
sV\u56de\u8d2d
p1045
I4
sV\u629a\u6170
p1046
I1
sV\u77f3\u6cb9\u4ef7\u683c
p1047
I5
sV\u65c5\u884c
p1048
I3
sV\u843d\u6237
p1049
I2
sV\u5b8c\u5de5
p1050
I5
sV\u65e5\u7a0b\u8868
p1051
I1
sV\u7ee9\u4f18\u80a1
p1052
I1
sV\u91cd\u65b0\u914d\u7f6e
p1053
I1
sV\u4fe1\u53f7\u7cfb\u7edf
p1054
I2
sV\u5199\u7ed9
p1055
I1
sV\u63a8\u52a8
p1056
I88
sV\u5bb9\u5fcd\u5ea6
p1057
I1
sV\u6c34\u51c6
p1058
I1
sV\u6709\u52a9\u4e8e
p1059
I21
sV\u6ce8\u518c\u8d44\u91d1
p1060
I1
sV\u9ad8\u7ea7\u522b
p1061
I1
sV\u5378\u4e0b
p1062
I1
sV\u70b9\u4eae
p1063
I2
sV\u5fd8\u8bb0
p1064
I1
sV\u6708\u997c
p1065
I1
sV\u4e0a\u53f0
p1066
I6
sV\u51c6\u5907\u91d1
p1067
I1
sV\u593a\u6743
p1068
I1
sV\u5b9e\u8d28
p1069
I2
sV\u53cd\u8865\u8d34
p1070
I5
sV\u9020\u6210
p1071
I73
sV\u544a\u522b
p1072
I2
sV\u6838\u6b66\u5668
p1073
I3
sV\u68a6\u60f3
p1074
I2
sV\u62bd\u5e72
p1075
I1
sV\u963f\u6d77
p1076
I2
sV\u5c45\u4f4f
p1077
I2
sV\u6c14\u4f53
p1078
I2
sV\u6295\u5165
p1079
I10
sV\u4efb\u52a1
p1080
I1
sV\u624b\u6bb5
p1081
I9
sV\u6db2\u5316\u6c14
p1082
I1
sV\u63a5\u6536
p1083
I2
sV\u539f\u4ea7\u5730
p1084
I2
sV\u8fdb\u884c
p1085
I129
sV\u4fe1\u5fc3
p1086
I18
sV\u5c45\u9996
p1087
I1
sV\u88c1\u64a4
p1088
I1
sV\u65b0\u7bc7\u7ae0
p1089
I2
sV\u5168\u989d
p1090
I1
sV\u8d27\u5e01\u8d2c\u503c
p1091
I12
sV\u6a21\u578b
p1092
I4
sV\u53d1\u7535\u673a
p1093
I1
sV\u91d1\u878d\u754c
p1094
I2
sV\u9876\u4f4f
p1095
I1
sV\u8ba1\u5212
p1096
I97
sV\u7eb8\u949e
p1097
I2
sV\u98df\u7269
p1098
I1
sV\u5145\u7535
p1099
I1
sV\u8bc4\u4e3a
p1100
I1
sV\u7ecf\u6d4e\u603b\u91cf
p1101
I3
sV\u8d2d\u623f
p1102
I3
sV\u5893\u5730
p1103
I1
sV\u5916\u5305
p1104
I2
sV\u8fdc\u4e1c\u5730\u533a
p1105
I1
sV\u5e02\u5143
p1106
I1
sV\u66fc\u54c8\u987f
p1107
I1
sV\u8c41\u514d
p1108
I1
sV\u58f0\u79f0
p1109
I3
sV\u6587\u8bf4
p1110
I1
sV\u65b0\u52a0\u5761\u5143
p1111
I2
sV\u5ba1\u6279
p1112
I4
sV\u4e0a\u5347
p1113
I49
sV\u4f20\u8fbe
p1114
I1
sV\u53e3\u7891
p1115
I1
sV\u5217\u8f66
p1116
I8
sV\u4e70\u65b0
p1117
I1
sV\u6e29\u5dde
p1118
I1
sV\u5355\u4f4d
p1119
I2
sV\u5957\u606f
p1120
I1
sV\u6c11\u8c03
p1121
I1
sV\u4ea4\u901a
p1122
I14
sV\u4e86\u4ee5
p1123
I2
sV\u5927\u884c
p1124
I1
sV\u589e\u4ea7
p1125
I7
sV\u6c47\u7f16
p1126
I1
sV\u8bbf\u8c08
p1127
I1
sV\u4e2d\u4ea7\u9636\u5c42
p1128
I3
sV\u6676\u4f53
p1129
I1
sV\u6db5\u76d6
p1130
I7
sV\u4fdd\u7559
p1131
I3
sV\u5927\u5d29\u76d8
p1132
I2
sV\u6548\u76ca
p1133
I3
sV\u7ade\u9009
p1134
I5
sV\u65e0\u9521
p1135
I1
sV\u4ea4\u51fa
p1136
I1
sV\u6ede\u540e
p1137
I2
sV\u9632\u8303
p1138
I1
sV\u7535\u6c47
p1139
I1
sV\u8425\u6536
p1140
I3
sV\u53d8\u6696
p1141
I1
sV\u8d44\u91d1
p1142
I71
sV\u5236\u54c1
p1143
I3
sV\u6cd5\u5219
p1144
I1
sV\u4e1a\u7ee9
p1145
I8
sV\u95ed\u73af
p1146
I1
sV\u51fa\u53e3\u91cf
p1147
I3
sV\u65e5\u5143
p1148
I18
sV\u505a\u4e70\u5356
p1149
I1
sV\u5927\u57ce\u5e02
p1150
I4
sV\u91d1\u878d\u98ce\u9669
p1151
I3
sV\u53d1\u5e03
p1152
I46
sV\u7559\u51fa
p1153
I1
sV\u6295\u8d44
p1154
I184
sV\u8305\u53f0
p1155
I1
sV\u5357\u7279
p1156
I1
sV\u5a01\u80c1\u8bba
p1157
I1
sV\u7535\u6c14
p1158
I2
sV\u5546\u591a
p1159
I1
sV\u52bf\u5934
p1160
I4
sV\u89c4\u8303
p1161
I2
sV\u884c\u52a8
p1162
I19
sV\u5229\u606f
p1163
I2
sV\u7c7b\u4f3c
p1164
I12
sV\u68b3\u7406
p1165
I1
sV\u5916\u52a0
p1166
I1
sV\u6d77\u9c9c
p1167
I1
sV\u56fd\u6c11\u5f85\u9047
p1168
I1
sV\u88ab\u5224
p1169
I1
sV\u7cbe\u795e\u75c5
p1170
I1
sV\u7ecf\u6d4e\u57fa\u7840
p1171
I1
sV\u76f4\u64ad
p1172
I2
sV\u504f\u53f3
p1173
I1
sV\u53d8\u66f4
p1174
I1
sV\u7ade\u4e89\u8005
p1175
I2
sV\u8001\u767e\u59d3
p1176
I2
sV\u589e\u8fdb
p1177
I4
sV\u65b0\u5e97
p1178
I1
sV\u901a\u544a
p1179
I1
sV\u4e0d\u5408\u7406
p1180
I4
sV\u7406\u4f1a
p1181
I1
sV\u6f84\u6e05
p1182
I1
sV\u4e16\u754c
p1183
I103
sV\u70bc\u6cb9
p1184
I3
sV\u5206\u9500
p1185
I1
sV\u5851\u9020
p1186
I1
sV\u53bb\u5e74\u540c\u671f
p1187
I6
sV\u9752\u5c9b
p1188
I2
sV\u6746\u83cc
p1189
I1
sV\u5e93\u5b58
p1190
I18
sV\u667a\u80fd\u624b\u673a
p1191
I3
sV\u6298\u6263
p1192
I1
sV\u4eba\u58eb
p1193
I29
sV\u540d\u5217
p1194
I1
sV\u6e29\u5ba4
p1195
I2
sV\u53d6\u51b3
p1196
I1
sV\u6293\u4f4f
p1197
I4
sV\u632f\u5174
p1198
I2
sV\u63a8\u5347
p1199
I2
sV\u9884\u4f30
p1200
I3
sV\u8303\u56f4
p1201
I12
sV\u4e86\u8fd1
p1202
I2
sV\u6c55\u5c3e\u5e02
p1203
I1
sV\u7f29\u8863\u8282\u98df
p1204
I1
sV\u56de\u5347
p1205
I10
sV\u6c11\u9009
p1206
I1
sV\u8bbd\u523a
p1207
I1
sV\u9000\u51fa
p1208
I15
sV\u5f1f\u5144
p1209
I1
sV\u901a\u5411
p1210
I1
sV\u5236\u88c1
p1211
I21
sV\u4ef7\u4f4d
p1212
I1
sV\u4e19\u70ef
p1213
I1
sV\u8349\u7b7e
p1214
I1
sV\u5546\u52a1\u90e8\u957f
p1215
I1
sV\u6280\u672f\u6027
p1216
I4
sV\u751f\u5b58\u7a7a\u95f4
p1217
I1
sV\u884c\u5217
p1218
I2
sV\u94a2\u683c\u677f
p1219
I1
sV\u9886\u5bfc\u4eba
p1220
I26
sV\u6279\u53d1
p1221
I1
sV\u60b2\u89c2\u8005
p1222
I1
sV\u8d2d\u4e70\u529b
p1223
I5
sV\u539f\u56e0
p1224
I37
sV\u9ad8\u4e8e
p1225
I17
sV\u51cf\u8ba9
p1226
I1
sV\u5fc3\u7406\u5b66
p1227
I1
sV\u6253\u7b97
p1228
I7
sV\u6ca1\u6709\u7528\u5b8c
p1229
I1
sV\u897f\u8499\u987f
p1230
I1
sV\u62a5\u7eb8
p1231
I2
sV\u4e2a\u4eba\u89c2\u70b9
p1232
I1
sV\u51fa\u53e3\u56fd
p1233
I11
sV\u7814\u7a76\u5458
p1234
I9
sV\u6263\u4f4f
p1235
I1
sV\u5317\u6d77\u9053
p1236
I2
sV\u62ee\u636e
p1237
I1
sV\u9999\u80a0
p1238
I1
sV\u4f20\u6765
p1239
I1
sV\u5df4\u52d2\u65af\u5766
p1240
I1
sV\u8f6c\u6298\u70b9
p1241
I2
sV\u5236\u7cd6\u5382
p1242
I1
sV\u51b3\u5b9a
p1243
I51
sV\u5824\u575d
p1244
I1
sV\u81ea\u6709
p1245
I1
sV\u8fde\u4efb
p1246
I1
sV\u5168\u5e02
p1247
I1
sV\u4e2d\u591a
p1248
I1
sV\u4f4e\u5229
p1249
I1
sV\u5373\u4ed8
p1250
I1
sV\u6d47\u7b51
p1251
I1
sV\u571f\u5730\u7a0e
p1252
I1
sV\u8c37\u5b50
p1253
I1
sV\u4efb\u547d
p1254
I2
sV\u8d22\u653f\u8d44\u91d1
p1255
I1
sV\u5c0f\u8d39
p1256
I1
sV\u79d1\u5b66
p1257
I4
sV\u52a8\u8f66\u7ec4
p1258
I1
sV\u7ed3\u76df
p1259
I1
sV\u5b9a\u5c45\u70b9
p1260
I1
sV\u6709\u5f85
p1261
I2
sV\u75c5\u901d
p1262
I1
sV\u4ece\u4e8b
p1263
I3
sV\u544a\u5439
p1264
I1
sV\u70bc\u6cb9\u5382
p1265
I4
sV\u88c2\u75d5
p1266
I1
sV\u91cc\u7a0b
p1267
I1
sV\u4fb5\u5bb3
p1268
I1
sV\u519b\u4e8b\u51b2\u7a81
p1269
I1
sV\u9ad8\u4ef7\u4f4d
p1270
I1
sV\u53d7\u5bb3
p1271
I1
sV\u597d\u4e8b
p1272
I3
sV\u53d1\u6325\u4f5c\u7528
p1273
I1
sV\u94c1\u8def\u7ebf
p1274
I2
sV\u6295\u8d44\u89c4\u6a21
p1275
I3
sV\u8282\u7701\u4e0b\u6765
p1276
I1
sV\u81ea\u6740
p1277
I1
sV\u96f6\u5173\u7a0e
p1278
I3
sV\u524d\u4f4e
p1279
I1
sV\u6c34\u571f
p1280
I1
sV\u9700\u8981
p1281
I96
sV\u5916\u5546
p1282
I1
sV\u4f9b\u5e94
p1283
I46
sV\u5bb6\u7528
p1284
I1
sV\u52b3\u52a8\u529b
p1285
I16
sV\u77ff\u4ea7\u54c1
p1286
I2
sV\u5ea6\u5047\u6751
p1287
I1
sV\u53c2\u4f1a\u8005
p1288
I1
sV\u6fc0\u53d1
p1289
I3
sV\u635f\u53ca
p1290
I1
sV\u884c\u957f
p1291
I26
sV\u9547\u538b
p1292
I1
sV\u5360\u5730\u9762\u79ef
p1293
I1
sV\u5f00\u91c7
p1294
I27
sV\u9897\u4ea7
p1295
I1
sV\u521b\u7acb
p1296
I2
sV\u914d\u5907
p1297
I1
sV\u5de5\u4f5c\u5c97\u4f4d
p1298
I1
sV\u8fd0\u8f93\u91cf
p1299
I1
sV\u501f\u8d37
p1300
I6
sV\u9879\u76ee
p1301
I95
sV\u6444\u6c0f\u5ea6
p1302
I1
sV\u786c\u4ef6
p1303
I1
sV\u53cd\u6297
p1304
I1
sV\u51cf\u91cf\u5316
p1305
I1
sV\u68d5\u6988
p1306
I1
sV\u4f53\u9a8c
p1307
I1
sV\u5e76\u5b58
p1308
I1
sV\u8bc4\u4ef7
p1309
I4
sV\u7535\u5b50\u8bbe\u5907
p1310
I1
sV\u91cd\u7ec4
p1311
I6
sV\u4f9b\u7ed9
p1312
I14
sV\u5e02\u573a
p1313
I246
sV\u5dee\u4ef7
p1314
I1
sV\u804c\u8d23
p1315
I1
sV\u5546\u5e97
p1316
I3
sV\u5f69\u8272\u7b14
p1317
I1
sV\u5b8c\u5584
p1318
I10
sV\u634d\u536b
p1319
I6
sV\u822a\u5931
p1320
I1
sV\u7efc\u5408\u6027
p1321
I1
sV\u9053\u8def
p1322
I10
sV\u58a8\u897f\u54e5\u57ce
p1323
I2
sV\u7ecf\u5e38\u6027
p1324
I2
sV\u8d27\u7269
p1325
I6
sV\u62ff\u6389
p1326
I1
sV\u5177\u4f53\u63aa\u65bd
p1327
I1
sV\u5357\u5357\u5408\u4f5c
p1328
I2
sV\u5347\u81f3
p1329
I10
sV\u6807\u7bb1
p1330
I1
sV\u6d4f\u89c8
p1331
I1
sV\u5b63\u8282
p1332
I3
sV\u62b5\u5236
p1333
I2
sV\u8ba4\u8bc6
p1334
I3
sV\u5173\u706f
p1335
I1
sV\u4f8b\u5916
p1336
I2
sV\u5f00\u51fa
p1337
I1
sV\u5976\u4e1a
p1338
I1
sV\u603b\u8d44\u4ea7
p1339
I2
sV\u6c34\u9762
p1340
I1
sV\u5f00\u51ff
p1341
I1
sV\u77ff\u573a
p1342
I4
sV\u623f\u4ef7
p1343
I16
sV\u88ab\u544a
p1344
I1
sV\u7ecf\u6d4e\u5b66
p1345
I8
sV\u73b0\u5b9e\u6027
p1346
I1
sV\u76df\u53cb
p1347
I1
sV\u6a21\u5f0f
p1348
I20
sV\u6a61\u80f6
p1349
I1
sV\u5f00\u901a
p1350
I3
sV\u8001\u8bdd
p1351
I1
sV\u7ec4\u4e50
p1352
I1
sV\u653f\u6cbb\u5bb6
p1353
I5
sV\u6210\u7ee9
p1354
I3
sV\u6d3d\u8c08\u4f1a
p1355
I1
sV\u56fd\u9632
p1356
I1
sV\u6025\u9700
p1357
I1
sV\u6301\u7eed\u6027
p1358
I2
sV\u5ea7\u6905
p1359
I1
sV\u5370\u8c61
p1360
I1
sV\u94a2\u94c1\u5382
p1361
I4
sV\u6ce8\u518c
p1362
I2
sV\u5229\u660e
p1363
I1
sV\u914d\u989d
p1364
I3
sV\u56fe\u7247
p1365
I1
sV\u5206\u53d1
p1366
I1
sV\u5426\u51b3
p1367
I3
sV\u5174\u4e1a
p1368
I1
sV\u5e86\u795d
p1369
I1
sV\u9884\u89c1
p1370
I1
sV\u8d22\u653f\u90e8\u957f
p1371
I6
sV\u539a\u751f
p1372
I2
sV\u4f20\u67d3\u6e90
p1373
I1
sV\u6709\u5e8f
p1374
I1
sV\u7968\u9762
p1375
I1
sV\u597d\u8f6c
p1376
I6
sV\u7535\u89c6\u8f6c\u64ad
p1377
I1
sV\u5e72\u6d89
p1378
I1
sV\u53ef\u7750
p1379
I1
sV\u690d\u7269\u6cb9
p1380
I2
sV\u79ef\u6781\u652f\u6301
p1381
I1
sV\u64cd\u5fc3
p1382
I3
sV\u67e5\u5904
p1383
I1
sV\u6709\u6548\u6027
p1384
I1
sV\u65e5\u5706
p1385
I1
sV\u4e70\u623f
p1386
I4
sV\u6321\u4f4f
p1387
I1
sV\u7406\u89e3
p1388
I4
sV\u4e3e\u884c
p1389
I42
sV\u5904\u6b7b
p1390
I1
sV\u6ce8\u91cd
p1391
I1
sV\u7167\u660e
p1392
I1
sV\u7edf\u8ba1
p1393
I10
sV\u5e02\u6c11
p1394
I4
sV\u8fd0\u8f93\u90e8
p1395
I1
sV\u65f6\u65e5
p1396
I1
sV\u5206\u5316
p1397
I5
sV\u70b9\u6da8
p1398
I1
sV\u97f3\u9891
p1399
I1
sV\u6c7d\u6cb9
p1400
I7
sV\u5168\u5fb7
p1401
I1
sV\u5f69\u7968
p1402
I1
sV\u638c\u8235
p1403
I2
sV\u94c1\u8def\u7f51
p1404
I1
sV\u82b3\u70c3
p1405
I1
sV\u94be\u80a5\u5382
p1406
I1
sV\u5927\u4f17
p1407
I10
sV\u5efa\u7b51\u65bd\u5de5
p1408
I1
sV\u66fc\u8054
p1409
I1
sV\u7403\u95e8
p1410
I1
sV\u73b0\u72b6
p1411
I2
sV\u4e0d\u65ad\u6269\u5927
p1412
I2
sV\u5c55\u671b
p1413
I13
sV\u9999\u6e2f\u5730\u533a
p1414
I1
sV\u6c14\u4e95
p1415
I1
sV\u80fd\u6e90\u90e8\u957f
p1416
I2
sV\u5927\u4f1a
p1417
I12
sV\u6401\u7f6e
p1418
I2
sV\u6e2f\u6e7e
p1419
I1
sV\u7ec4\u4ef6
p1420
I1
sV\u64b0\u7a3f\u4eba
p1421
I1
sV\u9ad8\u4f30
p1422
I3
sV\u6708\u5ea6
p1423
I2
sV\u7528\u5730
p1424
I1
sV\u8bc4\u8ff0
p1425
I1
sV\u558a\u8bdd
p1426
I1
sV\u94c1\u5fc3
p1427
I1
sV\u591a\u5143\u6027
p1428
I1
sV\u714e\u71ac
p1429
I2
sV\u5f62\u8c61
p1430
I2
sV\u505c\u53d1
p1431
I1
sV\u5927\u4f7f
p1432
I3
sV\u6c14\u4ef7
p1433
I1
sV\u629b\u76d8
p1434
I1
sV\u4e39\u9ea6
p1435
I7
sV\u5f3a\u56fd
p1436
I1
sV\u901a\u5219
p1437
I1
sV\u4e0d\u591f
p1438
I5
sV\u80a1\u707e
p1439
I1
sV\u957f\u6c5f
p1440
I1
sV\u4eba\u624d
p1441
I7
sV\u540c\u60c5
p1442
I1
sV\u51fa\u53e3\u5546\u54c1
p1443
I2
sV\u82cf\u6253
p1444
I1
sV\u6c64\u5ddd
p1445
I1
sV\u98df\u7528
p1446
I1
sV\u7814\u7a76\u5ba4
p1447
I3
sV\u65b0\u4eae\u70b9
p1448
I1
sV\u5584\u4e8e
p1449
I1
sV\u6210\u5c31
p1450
I2
sV\u5c42\u5c42
p1451
I1
sV\u541d\u556c\u9b3c
p1452
I1
sV\u8db3\u7403
p1453
I2
sV\u6388\u4e88
p1454
I2
sV\u5b66\u62a5
p1455
I1
sV\u5171\u6709
p1456
I5
sV\u7f3a\u7535
p1457
I1
sV\u653f\u4ee4
p1458
I1
sV\u54c1\u5c1d
p1459
I1
sV\u89c6\u91ce
p1460
I1
sV\u4f5b\u7f57\u91cc\u8fbe
p1461
I1
sV\u73b0\u91d1\u4ea4\u6613
p1462
I1
sV\u91c7\u53d6\u884c\u52a8
p1463
I2
sV\u671f\u6cb9
p1464
I1
sV\u516c\u4f1a
p1465
I2
sV\u5c1a\u65e0
p1466
I1
sV\u56fd\u5bb6\u4e3b\u6743
p1467
I1
sV\u9009\u62e9
p1468
I21
sV\u6295\u884c
p1469
I13
sV\u51fa\u53d1\u70b9
p1470
I1
sV\u7ea2\u573a
p1471
I1
sV\u8c03\u52a8
p1472
I1
sV\u5730\u5e26
p1473
I1
sV\u9002\u5e94\u80fd\u529b
p1474
I1
sV\u51b0\u5757
p1475
I1
sV\u751f\u4ea7\u603b\u503c
p1476
I1
sV\u7f6e\u8bc4
p1477
I3
sV\u8425\u4e1a\u6267\u7167
p1478
I1
sV\u52a8\u8bae
p1479
I1
sV\u6700\u4f4e\u503c
p1480
I1
sV\u91cd\u8981\u6027
p1481
I3
sV\u6b63\u503c
p1482
I2
sV\u5356\u76d8
p1483
I1
sV\u8fd0\u7528
p1484
I1
sV\u6548\u7387
p1485
I9
sV\u7ecf\u8425\u8303\u56f4
p1486
I1
sV\u822a\u5b98
p1487
I1
sV\u4f9b\u8d27\u5546
p1488
I1
sV\u81ea\u6551
p1489
I1
sV\u60c5\u5f62
p1490
I1
sV\u5355\u8bcd
p1491
I1
sV\u91d1\u67aa\u9c7c
p1492
I1
sV\u53cd\u6050
p1493
I1
sV\u5206\u90e8
p1494
I1
sV\u6210\u5c4b
p1495
I2
sV\u8f96\u533a
p1496
I1
sV\u6cc4\u9732
p1497
I2
sV\u4f4e\u90e8
p1498
I1
sV\u98ce\u9669
p1499
I74
sV\u8fdc\u4e1c
p1500
I5
sV\u529e\u6cd5
p1501
I7
sV\u9884\u8a00
p1502
I1
sV\u62fc\u8f66
p1503
I1
sV\u4e13\u6ce8
p1504
I1
sV\u5750\u8f66
p1505
I1
sV\u6d89\u5acc
p1506
I2
sV\u4f4f\u623f\u9762\u79ef
p1507
I1
sV\u4ea7\u54c1\u540d\u79f0
p1508
I1
sV\u89c4\u6a21
p1509
I38
sV\u56de\u8986
p1510
I1
sV\u5c65\u884c
p1511
I2
sV\u65e0\u9700
p1512
I4
sV\u5e7f\u4e1c
p1513
I1
sV\u6b63\u50cf
p1514
I1
sV\u9a8f\u5229
p1515
I1
sV\u804c\u4f4d
p1516
I3
sV\u538b\u4f4e
p1517
I6
sV\u56fd\u4f1a
p1518
I13
sV\u5927\u91cf
p1519
I34
sV\u589e\u957f\u901f\u5ea6
p1520
I7
sV\u4f8b\u5b50
p1521
I1
sV\u8d4e\u56de
p1522
I1
sV\u901a\u5173
p1523
I1
sV\u5916\u9700
p1524
I1
sV\u9009\u6218
p1525
I1
sV\u8003\u9a8c
p1526
I4
sV\u6301\u6709
p1527
I17
sV\u503a\u4fe1
p1528
I1
sV\u5f70\u663e
p1529
I2
sV\u4f20\u8bb0
p1530
I1
sV\u5f00\u53d1
p1531
I33
sV\u73e0\u6d77
p1532
I2
sV\u526f\u5c40\u957f
p1533
I1
sV\u9a6c\u529b
p1534
I1
sV\u4f5c\u51fa
p1535
I19
sV\u534e\u6c99
p1536
I1
sV\u52b3\u52a8\u90e8
p1537
I1
sV\u5e02\u957f
p1538
I2
sV\u5174\u8da3
p1539
I7
sV\u4fe1\u5b9e
p1540
I1
sV\u7834\u9898
p1541
I1
sV\u57fa\u7840
p1542
I20
sV\u542b\u91cf
p1543
I1
sV\u56fd\u4eba
p1544
I1
sV\u56fd\u4ea7
p1545
I1
sV\u5b9e\u884c
p1546
I3
sV\u4eba\u53e3\u6bd4\u4f8b
p1547
I2
sV\u76ee\u7684\u5730
p1548
I8
sV\u5f00\u521b
p1549
I2
sV\u6295\u8d44\u94f6\u884c
p1550
I8
sV\u53ef\u7528
p1551
I3
sV\u6c7d\u8f66\u4e1a
p1552
I1
sV\u6536\u590d
p1553
I2
sV\u9884\u8ba1
p1554
I110
sV\u5f00\u5230
p1555
I1
sV\u5b58\u6b3e
p1556
I1
sV\u80fd\u6e90\u90e8
p1557
I1
sV\u53d1\u5e03\u4f1a
p1558
I13
sV\u63d0\u6848
p1559
I2
sV\u6218\u7565\u89c4\u5212
p1560
I1
sV\u53c2\u5c55\u5546
p1561
I1
sV\u5916\u56fd
p1562
I22
sV\u8425\u4e1a\u989d
p1563
I1
sV\u8d38\u6613\u6761\u4ef6
p1564
I3
sV\u8ba9\u51fa
p1565
I1
sV\u5ba1\u67e5
p1566
I5
sV\u4ea4\u4ed8\u7ed9
p1567
I1
sV\u623f\u5c55\u4f1a
p1568
I1
sV\u8bbe\u60f3
p1569
I1
sV\u8fc7\u70ed
p1570
I1
sV\u5185\u6218
p1571
I1
sV\u8d22\u653f\u6536\u5165
p1572
I2
sV\u5e26\u85aa
p1573
I1
sV\u5e02\u573a\u4f9b\u5e94
p1574
I2
sV\u6c14\u8c61
p1575
I1
sV\u817e\u9f99
p1576
I1
sV\u8d1f\u6709\u8d23\u4efb
p1577
I1
sV\u534a\u5bfc\u4f53
p1578
I2
sV\u666e\u4eac
p1579
I11
sV\u5883\u5916\u6e38
p1580
I1
sV\u5e74\u5934
p1581
I1
sV\u6bdb\u5229\u7387
p1582
I1
sV\u5149\u95e8
p1583
I1
sV\u697c\u5e02
p1584
I6
sV\u77ff\u5546
p1585
I1
sV\u6240\u4ea7\u8f66
p1586
I1
sV\u7cbe\u5fc3
p1587
I1
sV\u9910\u684c
p1588
I1
sV\u65f6\u671f
p1589
I20
sV\u5199\u5b57\u697c
p1590
I2
sV\u77f3\u7a9f
p1591
I1
sV\u52a0\u5229\u798f\u5c3c\u4e9a\u5dde
p1592
I1
sV\u53cb\u597d\u5173\u7cfb
p1593
I1
sV\u758f\u6563
p1594
I1
sV\u670d\u52a1\u4e1a
p1595
I9
sV\u524a\u51cf
p1596
I21
sV\u8003\u5bdf
p1597
I4
sV\u5dee\u8ddd
p1598
I6
sV\u8b66\u532a
p1599
I1
sV\u5f00\u529e
p1600
I1
sV\u53ef\u7591
p1601
I1
sV\u901a\u9053
p1602
I5
sV\u51fa\u53e3\u5546
p1603
I3
sV\u77e5\u8bc6\u5206\u5b50
p1604
I1
sV\u89c4\u5212\u8005
p1605
I1
sV\u975e\u6d32
p1606
I23
sV\u6d88\u5931
p1607
I6
sV\u574f\u5883
p1608
I1
sV\u90e8\u957f\u7ea7
p1609
I12
sV\u6bd4\u91cd
p1610
I8
sV\u6362\u6210
p1611
I1
sV\u826f\u673a
p1612
I1
sV\u7b5b\u67e5
p1613
I1
sV\u9886\u6da8
p1614
I1
sV\u767b\u4e0a
p1615
I1
sV\u53e3\u5b50
p1616
I1
sV\u6cd5\u56fd
p1617
I32
sV\u6454\u843d
p1618
I1
sV\u6240\u5904
p1619
I1
sV\u90e8\u7f72
p1620
I2
sV\u65b0\u9ad8
p1621
I8
sV\u4e0a\u9650
p1622
I7
sV\u670d\u7528
p1623
I1
sV\u59a5\u5584\u89e3\u51b3
p1624
I1
sV\u963f\u59c6\u65af\u7279\u4e39
p1625
I2
sV\u5e02\u51c0\u7387
p1626
I1
sV\u8865\u8d34
p1627
I8
sV\u81ea\u7531\u4e3b\u4e49
p1628
I1
sV\u5206\u914d
p1629
I5
sV\u56fd\u9645\u5236\u88c1
p1630
I1
sV\u589e\u8bbe
p1631
I1
sV\u9006\u8f6c
p1632
I3
sV\u7acb\u6848
p1633
I2
sV\u8870\u9000
p1634
I9
sV\u65e0\u9650
p1635
I2
sV\u76f8\u5bb9
p1636
I1
sV\u8fdb\u8d26
p1637
I1
sV\u7b26\u5408
p1638
I15
sV\u526f\u4f1a\u957f
p1639
I1
sV\u6dd8\u6c70
p1640
I1
sV\u7b49\u6765
p1641
I1
sV\u52a0\u6743\u6307\u6570
p1642
I2
sV\u53cc\u5411
p1643
I3
sV\u5916\u89c2
p1644
I1
sV\u91d1\u878d\u4f53\u7cfb
p1645
I8
sV\u4e0d\u65e0
p1646
I1
sV\u8d22\u56e2
p1647
I1
sV\u4eba\u7fa4
p1648
I2
sV\u52a0\u5feb
p1649
I14
sV\u88c5\u5907
p1650
I14
sV\u540e\u8005
p1651
I6
sV\u88c5\u673a\u91cf
p1652
I1
sV\u6a2a\u8de8
p1653
I1
sV\u5c0f\u5175
p1654
I1
sV\u663e\u5f97
p1655
I1
sV\u6bcd\u516c\u53f8
p1656
I1
sV\u603b\u7ed3
p1657
I2
sV\u5171\u8ba1
p1658
I2
sV\u63f4\u5efa
p1659
I1
sV\u4f20\u67d3
p1660
I2
sV\u603b\u7edf
p1661
I42
sV\u897f\u670d
p1662
I1
sV\u72ec\u95e8
p1663
I1
sV\u5206\u4eab
p1664
I2
sV\u4f5c\u4f55
p1665
I1
sV\u90e8\u957f\u4f1a\u8bae
p1666
I1
sV\u8bc4\u5206
p1667
I2
sV\u653e\u6c34
p1668
I1
sV\u9762\u79ef
p1669
I2
sV\u663e\u793a\u5c4f
p1670
I1
sV\u964d\u4ef7
p1671
I2
sV\u72b9\u592a\u88d4
p1672
I1
sV\u6b27\u5143\u533a
p1673
I36
sV\u5c0f\u4f01\u4e1a
p1674
I1
sV\u79cd\u7c7b
p1675
I2
sV\u4f4e\u4e0b
p1676
I2
sV\u7535\u5b50\u5546\u52a1
p1677
I1
sV\u751f\u4ea7\u5546
p1678
I5
sV\u8f6c\u79fb
p1679
I14
sV\u5b9e\u5728
p1680
I2
sV\u79d1\u6280
p1681
I20
sV\u64c5\u957f
p1682
I2
sV\u5173\u6ce8
p1683
I27
sV\u638c\u7ba1
p1684
I2
sV\u8feb\u4f7f
p1685
I9
sV\u75be\u75c5
p1686
I2
sV\u7a3b\u7c73
p1687
I1
sV\u6f14\u8bb2\u7a3f
p1688
I1
sV\u4e3b\u9875
p1689
I1
sV\u89c6\u4f5c
p1690
I1
sV\u6fc0\u8fdb
p1691
I6
sV\u6d41\u52a8\u8d44\u91d1
p1692
I1
sV\u666f\u6c14
p1693
I1
sV\u6fb3\u5143\u5151
p1694
I1
sV\u6700\u4f4e\u4ef7
p1695
I1
sV\u62ff\u51fa
p1696
I2
sV\u5c0f\u91cf
p1697
I1
sV\u6218\u58eb
p1698
I1
sV\u81ed\u6c27
p1699
I1
sV\u4e8c\u8005
p1700
I1
sV\u4f20\u627f
p1701
I1
sV\u53c2\u9662
p1702
I1
sV\u9ad8\u6807\u51c6
p1703
I3
sV\u4ea7\u51fa\u7387
p1704
I1
sV\u4e2a\u4eba\u4fe1\u606f
p1705
I1
sV\u4ea7\u5b66\u7814
p1706
I1
sV\u907f\u7a0e
p1707
I3
sV\u9ad8\u4f4d
p1708
I9
sV\u6c34\u4ea7\u54c1
p1709
I2
sV\u80fd\u6e90\u884c\u4e1a
p1710
I3
sV\u6b7b\u8005
p1711
I1
sV\u914d\u6bd4
p1712
I1
sV\u5d29\u6e83
p1713
I9
sV\u50f5\u6301\u4e0d\u4e0b
p1714
I1
sV\u5962\u4f88\u54c1
p1715
I4
sV\u622a\u6536
p1716
I1
sV\u6d17\u724c
p1717
I1
sV\u5b63\u5ea6
p1718
I16
sV\u6838\u7535\u7ad9
p1719
I12
sV\u9759\u5019
p1720
I1
sV\u975e\u6807\u51c6
p1721
I1
sV\u4e70\u4e0d\u8d77
p1722
I1
sV\u786e\u5b9a\u6027
p1723
I1
sV\u8bbe\u7f6e
p1724
I1
sV\u52a0\u5f3a
p1725
I44
sV\u5267\u52a8
p1726
I1
sV\u5730\u533a\u51b2\u7a81
p1727
I1
sV\u8d22\u9600
p1728
I1
sV\u770b\u5f85
p1729
I2
sV\u5de5\u8d44\u6c34\u5e73
p1730
I1
sV\u96ea\u7cd5
p1731
I1
sV\u72b6\u544a
p1732
I1
sV\u6fc0\u8fa9
p1733
I1
sV\u5feb\u8f66
p1734
I1
sV\u66b4\u8dcc
p1735
I17
sV\u5ec9\u4ef7
p1736
I5
sV\u83b7\u5f97
p1737
I65
sV\u8bc4\u4f30
p1738
I16
sV\u5308\u7259\u5229
p1739
I2
sV\u6b66\u6c49
p1740
I2
sV\u501f\u5165
p1741
I1
sV\u6cd5\u56fd\u4eba
p1742
I3
sV\u63a7\u5236
p1743
I20
sV\u7ecf\u9500\u5546
p1744
I1
sV\u4f5c\u4e1a
p1745
I2
sV\u51b3\u7b56
p1746
I10
sV\u60e8\u51b5
p1747
I1
sV\u9ad8\u901f\u516c\u8def
p1748
I2
sV\u5927\u53a6
p1749
I2
sV\u9ad8\u539f
p1750
I1
sV\u8f6f\u5316
p1751
I1
sV\u672a\u77e5
p1752
I1
sV\u4e34\u8fd1
p1753
I3
sV\u673a\u8231
p1754
I1
sV\u65e7\u91d1\u5c71
p1755
I3
sV\u4e9f\u9700
p1756
I1
sV\u6298\u78e8
p1757
I1
sV\u8bc1\u5238\u7f51
p1758
I11
sV\u5473\u7cbe
p1759
I1
sV\u589e\u957f
p1760
I192
sV\u5e94\u5f97
p1761
I1
sV\u5f69\u65d7
p1762
I1
sV\u7f06\u7ebf
p1763
I1
sV\u5468\u520a
p1764
I5
sV\u6846\u67b6
p1765
I18
sV\u5927\u5382
p1766
I1
sV\u4e07\u8c61
p1767
I2
sV\u7ec8\u6b62
p1768
I3
sV\u6807\u666e
p1769
I10
sV\u722a\u54c7
p1770
I1
sV\u5019\u9009\u4eba
p1771
I5
sV\u91d1\u878d\u670d\u52a1
p1772
I2
sV\u9759\u5188
p1773
I1
sV\u70ab\u8000
p1774
I1
sV\u8d22\u653f\u652f\u51fa
p1775
I2
sV\u7f29\u5c0f
p1776
I5
sV\u5c06\u5e03\u6cb9
p1777
I1
sV\u64a4\u79bb
p1778
I3
sV\u4f4e\u4f30
p1779
I3
sV\u53d1\u5c55\u90e8
p1780
I3
sV\u88c1\u7f5a
p1781
I1
sV\u54a8\u8be2\u673a\u6784
p1782
I2
sV\u540c\u7c7b
p1783
I1
sV\u6492\u54c8\u62c9\u6c99\u6f20
p1784
I1
sV\u884c\u653f\u5904\u7f5a
p1785
I1
sV\u903b\u8f91
p1786
I3
sV\u62b5\u8fbe
p1787
I4
sV\u519b\u9977
p1788
I1
sV\u9a7b\u6cd5
p1789
I1
sV\u4e86\u8981
p1790
I1
sV\u6fb3\u6d32
p1791
I8
sV\u6bcf\u78c5
p1792
I1
sV\u963f\u62c9\u4f2f\u534a\u5c9b
p1793
I1
sV\u6269\u5f20\u6027
p1794
I1
sV\u4e86\u957f
p1795
I2
sV\u8bca\u65ad
p1796
I1
sV\u4e0b\u79f0
p1797
I1
sV\u516c\u5171\u5f00\u652f
p1798
I1
sV\u4e00\u8f86\u8f66
p1799
I1
sV\u4f5b\u8499\u7279\u5dde
p1800
I1
sV\u6d1b\u6749\u77f6
p1801
I4
sV\u603b\u7f72
p1802
I1
sV\u5408\u6cd5\u6027
p1803
I2
sV\u4e2d\u5fc3
p1804
I34
sV\u5f71\u5b50
p1805
I2
sV\u5f00\u53d1\u533a
p1806
I1
sV\u56fd\u503a
p1807
I22
sV\u65f6\u79f0
p1808
I7
sV\u5145\u5206\u51c6\u5907
p1809
I2
sV\u5148\u884c
p1810
I1
sV\u7ed3\u6784
p1811
I20
sV\u7cae\u98df
p1812
I5
sV\u7d27\u7f29
p1813
I13
sV\u4f4e\u8ff7
p1814
I23
sV\u5766\u6851\u5c3c\u4e9a
p1815
I2
sV\u52a8\u5458
p1816
I1
sV\u7ba1\u7406\u4eba\u5458
p1817
I1
sV\u501f\u503a
p1818
I1
sV\u5fe7\u8651
p1819
I3
sV\u521b\u610f
p1820
I1
sV\u805a\u7126
p1821
I3
sV\u6709\u8272
p1822
I2
sV\u5355\u5411
p1823
I1
sV\u4f30\u503c
p1824
I5
sV\u8fde\u6da8
p1825
I1
sV\u82cf\u5bcc\u6bd4
p1826
I1
sV\u8feb\u4eba
p1827
I1
sV\u5408\u8ba1
p1828
I2
sV\u7ecf\u6d4e\u5b66\u5956
p1829
I1
sV\u6263\u52a8
p1830
I1
sV\u5730\u4ea7\u80a1
p1831
I1
sV\u5175\u9a6c\u4fd1
p1832
I1
sV\u5c55\u671f
p1833
I2
sV\u89c2\u5bdf\u5458
p1834
I1
sV\u76ee\u6807\u4ef7
p1835
I4
sV\u9ed1\u5de5
p1836
I1
sV\u8f66\u7968
p1837
I1
sV\u4e2d\u4ecb\u673a\u6784
p1838
I1
sV\u5206\u6c34\u5cad
p1839
I1
sV\u6076\u4f5c\u5267
p1840
I1
sV\u5927\u5355
p1841
I4
sV\u8f85\u52a9
p1842
I1
sV\u89c6\u4e3a
p1843
I13
sV\u964d\u4f4e
p1844
I32
sV\u5e94\u5f53
p1845
I3
sV\u8fb9\u7f18
p1846
I2
sV\u4e2d\u5fb7
p1847
I3
sV\u6bd4\u4f8b
p1848
I16
sV\u519b\u65b9
p1849
I1
sV\u6ce8\u8d44
p1850
I3
sV\u8f93\u51fa
p1851
I1
sV\u666e\u53ca
p1852
I3
sV\u4ef7\u683c\u4fbf\u5b9c
p1853
I1
sV\u4fe1\u8d37
p1854
I13
sV\u5151\u73b0
p1855
I4
sV\u5904\u7406
p1856
I11
sV\u91d1\u878d\u8bc1\u5238
p1857
I1
sV\u843d\u7a7a
p1858
I2
sV\u76f8\u4eb2
p1859
I1
sV\u5229\u6bd4\u4e9a
p1860
I3
sV\u7279\u7a3f
p1861
I2
sV\u5f00\u4f1a
p1862
I1
sV\u8003\u8651
p1863
I32
sV\u7528\u6765
p1864
I3
sV\u98de\u673a
p1865
I9
sV\u6bd5\u4e1a
p1866
I2
sV\u518d\u914d
p1867
I1
sV\u9700\u5728
p1868
I1
sV\u4e94\u7cae\u6db2
p1869
I1
sV\u53cc\u624b
p1870
I1
sV\u5c16\u7aef
p1871
I1
sV\u9ed1\u5e02
p1872
I1
sV\u673a\u52a8\u6027
p1873
I1
sV\u6613\u884c
p1874
I1
sV\u4fdd\u52a0\u5229\u4e9a
p1875
I1
sV\u52a0\u5dde
p1876
I3
sV\u4e94\u5e74\u8ba1\u5212
p1877
I1
sV\u4e07\u4f17
p1878
I1
sV\u4e2d\u5c06
p1879
I3
sV\u5784\u65ad
p1880
I3
sV\u8bc4\u9009
p1881
I1
sV\u516c\u5f0f
p1882
I1
sV\u5b8f\u89c2\u7ecf\u6d4e
p1883
I5
sV\u5e38\u4efb
p1884
I1
sV\u6761\u6cb3
p1885
I1
sV\u4fc4\u4e2d
p1886
I3
sV\u7ecf\u6d4e\u7279\u533a
p1887
I2
sV\u9884\u7b97\u6848
p1888
I2
sV\u6298\u7b97
p1889
I2
sV\u6700\u4f4e\u8c37
p1890
I1
sV\u4f4e\u8c37
p1891
I1
sV\u9002\u5e94
p1892
I5
sV\u964d\u4e0b\u6765
p1893
I1
sV\u533b\u7597
p1894
I9
sV\u8863\u670d
p1895
I1
sV\u767d\u9152
p1896
I2
sV\u4f4e\u8c03
p1897
I1
sV\u6295\u5411
p1898
I3
sV\u8bc1\u636e
p1899
I7
sV\u5ec9\u79df\u623f
p1900
I2
sV\u62cd\u5356
p1901
I2
sV\u798f\u5c9b
p1902
I1
sV\u5168\u804c
p1903
I2
sV\u5965\u5730\u5229
p1904
I3
sV\u7ecf\u7406\u4eba
p1905
I3
sV\u501f\u53e3
p1906
I1
sV\u8fdd\u6cd5
p1907
I3
sV\u53d1\u58f0
p1908
I1
sV\u8239\u95f8
p1909
I1
sV\u8865\u507f
p1910
I2
sV\u4f26\u6566
p1911
I19
sV\u5ba1\u7a3f
p1912
I6
sV\u6d74\u5dfe
p1913
I1
sV\u96f6\u552e\u5546
p1914
I1
sV\u652f\u63f4
p1915
I1
sV\u5fb7\u91cc
p1916
I1
sV\u7406\u8bba
p1917
I3
sV\u957f\u671f\u503a\u52a1
p1918
I1
sV\u6551\u5e02
p1919
I1
sV\u89c4\u7ae0\u5236\u5ea6
p1920
I1
sV\u8f66\u7a0b
p1921
I1
sV\u6570\u76ee
p1922
I1
sV\u5927\u9009
p1923
I3
sV\u7537\u6027
p1924
I1
sV\u524d\u4e09\u4f4d
p1925
I1
sV\u4ecb\u5165
p1926
I1
sV\u65f6\u4e8b
p1927
I1
sV\u8be2\u95ee
p1928
I2
sV\u6c7d\u8f66\u5c3e\u6c14
p1929
I1
sV\u519b\u706b
p1930
I1
sV\u4e2d\u963f
p1931
I1
sV\u897f\u975e
p1932
I2
sV\u4ee3\u8868\u6027
p1933
I1
sV\u533b\u751f
p1934
I2
sV\u73bb\u7483
p1935
I1
sV\u8bbf\u7f8e
p1936
I9
sV\u63a8\u52a8\u8005
p1937
I1
sV\u89e3\u51b3\u65b9\u6848
p1938
I3
sV\u5956\u9879
p1939
I2
sV\u8d1f\u76f8\u5173
p1940
I3
sV\u722a\u54c7\u5c9b
p1941
I1
sV\u5236\u9020
p1942
I22
sV\u7eb8\u8d28
p1943
I2
sV\u5934\u5bf8
p1944
I3
sV\u56de\u5410
p1945
I1
sV\u5c3e\u6c14
p1946
I2
sV\u516c\u53f8\u503a
p1947
I1
sV\u98d9\u5347
p1948
I12
sV\u56de\u5408
p1949
I2
sV\u76d7\u53d6
p1950
I1
sV\u71c3\u6599
p1951
I6
sV\u56fd\u52a1
p1952
I1
sV\u535a\u5f08
p1953
I2
sV\u5f62\u52bf
p1954
I16
sV\u9ec4\u706f
p1955
I1
sV\u6bd4\u8d5b
p1956
I2
sV\u6c14\u5019
p1957
I14
sV\u8d85\u97f3\u901f
p1958
I1
sV\u8fdb\u51fa
p1959
I1
sV\u4fbf\u58eb
p1960
I1
sV\u94f6\u884c
p1961
I58
sV\u7535\u89c6\u673a
p1962
I1
sV\u56fd\u529b
p1963
I1
sV\u6218\u6597
p1964
I1
sV\u798f\u5dde
p1965
I2
sV\u516c\u5e73
p1966
I9
sV\u501f\u52a9
p1967
I1
sV\u642d\u8f7d
p1968
I1
sV\u53e3\u5934
p1969
I2
sV\u8463\u4e8b\u4f1a
p1970
I5
sV\u63a8\u8bba
p1971
I1
sV\u751f\u957f
p1972
I2
sV\u6307\u5f15
p1973
I3
sV\u50a8\u6cb9
p1974
I1
sV\u516c\u5e03
p1975
I46
sV\u653e\u677e
p1976
I2
sV\u7559\u5728
p1977
I4
sV\u8fdb\u519b
p1978
I6
sV\u4e2d\u65e5\u97e9
p1979
I1
sV\u611f\u67d3
p1980
I2
sV\u8fce\u6765
p1981
I7
sV\u94c3\u94db
p1982
I1
sV\u5347\u5e45
p1983
I2
sV\u7eb3\u7a0e
p1984
I1
sV\u7ecf\u6d4e\u5b66\u5bb6
p1985
I44
sV\u9000\u6362
p1986
I1
sV\u900f\u660e
p1987
I2
sV\u9636\u5c42
p1988
I4
sV\u559c\u4eba
p1989
I1
sV\u91d1\u5c5e
p1990
I8
sV\u9ad8\u51fa
p1991
I3
sV\u6784\u5efa
p1992
I2
sV\u5347\u6e29
p1993
I4
sV\u538b\u529b
p1994
I47
sV\u8d77\u98de
p1995
I1
sV\u5f3a\u786c\u6d3e
p1996
I1
sV\u5199\u6709
p1997
I1
sV\u6210\u95ee\u9898
p1998
I1
sV\u94fa\u8def
p1999
I1
sV\u5c55\u793a
p2000
I2
sV\u5976\u916a
p2001
I1
sV\u519b\u5b98
p2002
I1
sV\u4e94\u6d32
p2003
I1
sV\u4fc4\u7f57\u65af\u5362\u5e03
p2004
I3
sV\u6ca1\u5230
p2005
I1
sV\u544a\u8bc9
p2006
I12
sV\u91d1\u5c5e\u5236\u54c1
p2007
I2
sV\u5145\u6c14
p2008
I1
sV\u8d22\u957f
p2009
I17
sV\u56fd\u522b
p2010
I3
sV\u5c40\u9762
p2011
I14
sV\u6cf5\u623f
p2012
I1
sV\u8865\u5145
p2013
I6
sV\u667a\u5546
p2014
I2
sV\u5de8\u5927\u4f5c\u7528
p2015
I1
sV\u4e2d\u5df4
p2016
I5
sV\u6fc0\u52b1
p2017
I3
sV\u8d2f\u5f7b
p2018
I1
sV\u5916\u4ea4\u653f\u7b56
p2019
I1
sV\u8fdb\u5165
p2020
I61
sV\u968f\u8bbf
p2021
I2
sV\u6ea2\u56de
p2022
I1
sV\u4f1a\u5458\u56fd
p2023
I2
sV\u73b0\u91d1\u6d41
p2024
I1
sV\u65e5\u5e38\u7528\u54c1
p2025
I1
sV\u5927\u5173
p2026
I4
sV\u8d26\u6237
p2027
I10
sV\u8ff9\u8c61
p2028
I12
sV\u8fc7\u5c71\u8f66
p2029
I2
sV\u76d1\u89c6
p2030
I2
sV\u4e60\u60ef
p2031
I1
sV\u7f51\u5fae\u535a
p2032
I1
sV\u751f\u4ea7\u56fd
p2033
I5
sV\u963b\u6321
p2034
I2
sV\u963b\u6320
p2035
I1
sV\u89c4\u5b9a
p2036
I14
sV\u538b\u5236
p2037
I3
sV\u4eba\u7c7b
p2038
I4
sV\u8ddd\u79bb
p2039
I8
sV\u6a21\u4eff
p2040
I1
sV\u89c2\u671b
p2041
I1
sV\u751f\u7269\u79d1\u6280
p2042
I2
sV\u6f14\u53d8
p2043
I2
sV\u8bae\u606f
p2044
I3
sV\u6307\u660e
p2045
I1
sV\u4fee\u8ba2
p2046
I4
sV\u501f\u9274
p2047
I4
sV\u6279\u8bc4
p2048
I5
sV\u65b0\u8def\u5b50
p2049
I1
sV\u5e74\u85aa
p2050
I1
sV\u62d6\u5ef6
p2051
I1
sV\u4fc4\u65b9
p2052
I6
sV\u8f93\u9001
p2053
I1
sV\u706b\u707e
p2054
I1
sV\u5a01\u80c1
p2055
I16
sV\u9a6c\u91cc\u4e9a
p2056
I1
sV\u957f\u8fbe
p2057
I3
sV\u6559\u7ec3
p2058
I1
sV\u5408\u683c
p2059
I1
sV\u7ae3\u5de5
p2060
I1
sV\u7f8e\u6b27
p2061
I3
sV\u7533\u8bc9
p2062
I1
sV\u8de8\u90e8\u95e8
p2063
I1
sV\u5f00\u653e\u6027
p2064
I1
sV\u8dcc\u5e45
p2065
I11
sV\u52b3\u52a8\u5bc6\u96c6\u578b
p2066
I2
sV\u7834\u83b7
p2067
I1
sV\u5c40\u90e8
p2068
I2
sV\u5236\u9020\u5382
p2069
I1
sV\u7533\u8bf7
p2070
I17
sV\u534e\u76db\u987f
p2071
I15
sV\u5357\u6d77
p2072
I3
sV\u6563\u573a
p2073
I1
sV\u5f15\u64ce
p2074
I7
sV\u9003\u907f
p2075
I1
sV\u767e\u5ea6
p2076
I2
sV\u4ea4\u4ed8
p2077
I5
sV\u52a0\u62ff\u5927
p2078
I21
sV\u59ff\u6001
p2079
I4
sV\u52ab\u6301
p2080
I1
sV\u8d22\u52a1
p2081
I7
sV\u589e\u901f
p2082
I43
sV\u9000\u4f0d\u519b\u4eba
p2083
I1
sV\u8d85\u51fa
p2084
I7
sV\u65ad\u6389
p2085
I1
sV\u52a9\u5df4
p2086
I1
sV\u793a\u597d
p2087
I1
sV\u786e\u5b9a
p2088
I23
sV\u53cd\u5e94\u7089
p2089
I1
sV\u5408\u4e4e
p2090
I1
sV\u6316\u6398
p2091
I1
sV\u611f\u60c5
p2092
I1
sV\u8054\u63a5
p2093
I1
sV\u62c5\u5f53
p2094
I2
sV\u6db5\u6982
p2095
I1
sV\u6caa\u6df1\u80a1\u5e02
p2096
I1
sV\u53c2\u52a0
p2097
I21
sV\u6f14\u5458
p2098
I1
sV\u7eaf\u5c5e
p2099
I1
sV\u4e39\u5c3c\u65af
p2100
I1
sV\u538b\u5012\u6027
p2101
I1
sV\u5fd7\u613f\u8005
p2102
I2
sV\u653f\u548c
p2103
I1
sV\u641c\u7d22
p2104
I3
sV\u8db3\u4ee5
p2105
I9
sV\u82ac\u5170
p2106
I2
sV\u8d60\u9001\u7ed9
p2107
I2
sV\u589e\u503c\u7a0e
p2108
I1
sV\u5e73\u5747\u6c34\u5e73
p2109
I2
sV\u8d22\u529b
p2110
I1
sV\u8239\u53ea
p2111
I1
sV\u5916\u8d44
p2112
I7
sV\u540d\u62a4\u5e02
p2113
I1
sV\u8868\u73b0
p2114
I32
sV\u4e2a\u6570
p2115
I1
sV\u96c4\u5fc3
p2116
I1
sV\u7ed9\u4ed8
p2117
I1
sV\u5357\u975e
p2118
I17
sV\u77ff\u4ea7
p2119
I3
sV\u5927\u962a
p2120
I1
sV\u6ea2\u51fa
p2121
I7
sV\u5269\u4f59
p2122
I1
sV\u4f1a\u6664
p2123
I13
sV\u77ff\u4e95
p2124
I1
sV\u57ce\u5e02\u5316
p2125
I1
sV\u5feb\u901f\u589e\u957f
p2126
I5
sV\u53ef\u884c\u6027\u7814\u7a76
p2127
I3
sV\u91cf\u5316
p2128
I27
sV\u79df\u552e
p2129
I1
sV\u8fb9\u7586\u533a
p2130
I1
sV\u7ed9\u4e88
p2131
I8
sV\u7559\u4e0b
p2132
I4
sV\u7a7a\u6e2f
p2133
I1
sV\u667a\u5229
p2134
I11
sV\u9047\u96be\u8005
p2135
I1
sV\u90ae\u5c40
p2136
I1
sV\u6f14\u8bb2
p2137
I17
sV\u62d0\u70b9
p2138
I2
sV\u7968\u4ef7
p2139
I1
sV\u62c5\u5fc3
p2140
I27
sV\u95f4\u8c0d
p2141
I1
sV\u4f5c\u8bc1
p2142
I1
sV\u65b0\u589e
p2143
I14
sV\u53d1\u81ea
p2144
I3
sV\u51fa\u73b0
p2145
I93
sV\u5386\u7ec3
p2146
I1
sV\u5217\u5165
p2147
I1
sV\u53d6\u4ee3
p2148
I2
sV\u542f\u7528
p2149
I1
sV\u7f9e\u8fb1
p2150
I1
sV\u62c5\u5fe7
p2151
I34
sV\u770b\u5b88
p2152
I1
sV\u76d1\u7763\u673a\u5236
p2153
I1
sV\u7387\u4e3a
p2154
I1
sV\u5927\u9646
p2155
I11
sV\u5e7f\u544a
p2156
I1
sV\u5174\u8d77
p2157
I3
sV\u5916\u8d38
p2158
I4
sV\u6d74\u5ba4
p2159
I1
sV\u8349\u6599
p2160
I1
sV\u4e3e\u503a
p2161
I1
sV\u6b66\u529b
p2162
I3
sV\u5730\u72af
p2163
I1
sV\u6ee1\u6d66
p2164
I1
sV\u4e1a\u52a1\u6536\u5165
p2165
I1
sV\u72b6\u51b5
p2166
I11
sV\u4e0d\u60f3
p2167
I2
sV\u5546\u8a89
p2168
I1
sV\u7cd6\u4e1a
p2169
I1
sV\u793a\u8303
p2170
I3
sV\u53cd\u5bf9\u8005
p2171
I1
sV\u5c71\u7530
p2172
I1
sV\u9ed1\u9f99\u6c5f
p2173
I1
sV\u6270\u4e71
p2174
I1
sV\u51fa\u7248
p2175
I2
sV\u7687\u5bb6
p2176
I3
sV\u519b\u4e8b\u57fa\u5730
p2177
I1
sV\u53cc\u5468\u520a
p2178
I1
sV\u501f\u94b1
p2179
I2
sV\u8461\u8404\u7259
p2180
I1
sV\u5728\u4e4e
p2181
I1
sV\u52d0\u814a
p2182
I1
sV\u6c34\u4ea7
p2183
I1
sV\u590d\u6742\u5316
p2184
I1
sV\u8d8a\u6b27
p2185
I1
sV\u544a\u8d62
p2186
I1
sV\u9cd5\u9c7c
p2187
I1
sV\u64b0\u5199
p2188
I2
sV\u707e\u96be
p2189
I4
sV\u5e94\u5bf9
p2190
I43
sV\u516c\u5bd3\u697c
p2191
I1
sV\u56fd\u6709\u8d44\u4ea7
p2192
I1
sV\u4e9a\u6d32\u533a
p2193
I1
sV\u5f00\u884c
p2194
I1
sV\u6838\u67e5
p2195
I1
sV\u53d7\u4f24
p2196
I1
sV\u521b\u529e\u4eba
p2197
I1
sV\u5bc4\u671b
p2198
I1
sV\u653e\u6162
p2199
I5
sV\u963b\u65ad
p2200
I1
sV\u6cd5\u62c9
p2201
I1
sV\u7ebf\u8def
p2202
I6
sV\u7f51\u5fd7
p2203
I1
sV\u6280\u672f\u7ec6\u8282
p2204
I1
sV\u5356\u6deb
p2205
I1
sV\u5e73\u4ef7
p2206
I3
sV\u7ecf\u6d4e\u6548\u76ca
p2207
I1
sV\u4f20\u9012
p2208
I4
sV\u82cf\u4f0a\u58eb\u8fd0\u6cb3
p2209
I2
sV\u6566\u4fc3
p2210
I6
sV\u968f\u8eab\u5e26
p2211
I1
sV\u94f6\u884c\u4e1a\u52a1
p2212
I1
sV\u5723\u80e1\u5b89\u6cb3
p2213
I1
sV\u8010\u7528\u54c1
p2214
I2
sV\u62fc\u547d
p2215
I1
sV\u7ade\u4e89
p2216
I21
sV\u6000\u7591
p2217
I6
sV\u5730\u5c06
p2218
I1
sV\u5c0f\u94fa
p2219
I1
sV\u589e\u91cf
p2220
I2
sV\u8d1f\u9762\u6027
p2221
I1
sV\u5fb7\u56fd
p2222
I50
sV\u8fc7\u7a0b
p2223
I28
sV\u4e0a\u8c03
p2224
I6
sV\u5165\u624b
p2225
I1
sV\u7cd6\u4ef7
p2226
I2
sV\u534a\u4ef7
p2227
I1
sV\u7ba1\u9053
p2228
I8
sV\u514d\u7a0e\u5e97
p2229
I1
sV\u6a2a\u884c
p2230
I1
sV\u613f\u540c
p2231
I1
sV\u529b\u5ea6
p2232
I12
sV\u8a00\u8bba
p2233
I3
sV\u653f\u5546
p2234
I1
sV\u884d\u751f
p2235
I1
sV\u804c\u5458
p2236
I1
sV\u4f4d\u5b50
p2237
I1
sV\u81ea\u7531\u6e2f
p2238
I1
sV\u5b9e\u529b
p2239
I3
sV\u9884\u5148
p2240
I1
sV\u5730\u7f18\u653f\u6cbb\u5b66
p2241
I2
sV\u5b89\u6392
p2242
I11
sV\u63a2\u8ba8
p2243
I6
sV\u94fa\u8bbe
p2244
I1
sV\u7a7a\u4e2d\u5ba2\u8f66
p2245
I1
sV\u516c\u5893
p2246
I1
sV\u5c48\u670d
p2247
I1
sV\u89c2\u611f
p2248
I1
sV\u671d\u9c9c\u534a\u5c9b
p2249
I2
sV\u6761\u6b3e
p2250
I2
sV\u8bd5\u9a8c\u533a
p2251
I3
sV\u81ea\u7ed9
p2252
I2
sV\u4e1c\u7ebf
p2253
I3
sV\u5efa\u7acb
p2254
I51
sV\u8d1f\u6570
p2255
I1
sV\u5269\u4e0b
p2256
I3
sV\u5728\u4e8e
p2257
I14
sV\u5723\u4f55\u585e
p2258
I1
sV\u5df4\u5398\u5c9b
p2259
I1
sV\u5b66\u4f1a
p2260
I3
sV\u50a8\u84c4\u5b58\u6b3e
p2261
I1
sV\u8206\u60c5
p2262
I1
sV\u5206\u6790
p2263
I33
sV\u89c6\u89d2
p2264
I1
sV\u8981\u6c42
p2265
I33
sV\u5f97\u5206
p2266
I1
sV\u623f\u95f4
p2267
I1
sV\u4e0b\u57ce
p2268
I1
sV\u751f\u4e8e
p2269
I3
sV\u65b0\u6c11
p2270
I1
sV\u7b79\u6b3e
p2271
I1
sV\u7ea7\u522b
p2272
I2
sV\u5185\u52a1\u90e8\u957f
p2273
I1
sV\u770b\u597d
p2274
I9
sV\u6253\u5370\u673a
p2275
I1
sV\u633d\u6551
p2276
I3
sV\u65e0\u4f8b
p2277
I1
sV\u5e45\u5ea6
p2278
I15
sV\u552e\u5356\u673a
p2279
I1
sV\u6ce2\u7279
p2280
I1
sV\u4e0b\u5c5e\u5355\u4f4d
p2281
I1
sV\u5f00\u5e55\u5f0f
p2282
I4
sV\u4e0b\u51b3\u5fc3
p2283
I1
sV\u4f20\u5355
p2284
I1
sV\u751f\u4ea7
p2285
I44
sV\u5f62\u6210
p2286
I24
sV\u4e70\u7968
p2287
I1
sV\u8bf1\u53d1
p2288
I1
sV\u767d\u4fc4\u7f57\u65af
p2289
I3
sV\u7ade\u8d5b
p2290
I1
sV\u6295\u7968\u6743
p2291
I8
sV\u95e8\u69db
p2292
I4
sV\u62db\u52df
p2293
I1
sV\u7206\u68da
p2294
I1
sV\u9ad8\u94c1
p2295
I18
sV\u5e94\u58f0
p2296
I1
sV\u7fa7\u9178
p2297
I1
sV\u8517\u7cd6
p2298
I1
sV\u5206\u88c2
p2299
I2
sV\u5185\u5bb9
p2300
I10
sV\u544a\u4e0a
p2301
I1
sV\u62a2\u773c
p2302
I1
sV\u6563\u6237
p2303
I1
sV\u529e\u7406
p2304
I1
sV\u4f01\u7ba1
p2305
I1
sV\u60c5\u72b6
p2306
I1
sV\u4e16\u90a6
p2307
I1
sV\u8fc7\u6e21\u6027
p2308
I2
sV\u5e74\u8fd0\u91cf
p2309
I1
sV\u6709\u70b9\u50cf
p2310
I1
sV\u91cd\u70b9
p2311
I14
sV\u5546\u54c1\u4ef7\u683c
p2312
I12
sV\u4eba\u6c11
p2313
I14
sV\u627f\u62c5
p2314
I8
sV\u5c40\u52bf
p2315
I10
sV\u7b79\u5907\u5904
p2316
I1
sV\u7ee7\u627f
p2317
I4
sV\u4f53\u80b2
p2318
I2
sV\u6148\u5584\u673a\u6784
p2319
I2
sV\u4e2d\u98ce
p2320
I1
sV\u6d88\u8017
p2321
I4
sV\u5de8\u5934
p2322
I15
sV\u9965\u997f
p2323
I1
sV\u516c\u5bd3
p2324
I5
sV\u51bb\u96e8
p2325
I1
sV\u79df\u8d41
p2326
I2
sV\u4f0a\u65af\u5170
p2327
I6
sV\u524d\u77bb\u6027
p2328
I1
sV\u571f\u5e93\u66fc\u65af\u5766
p2329
I1
sV\u5305\u5bb9\u6027
p2330
I3
sV\u98de\u673a\u5236\u9020
p2331
I1
sV\u68c9\u82b1
p2332
I2
sV\u56fd\u571f
p2333
I1
sV\u80e1\u6da6
p2334
I1
sV\u53d1\u51fa\u4fe1\u53f7
p2335
I1
sV\u4e3a\u9898
p2336
I1
sV\u6cd5\u4f8b
p2337
I2
sV\u7269\u6d41
p2338
I9
sV\u5f00\u8bbe
p2339
I3
sV\u8017\u8d39
p2340
I1
sV\u8d8b\u5927
p2341
I1
sV\u52a0\u5927
p2342
I10
sV\u6302\u724c
p2343
I1
sV\u7ec6\u5219
p2344
I2
sV\u7f57\u9a6c\u5c3c\u4e9a
p2345
I2
sV\u53c2\u9009
p2346
I1
sV\u81ea\u7531\u6d3e
p2347
I1
sV\u6c34\u9f99\u5934
p2348
I2
sV\u7a0e\u6536\u653f\u7b56
p2349
I2
sV\u4fdd\u5bc6\u6027
p2350
I1
sV\u5f97\u5dde
p2351
I1
sV\u8ba4\u7f34
p2352
I2
sV\u89c2\u770b
p2353
I1
sV\u5206\u884c
p2354
I2
sV\u4e3b\u5e2d
p2355
I65
sV\u89e3\u51b3\u529e\u6cd5
p2356
I1
sV\u51cf\u514d
p2357
I6
sV\u56de\u51fb
p2358
I1
sV\u963f\u62c9\u6728\u56fe
p2359
I1
sV\u589e\u52bf
p2360
I1
sV\u4fc4\u7f57\u65af\u8054\u90a6
p2361
I4
sV\u5356\u56fd
p2362
I1
sV\u5316\u5de5\u4ea7\u54c1
p2363
I1
sV\u6df7\u51dd\u571f
p2364
I1
sV\u7ecf\u5386
p2365
I11
sV\u589e\u52a0
p2366
I88
sV\u7eed\u7b7e
p2367
I1
sV\u6b65\u4f10
p2368
I10
sV\u4e1a\u5185\u4eba\u58eb
p2369
I2
sV\u552e\u4ef7
p2370
I3
sV\u5e02\u573a\u4efd\u989d
p2371
I6
sV\u53e6\u636e\u62a5\u9053
p2372
I1
sV\u7455\u75b5
p2373
I1
sV\u5360\u7528
p2374
I1
sV\u91cd\u632b
p2375
I5
sV\u8bc1\u660e
p2376
I6
sV\u5973\u738b
p2377
I1
sV\u9762\u7eb1
p2378
I1
sV\u6b21\u8d37
p2379
I1
sV\u8bb0\u8005
p2380
I114
sV\u65e0\u4eba
p2381
I1
sV\u627f\u63a5
p2382
I1
sV\u57f9\u80b2
p2383
I2
sV\u53f0\u98ce
p2384
I1
sV\u63a8\u8fdb
p2385
I46
sV\u6240\u6709\u4eba
p2386
I3
sV\u4f01\u4e1a
p2387
I157
sV\u6295\u7968
p2388
I7
sV\u63a8\u8fdf
p2389
I9
sV\u571f\u65b9
p2390
I1
sV\u89c1\u5230
p2391
I1
sV\u5f3a\u8c03
p2392
I18
sV\u76f8\u543b\u5408
p2393
I1
sV\u4e91\u5c42
p2394
I1
sV\u56e2\u4f19
p2395
I1
sV\u6280\u672f\u6807\u51c6
p2396
I1
sV\u5efa\u6750
p2397
I2
sV\u5f98\u5f8a
p2398
I3
sV\u7ec4\u5408
p2399
I1
sV\u524d\u63d0
p2400
I2
sV\u4e0b\u632b
p2401
I5
sV\u6cdb\u4e9a
p2402
I3
sV\u653f\u6cbb\u5b66
p2403
I1
sV\u7528\u6237
p2404
I6
sV\u4e13\u7535
p2405
I2
sV\u5fae\u89c2\u7ecf\u6d4e
p2406
I1
sV\u809d\u75c5
p2407
I1
sV\u4e13\u7528
p2408
I2
sV\u79d8\u8bc0
p2409
I1
sV\u5168\u7403\u6027
p2410
I3
sV\u7834\u4ea7
p2411
I4
sV\u884c\u4eba
p2412
I1
sV\u52a0\u52d2\u6bd4\u5730\u533a
p2413
I1
sV\u5408\u8d44
p2414
I3
sV\u5927\u95e8
p2415
I2
sV\u52a8\u529b
p2416
I15
sV\u5916\u4ea4
p2417
I7
sV\u4e0a\u4efb
p2418
I1
sV\u4e2d\u592e
p2419
I1
sV\u884c\u4e8b
p2420
I2
sV\u7d2f\u8ba1
p2421
I7
sV\u4ed8\u51fa
p2422
I4
sV\u4e2d\u5357\u534a\u5c9b
p2423
I1
sV\u4fc4\u7f57\u65af\u8fdc\u4e1c\u5730\u533a
p2424
I1
sV\u8d35\u91d1\u5c5e
p2425
I4
sV\u5207\u4e2d
p2426
I1
sV\u95ee\u5377
p2427
I1
sV\u603b\u9762\u79ef
p2428
I1
sV\u66b4\u589e
p2429
I1
sV\u6db2\u5316
p2430
I4
sV\u6982\u7387
p2431
I7
sV\u6c11\u5175
p2432
I1
sV\u5e7f\u573a
p2433
I1
sV\u6cd5\u4eba
p2434
I1
sV\u8bc4\u5206\u6807\u51c6
p2435
I1
sV\u5927\u6d0b\u6d32
p2436
I2
sV\u667a\u56ca\u56e2
p2437
I1
sV\u6cbb\u56fd
p2438
I1
sV\u4e3e\u52a8
p2439
I3
sV\u8d22\u52a1\u5371\u673a
p2440
I1
sV\u51cf\u503c
p2441
I1
sV\u4e2d\u7f8e\u7701
p2442
I2
sV\u8702\u871c
p2443
I1
sV\u5254\u9664
p2444
I2
sV\u6269\u6563
p2445
I1
sV\u6539\u5199
p2446
I1
sV\u67af\u7aed
p2447
I1
sV\u653f\u575b
p2448
I2
sV\u5b63\u8282\u6027
p2449
I6
sV\u4e3e\u529e
p2450
I7
sV\u8c08\u5224\u4ee3\u8868
p2451
I1
sV\u4f18\u60e0
p2452
I5
sV\u91d1\u989d
p2453
I7
sV\u4f01\u4e1a\u503a
p2454
I1
sV\u51cf\u901f
p2455
I8
sV\u8054\u540d
p2456
I1
sV\u63a8\u4f4e
p2457
I1
sV\u9632\u5fa1
p2458
I1
sV\u751f\u4ea7\u529b
p2459
I4
sV\u7403\u8ff7
p2460
I1
sV\u7d27\u8feb\u6027
p2461
I1
sV\u8fd0\u6cb3
p2462
I4
sV\u5e26\u53bb
p2463
I2
sV\u95f4\u4f1a
p2464
I1
sV\u7ec6\u5316
p2465
I1
sV\u5b8c\u5907
p2466
I1
sV\u5c3e\u58f0
p2467
I1
sV\u4ea4\u8d27
p2468
I4
sV\u65d7\u4e0b
p2469
I19
sV\u6307\u5b9a
p2470
I1
sV\u5347\u9ad8
p2471
I4
sV\u4e3b\u5f20
p2472
I1
sV\u86cb\u7c7b
p2473
I1
sV\u6cd5\u4ee4
p2474
I1
sV\u4e11\u5c0f\u9e2d
p2475
I1
sV\u884c\u4e3a
p2476
I9
sV\u5355\u6676\u7845
p2477
I1
sV\u6e38\u620f
p2478
I2
sV\u5747\u4ef7
p2479
I3
sV\u6025\u8dcc
p2480
I1
sV\u51fa\u7089
p2481
I4
sV\u7ea6\u5b9a
p2482
I2
sV\u6211\u4f1a
p2483
I2
sV\u56fd\u9645
p2484
I154
sV\u4f01\u7a33
p2485
I1
sV\u767b\u9646
p2486
I2
sV\u5f00\u53d1\u5546
p2487
I3
sV\u6839\u6e90
p2488
I3
sV\u6839\u672c\u5229\u76ca
p2489
I1
sV\u884c\u4e1a
p2490
I44
sV\u53d7\u8fc7
p2491
I1
sV\u4fc4\u56fd
p2492
I2
sV\u4eba\u58eb\u5904
p2493
I1
sV\u5bf9\u63a5
p2494
I5
sV\u786e\u8bca
p2495
I1
sV\u5efa\u6863
p2496
I1
sV\u78b3\u9178
p2497
I1
sV\u98ce\u80fd
p2498
I1
sV\u53d1\u8d27
p2499
I1
sV\u52a8\u5de5
p2500
I2
sV\u603b\u76d1
p2501
I4
sV\u8f6c\u6362
p2502
I2
sV\u4e91\u5357
p2503
I1
sV\u81f4\u51fd
p2504
I1
sV\u6551\u707e
p2505
I1
sV\u7ef4\u4fee
p2506
I3
sV\u89c4\u907f
p2507
I3
sV\u987e\u53ca
p2508
I1
sV\u641c\u67e5
p2509
I1
sV\u5df4\u57fa\u65af\u5766
p2510
I7
sV\u79d8\u4e66\u957f
p2511
I2
sV\u4fe1\u8d56
p2512
I1
sV\u56e2\u961f
p2513
I12
sV\u5e0c\u671b
p2514
I83
sV\u8fa9\u8bba
p2515
I1
sV\u4e13\u7a3f
p2516
I2
sV\u53d1\u8d77
p2517
I8
sV\u56de\u5f52
p2518
I4
sV\u707e\u5bb3
p2519
I1
sV\u5185\u751f
p2520
I3
sV\u8dcc\u5230
p2521
I3
sV\u5237\u65b0
p2522
I4
sV\u5e26\u52a8
p2523
I14
sV\u5efa\u7b51\u6750\u6599
p2524
I1
sV\u5de5\u4e1a\u54c1
p2525
I1
sV\u64ad\u62a5
p2526
I1
sV\u5b98\u50da
p2527
I1
sV\u5de5\u7a0b
p2528
I15
sV\u4ea4\u6d41\u5e73\u53f0
p2529
I1
sV\u82f1\u4e2d
p2530
I2
sV\u716e\u6cb8
p2531
I1
sV\u516c\u8def\u4ea4\u901a
p2532
I1
sV\u63a8\u4ecb
p2533
I4
sV\u7ad6\u8d77
p2534
I1
sV\u7ea6\u5408
p2535
I18
sV\u5145\u5206\u5229\u7528
p2536
I1
sV\u4e50\u4e8e
p2537
I1
sV\u667a\u5e93
p2538
I10
sV\u9ed1\u94b1
p2539
I1
sV\u9769\u547d
p2540
I6
sV\u6050\u6016\u4e3b\u4e49
p2541
I2
sV\u68d8\u624b
p2542
I1
sV\u516c\u5171\u90e8\u95e8
p2543
I2
sV\u575a\u6301
p2544
I16
sV\u8d22\u5e74
p2545
I12
sV\u7f13\u51b2\u533a
p2546
I1
sV\u6b7b\u4ea1
p2547
I2
sV\u53c2\u9009\u4eba
p2548
I1
sV\u6ee1\u610f
p2549
I1
sV\u5957\u4fdd
p2550
I1
sV\u5b8f\u4f1f\u84dd\u56fe
p2551
I1
sV\u514d\u8d39
p2552
I2
sV\u51cf\u5f31
p2553
I4
sV\u8ffd\u8e2a
p2554
I3
sV\u51b2\u7834
p2555
I2
sV\u65b9\u6848
p2556
I21
sV\u5e74\u4efd
p2557
I1
sV\u4e3b\u7ba1\u90e8\u95e8
p2558
I1
sV\u6311\u6218\u6027
p2559
I1
sV\u8fdb\u9a7b
p2560
I1
sV\u4e3b\u5e2d\u56fd
p2561
I6
sV\u96f6\u552e\u603b\u989d
p2562
I1
sV\u6536\u4e8e
p2563
I3
sV\u6d4b\u9a8c
p2564
I1
sV\u98de\u6da8
p2565
I1
sV\u7f5a\u6b3e
p2566
I3
sV\u9075\u5faa
p2567
I1
sV\u4e2d\u56fd
p2568
I412
sV\u5236\u5b9a
p2569
I9
sV\u5e76\u4f5c
p2570
I1
sV\u5c31\u4e1a\u673a\u4f1a
p2571
I5
sV\u5229\u7387
p2572
I56
sV\u7f8e\u6797
p2573
I4
sV\u7ed3\u5408
p2574
I2
sV\u751f\u7269\u6b66\u5668
p2575
I1
sV\u5224\u65ad
p2576
I10
sV\u51b3\u7b56\u673a\u6784
p2577
I1
sV\u8001\u5e08
p2578
I2
sV\u672a\u6709
p2579
I1
sV\u8349\u6848
p2580
I2
sV\u5047\u88c5
p2581
I1
sV\u8dc3\u5c45
p2582
I1
sV\u91d1\u878d\u8d44\u4ea7
p2583
I1
sV\u56de\u5fc6
p2584
I1
sV\u529d\u544a
p2585
I1
sV\u914d\u8d44
p2586
I1
sV\u8f6c\u63a5
p2587
I1
sV\u6548\u653f
p2588
I1
sV\u5386\u65f6
p2589
I1
sV\u4f4d\u7f6e\u670d\u52a1
p2590
I1
sV\u5f69\u6c11
p2591
I1
sV\u8f6e\u6e21
p2592
I1
sV\u8d28\u7591
p2593
I5
sV\u56fd\u6709\u4f01\u4e1a
p2594
I5
sV\u8d39\u529b
p2595
I1
sV\u533a\u57df
p2596
I22
sV\u77f3\u6cb9\u6c14
p2597
I1
sV\u516d\u56fd
p2598
I1
sV\u4e13\u95e8
p2599
I7
sV\u8d27\u67b6
p2600
I1
sV\u6392\u961f
p2601
I1
sV\u5bf9\u5f85
p2602
I5
sV\u9886\u5bfc\u5c42
p2603
I3
sV\u516c\u544a
p2604
I7
sV\u8f6c\u624b
p2605
I2
sV\u53ef\u6301
p2606
I1
sV\u94f6\u8272
p2607
I1
sV\u8c05\u89e3
p2608
I4
sV\u52a0\u56fa
p2609
I1
sV\u5168\u7403\u6218\u7565
p2610
I2
sV\u4e2d\u975e
p2611
I3
sV\u62ef\u6551
p2612
I2
sV\u7b7e\u7f72
p2613
I51
sV\u603b\u88c5\u7ebf
p2614
I1
sV\u9891\u9053
p2615
I3
sV\u72af\u7f6a
p2616
I3
sV\u5c0f\u78e8
p2617
I1
sV\u56f4\u56f0
p2618
I1
sV\u5b5f\u4e70
p2619
I2
sV\u5bb6\u5ead\u6536\u5165
p2620
I1
sV\u539f\u5219
p2621
I12
sV\u51e0\u5185\u4e9a
p2622
I1
sV\u5f97\u5230
p2623
I24
sV\u7ecf\u6d4e\u4f53
p2624
I74
sV\u517c\u804c
p2625
I2
sV\u6697\u793a
p2626
I7
sV\u5bf9\u6297
p2627
I4
sV\u5348\u9910\u4f1a
p2628
I1
sV\u79c1\u6709\u5316
p2629
I3
sV\u7ef4\u4e9a
p2630
I1
sV\u8c0b\u53d1\u5c55
p2631
I1
sV\u7814\u7a76\u4f1a
p2632
I1
sV\u8bb2\u8bdd
p2633
I7
sV\u6253\u4e71
p2634
I1
sV\u624b\u673a\u53f7\u7801
p2635
I1
sV\u5386\u53f2
p2636
I35
sV\u7528\u6c34
p2637
I1
sV\u597d\u5b66
p2638
I1
sV\u5904\u7f5a
p2639
I3
sV\u4ee5\u9632
p2640
I1
sV\u6536\u652f
p2641
I1
sV\u5b8c\u6bd5
p2642
I2
sV\u6760\u6746
p2643
I5
sV\u60e0\u53ca
p2644
I2
sV\u5c0f\u5806
p2645
I1
sV\u8bb2\u8bfe
p2646
I1
sV\u6536\u4f4e
p2647
I1
sV\u5f81\u6536
p2648
I9
sV\u8230\u53ea
p2649
I1
sV\u65b0\u80fd\u6e90
p2650
I4
sV\u7f51\u53cb
p2651
I2
sV\u67d3\u75c5
p2652
I1
sV\u5907\u53d7
p2653
I3
sV\u575a\u6208
p2654
I1
sV\u526f\u603b\u7ecf\u7406
p2655
I1
sV\u4e2d\u57c3
p2656
I1
sV\u5012\u903c
p2657
I1
sV\u4e70\u76d8
p2658
I1
sV\u56de\u5e94
p2659
I9
sV\u89c2\u6d4b
p2660
I1
sV\u9762\u503c
p2661
I1
sV\u7406\u4e8b\u4f1a
p2662
I9
sV\u745e\u5178\u514b\u6717
p2663
I1
sV\u8d77\u5230
p2664
I4
sV\u4e9a\u5386\u5c71\u5927
p2665
I1
sV\u5916\u6c47\u5e02\u573a
p2666
I6
sV\u4e9f\u5f85
p2667
I1
sV\u95ed\u5e55
p2668
I4
sV\u6240\u4f5c
p2669
I1
sV\u62db\u724c
p2670
I1
sV\u8c08\u8bba
p2671
I3
sV\u77f3\u6cb9
p2672
I75
sV\u574f\u4e8b
p2673
I1
sV\u5927\u8c46
p2674
I1
sV\u53ef\u63a7
p2675
I1
sV\u76d1\u7763\u5458
p2676
I1
sV\u4e2d\u97e9
p2677
I2
sV\u632f\u8361
p2678
I2
sV\u5b66\u751f
p2679
I5
sV\u62bd\u8d44
p2680
I1
sV\u5178\u578b
p2681
I1
sV\u5475\u62a4
p2682
I1
sV\u53d1\u5e03\u516c\u544a
p2683
I1
sV\u4fee\u81f3
p2684
I1
sV\u53e4\u57c3\u53ca
p2685
I1
sV\u6076\u5316
p2686
I8
sV\u4eba\u5747\u6536\u5165
p2687
I1
sV\u8fd0\u62b5
p2688
I1
sV\u5e97\u91cc
p2689
I1
sV\u9876\u5c42
p2690
I1
sV\u5927\u5b66
p2691
I12
sV\u8f6c\u6295
p2692
I1
sV\u5e74\u6536\u5165
p2693
I3
sV\u676d\u5dde
p2694
I1
sV\u4e2d\u4e1c\u5730\u533a
p2695
I3
sV\u75c5\u6bd2
p2696
I2
sV\u996e\u7528
p2697
I1
sV\u7ade\u4e89\u529b
p2698
I15
sV\u5bf9\u624b
p2699
I1
sV\u836f\u7269
p2700
I2
sV\u51cf\u5e45
p2701
I1
sV\u7f16\u5236
p2702
I2
sV\u5546\u8ba8
p2703
I2
sV\u571f\u8033\u5176
p2704
I17
sV\u5b66\u754c
p2705
I1
sV\u80fd\u6e90\u4ef7\u683c
p2706
I8
sV\u6ce5\u6f6d
p2707
I2
sV\u56fd\u5bb4
p2708
I1
sV\u56fd\u5bb6
p2709
I256
sV\u542b\u84c4
p2710
I1
sV\u95ea\u7535
p2711
I1
sV\u9752\u677e
p2712
I1
sV\u56fd\u5bbe
p2713
I1
sV\u8fdb\u98df
p2714
I1
sV\u56db\u5ddd
p2715
I1
sV\u5174\u594b
p2716
I1
sV\u9ad8\u989d
p2717
I5
sV\u5386\u53f2\u6570\u636e
p2718
I5
sV\u65c5\u5ba2
p2719
I2
sV\u5f62\u5bb9
p2720
I1
sV\u7d2b\u83dc
p2721
I1
sV\u8f9e\u5178
p2722
I1
sV\u96c6\u88c5\u7bb1\u8239
p2723
I2
sV\u67b6\u6784
p2724
I2
sV\u5316\u5de5
p2725
I2
sV\u5927\u989d
p2726
I3
sV\u57fa\u8f85
p2727
I3
sV\u822a\u8fd0
p2728
I4
sV\u4ea7\u4e1a
p2729
I32
sV\u63d0\u632f
p2730
I8
sV\u4eae\u70b9
p2731
I2
sV\u71c3\u6cb9
p2732
I6
sV\u652f\u6c14\u7ba1\u708e
p2733
I1
sV\u9a7b\u534e\u5927\u4f7f
p2734
I2
sV\u79f0\u8be5
p2735
I2
sV\u66fc\u57ce
p2736
I1
sV\u65e5\u8054
p2737
I1
sV\u6267\u884c
p2738
I14
sV\u603b\u4eba\u53e3
p2739
I2
sV\u670d\u52a1\u751f
p2740
I1
sV\u6ee5\u7528
p2741
I5
sV\u7a0e\u76ee
p2742
I4
sV\u642c\u8fc1
p2743
I3
sV\u4e2d\u5409
p2744
I1
sV\u4fdd\u6301\u826f\u597d
p2745
I1
sV\u72ec\u5f97
p2746
I1
sV\u7406\u60f3
p2747
I2
sV\u5bfa\u9662
p2748
I1
sV\u4e13\u4e1a\u4eba\u58eb
p2749
I1
sV\u89c4\u5219
p2750
I13
sV\u901a\u8baf\u8d39
p2751
I1
sV\u89c4\u5212
p2752
I13
sV\u4e3b\u529b
p2753
I2
sV\u663e\u793a\u5668
p2754
I1
sV\u70ed\u95e8
p2755
I2
sV\u4e0d\u6cd5
p2756
I1
sV\u8bfe\u7a0b
p2757
I1
sV\u9080\u8bf7
p2758
I7
sV\u4fe1\u4f17
p2759
I1
sV\u89c4\u5236
p2760
I1
sV\u4eb2\u7b14
p2761
I1
sV\u724c\u7167
p2762
I2
sV\u6b27\u9633
p2763
I1
sV\u9a76\u5165
p2764
I1
sV\u79c1\u751f\u6d3b
p2765
I1
sV\u5e76\u8fdb
p2766
I1
sV\u80a1\u672c
p2767
I2
sV\u53d1\u8fbe
p2768
I15
sV\u7ade\u6807\u8005
p2769
I1
sV\u53f0\u5546
p2770
I1
sV\u4ef2\u88c1
p2771
I1
sV\u7ba1\u5236
p2772
I6
sV\u964d\u843d
p2773
I1
sV\u4f18\u4e8e
p2774
I1
sV\u5165\u6d77
p2775
I1
sV\u4fc3\u6210
p2776
I2
sV\u5730\u7f18
p2777
I16
sV\u52a0\u957f
p2778
I1
sV\u767b\u9876
p2779
I1
sV\u6570\u5468\u540e
p2780
I1
sV\u6536\u8d2d\u6848
p2781
I4
sV\u5730\u533a
p2782
I76
sV\u4e2d\u667a
p2783
I1
sV\u62d6\u57ae
p2784
I1
sV\u5931\u4e1a\u8005
p2785
I1
sV\u6839\u672c\u6027
p2786
I1
sV\u5df4\u9a6c
p2787
I1
sV\u54e5\u4f26\u6bd4\u4e9a
p2788
I6
sV\u9632\u52a1
p2789
I1
sV\u91ce\u6751
p2790
I5
sV\u7ed3\u679c\u8868\u660e
p2791
I1
sV\u4fe1\u7528\u5361
p2792
I2
sV\u5c3c\u52a0\u62c9\u74dc
p2793
I3
sV\u6d66\u9879
p2794
I1
sV\u521b\u9020\u6027
p2795
I1
sV\u5e76\u8d2d
p2796
I6
sV\u8d26\u6b3e
p2797
I1
sV\u8c03\u67e5\u62a5\u544a
p2798
I2
sV\u6d89\u4e8b
p2799
I2
sV\u5dee\u989d
p2800
I2
sV\u533a\u95f4
p2801
I4
sV\u51b3\u7b56\u8005
p2802
I4
sV\u529b\u91cf
p2803
I9
sV\u80cc\u79bb
p2804
I2
sV\u79d1\u7814
p2805
I1
sV\u80a1\u6743
p2806
I5
sV\u585e\u897f
p2807
I1
sV\u62a4\u7406
p2808
I1
sV\u524d\u884c
p2809
I1
sV\u51fb\u6bd9
p2810
I1
sV\u6b27\u6d32\u4eba
p2811
I4
sV\u65e7\u91d1\u5c71\u6e7e
p2812
I1
sV\u5b97\u65e8
p2813
I1
sV\u5730\u7403
p2814
I1
sV\u603b\u7406
p2815
I29
sV\u65e7\u5f0f
p2816
I1
sV\u4f8b\u4f1a
p2817
I1
sV\u8f66\u724c
p2818
I1
sV\u9510\u51cf
p2819
I3
sV\u56fd\u9645\u6cd5
p2820
I1
sV\u8dcc\u5165
p2821
I1
sV\u5c55\u5f00\u8ba8\u8bba
p2822
I1
sV\u8461\u8404\u7c7d
p2823
I1
sV\u6536\u8d2d
p2824
I14
sV\u683c\u529b
p2825
I1
sV\u56fd\u9645\u539f\u5b50\u80fd\u673a\u6784
p2826
I1
sV\u6b27\u7f8e\u56fd\u5bb6
p2827
I1
sV\u4eb2\u4eba
p2828
I1
sV\u8bc4\u5956
p2829
I1
sV\u6536\u8d39
p2830
I2
sV\u4e92\u5229
p2831
I6
sV\u52a9\u529b
p2832
I5
sV\u79fb\u6c11\u5c40
p2833
I1
sV\u9009\u77ff
p2834
I1
sV\u62d2\u7edd
p2835
I7
sV\u6b22\u8fce
p2836
I16
sV\u514d\u4e8e
p2837
I1
sV\u50f5\u5c40
p2838
I2
sV\u91cd\u6f14
p2839
I1
sV\u4eea\u5f0f
p2840
I6
sV\u4e0d\u516c
p2841
I1
sV\u5947\u602a
p2842
I1
sV\u5927\u5988
p2843
I1
sV\u4e92\u9274
p2844
I1
sV\u6df7\u5165
p2845
I1
sV\u8ba2\u8d27
p2846
I1
sV\u9519\u914d
p2847
I2
sV\u8001\u9f20
p2848
I1
sV\u62cd\u9a6c
p2849
I1
sV\u6cf0\u5b81
p2850
I1
sV\u5929\u5175
p2851
I1
sV\u5956\u91d1
p2852
I3
sV\u7259\u4e70\u52a0
p2853
I1
sV\u914d\u4ef6
p2854
I2
sV\u9f99\u5ddd
p2855
I1
sV\u5c31\u4e1a\u4eba\u6570
p2856
I4
sV\u4e8b\u4e1a\u90e8
p2857
I1
sV\u8d1f\u9762\u6548\u5e94
p2858
I2
sV\u914b\u957f
p2859
I2
sV\u653f\u5ba2
p2860
I2
sV\u7c97\u7565
p2861
I1
sV\u7406\u5ff5
p2862
I3
sV\u8dcc\u4ef7
p2863
I1
sV\u611f\u5230
p2864
I15
sV\u515a\u56e2
p2865
I1
sV\u76d1\u7ba1\u5c40
p2866
I1
sV\u8bb2\u89e3
p2867
I1
sV\u6d89\u8db3
p2868
I3
sV\u5e2e\u6276
p2869
I1
sV\u9632\u536b
p2870
I2
sV\u5730\u7406\u73af\u5883
p2871
I1
sV\u6301\u7eed\u4fdd\u6301
p2872
I1
sV\u5de9\u56fa
p2873
I2
sV\u60e9\u7f5a\u6027
p2874
I1
sV\u65c5\u9986
p2875
I1
sV\u7425\u916f
p2876
I1
sV\u4ee3\u7406
p2877
I1
sV\u4f20\u7edf\u4ea7\u4e1a
p2878
I1
sV\u963b\u6b62
p2879
I7
sV\u5965\u53e4\u65af\u90fd
p2880
I1
sV\u4fe1\u4ef6
p2881
I2
sV\u8dfb\u8eab
p2882
I1
sV\u7248\u6743
p2883
I1
sV\u4fe1\u4efb
p2884
I2
sV\u5438\u6536
p2885
I3
sV\u4e92\u52a9
p2886
I1
sV\u6d88\u8d39
p2887
I43
sV\u964d\u4f4e\u6210\u672c
p2888
I1
sV\u63a8\u8350
p2889
I3
sV\u6539\u89c2
p2890
I1
sV\u6297\u8fa9
p2891
I1
sV\u51dd\u6790\u6cb9
p2892
I1
sV\u5a5a\u793c
p2893
I1
sV\u7f6a\u540d
p2894
I2
sV\u5409\u5229
p2895
I2
sV\u5976\u5236\u54c1
p2896
I3
sV\u8bae\u6848
p2897
I2
sV\u5403\u6389
p2898
I1
sV\u8ffd\u8d76
p2899
I1
sV\u540d\u6821
p2900
I2
sV\u9876\u5c16
p2901
I3
sV\u4f53\u80b2\u4ea7\u4e1a
p2902
I1
sV\u77f3\u6cb9\u5371\u673a
p2903
I2
sV\u4e2d\u62c9
p2904
I4
sV\u56fd\u9645\u91d1\u878d
p2905
I4
sV\u63aa\u8f9e
p2906
I1
sV\u767d\u8840\u75c5
p2907
I2
sV\u520a\u767b
p2908
I2
sV\u6982\u5ff5\u8f66
p2909
I1
sV\u53d9\u5229\u4e9a\u4eba
p2910
I1
sV\u4fdd\u65b9
p2911
I1
sV\u7740\u4e2d
p2912
I1
sV\u963f\u5c14\u53ca\u5229\u4e9a
p2913
I1
sV\u8d8b\u5411
p2914
I2
sV\u54b8\u955c\u5317\u9053
p2915
I1
sV\u6587\u672c
p2916
I3
sV\u4f4f\u5b85
p2917
I4
sV\u9e2d\u7eff\u6c5f
p2918
I1
sV\u804c\u5de5
p2919
I1
sV\u57f9\u8bad
p2920
I4
sV\u9500\u552e\u7a0e
p2921
I2
sV\u6210\u4e3a
p2922
I112
sV\u5a5a\u59fb\u5bb6\u5ead
p2923
I1
sV\u514b\u5236
p2924
I3
sV\u81f4\u529b\u4e8e
p2925
I11
sV\u52df\u96c6
p2926
I1
sV\u4fe1\u7528\u7b49\u7ea7
p2927
I1
sV\u610f\u5473
p2928
I2
sV\u628a\u6301
p2929
I1
sV\u8c46\u9171
p2930
I1
sV\u4f20\u5947
p2931
I2
sV\u7eaa\u5f55
p2932
I6
sV\u9ad8\u5ea6
p2933
I11
sV\u4f4e\u6536\u5165
p2934
I1
sV\u6709\u522b\u4e8e
p2935
I1
sV\u63a8\u6d4b
p2936
I1
sV\u673a\u4f1a
p2937
I25
sV\u574f\u8d26
p2938
I1
sV\u7b14\u8005
p2939
I2
sV\u65b9\u6cd5
p2940
I8
sV\u540e\u7eed
p2941
I3
sV\u786c\u5e01
p2942
I2
sV\u5546\u4e1a
p2943
I27
sV\u8fce\u63a5
p2944
I2
sV\u52a0\u73ed\u8d39
p2945
I1
sV\u524d\u4efb
p2946
I2
sV\u53e3\u888b
p2947
I2
sV\u4e0d\u53ef
p2948
I4
sV\u4eae\u76f8
p2949
I2
sV\u6267\u884c\u529b
p2950
I1
sV\u6816\u606f\u5730
p2951
I1
sV\u63f4\u52a9
p2952
I14
sV\u53d7\u8bbf
p2953
I4
sV\u64cd\u4f5c
p2954
I2
sV\u8f93\u5f80
p2955
I1
sV\u610f\u5411
p2956
I8
sV\u51b2\u7a81
p2957
I14
sV\u63d0\u540d
p2958
I4
sV\u7eaa\u5ff5
p2959
I1
sV\u652f\u4ed8
p2960
I22
sV\u5fc3\u7406
p2961
I1
sV\u597d\u6d88\u606f
p2962
I1
sV\u9075\u5b88
p2963
I7
sV\u7f13\u89e3
p2964
I9
sV\u521b\u51fa
p2965
I4
sV\u75c5\u6e90
p2966
I1
sV\u5931\u4e1a\u7387
p2967
I19
sV\u771f\u4e3b
p2968
I1
sV\u5316\u5b66
p2969
I1
sV\u5ba1\u7406
p2970
I1
sV\u6c99\u6f20
p2971
I1
sV\u5168\u56fd
p2972
I16
sV\u589e\u5e45
p2973
I11
sV\u83b7\u53d6
p2974
I1
sV\u81ea\u7531\u5e02\u573a
p2975
I1
sV\u7f13\u51b2
p2976
I3
sV\u80fd\u6e90\u6280\u672f
p2977
I1
sV\u4e0d\u592a\u4f1a
p2978
I1
sV\u653f\u5c40
p2979
I2
sV\u7ae0\u8282
p2980
I1
sV\u5927\u5e73
p2981
I1
sV\u798f\u5229
p2982
I2
sV\u503c\u5f97
p2983
I9
sV\u4f4d\u7f6e
p2984
I6
sV\u5bfb\u627e
p2985
I8
sV\u7591\u96be
p2986
I1
sV\u5171\u540c\u4f53
p2987
I5
sV\u793a\u51fa
p2988
I1
sV\u6d1b\u514b
p2989
I2
sV\u5546\u4e8b
p2990
I1
sV\u5927\u8dcc
p2991
I16
sV\u5305\u542b
p2992
I3
sV\u4e22\u5f03
p2993
I1
sV\u5de5\u4e1a\u56ed\u533a
p2994
I1
sV\u5438\u5f15\u529b
p2995
I8
sV\u4fdd\u62a4
p2996
I22
sV\u4e8b\u4e1a
p2997
I3
sV\u77f3\u6cb9\u90e8\u957f
p2998
I1
sV\u628a\u63e1
p2999
I2
sV\u8131\u79bb
p3000
I1
sV\u5bfc\u81f4
p3001
I80
sV\u76c8\u4f59
p3002
I7
sV\u6267\u653f\u515a
p3003
I1
sV\u7ed3\u7b97
p3004
I5
sV\u72af\u7f6a\u5206\u5b50
p3005
I1
sV\u89e3\u8bfb
p3006
I5
sV\u975e\u7f8e
p3007
I1
sV\u79ef\u6512
p3008
I1
sV\u975e\u6d32\u5927\u9646
p3009
I1
sV\u5f97\u514b\u8428\u65af\u5dde
p3010
I1
sV\u52c9\u5f3a
p3011
I2
sV\u94dd\u571f\u77ff
p3012
I1
sV\u5927\u5b66\u751f
p3013
I2
sV\u673a\u4e0a
p3014
I1
sV\u84dd\u8272
p3015
I2
sV\u8d22\u5bcc
p3016
I21
sV\u4fdd\u62a4\u4e3b\u4e49
p3017
I1
sV\u95e8\u7a97
p3018
I1
sV\u65a9\u9996
p3019
I1
sV\u5e95\u4f4d
p3020
I1
sV\u539f\u672c
p3021
I4
sV\u8f93\u6cb9\u7ba1\u9053
p3022
I1
sV\u4e49\u52a1
p3023
I2
sV\u8bb0\u8d26
p3024
I1
sV\u76f8\u6bd4
p3025
I23
sV\u589e\u591a
p3026
I3
sV\u7126\u70b9
p3027
I3
sV\u5546\u4f1a
p3028
I1
sV\u83b7\u5229
p3029
I2
sV\u6b96\u6c11
p3030
I1
sV\u5730\u94c1
p3031
I2
sV\u4fdd\u6301
p3032
I27
sV\u4f20\u611f\u5668
p3033
I1
sV\u53d1\u8868
p3034
I34
sV\u673a\u6784
p3035
I43
sV\u8d8b\u52bf
p3036
I27
sV\u7126\u70ad
p3037
I1
sV\u5e7f\u5dde
p3038
I2
sV\u4ea4\u878d
p3039
I1
sV\u6d41\u51fa\u91cf
p3040
I1
sV\u94c1\u8f68
p3041
I1
sV\u9632\u957f
p3042
I1
sV\u51a0\u519b
p3043
I2
sV\u529e\u5c55
p3044
I1
sV\u53d1\u884c
p3045
I12
sV\u524d\u8fdb
p3046
I1
sV\u589e\u5927
p3047
I5
sV\u63a8\u4ecb\u4f1a
p3048
I1
sV\u66b4\u529b
p3049
I1
sV\u6293\u597d
p3050
I1
sV\u751f\u6d3b\u6c34\u51c6
p3051
I1
sV\u6cb9\u6f06
p3052
I1
sV\u5468\u5ea6
p3053
I1
sV\u53d8\u6210
p3054
I4
sV\u5145\u7535\u5f0f
p3055
I1
sV\u5174\u5efa
p3056
I3
sV\u6548\u679c
p3057
I4
sV\u5496\u5561\u9986
p3058
I1
sV\u6307\u51fa
p3059
I105
sV\u6b49\u6536
p3060
I1
sV\u54cd\u5e94
p3061
I1
sV\u6539\u8fdb
p3062
I3
sV\u4eae\u773c
p3063
I1
sV\u62c9\u897f\u4e9a
p3064
I1
sV\u6350\u8d60\u8005
p3065
I1
sV\u80dc\u5229
p3066
I3
sV\u601d\u79d1
p3067
I1
sV\u7a81\u7834\u53e3
p3068
I1
sV\u6076\u6027
p3069
I1
sV\u6bcd\u8bed
p3070
I1
sV\u957f\u4e45\u6027
p3071
I1
sV\u80a1\u606f
p3072
I4
sV\u6c47\u603b
p3073
I2
sV\u7ec8\u6781
p3074
I2
sV\u4ec1\u5ddd
p3075
I1
sV\u86cb\u767d
p3076
I1
sV\u529e\u516c\u5ba4
p3077
I4
sV\u8fd0\u8f93\u673a
p3078
I1
sV\u79d1\u6280\u4ea7\u4e1a
p3079
I1
sV\u6708\u4efd
p3080
I59
sV\u8d77\u964d
p3081
I1
sV\u89c4\u5212\u7f72
p3082
I1
sV\u529b\u56fe
p3083
I1
sV\u7f51\u5740
p3084
I1
sV\u5229\u76ca
p3085
I19
sV\u4e0a\u5468\u4e94
p3086
I8
sV\u626d\u66f2
p3087
I2
sV\u672c\u62a5\u8bb0\u8005
p3088
I6
sV\u4e2d\u4e9a\u5730\u533a
p3089
I3
sV\u8170\u65a9
p3090
I2
sV\u5ba1\u8bae\u5b98
p3091
I1
sV\u5706\u684c\u4f1a\u8bae
p3092
I1
sV\u5934\u6761
p3093
I2
sV\u8868\u793a
p3094
I273
sV\u5168\u573a
p3095
I1
sV\u77e5\u8bc6
p3096
I6
sV\u51fa\u7968
p3097
I1
sV\u5b9a\u4e49
p3098
I1
sV\u5546\u6807
p3099
I2
sV\u519b\u961f
p3100
I1
sV\u91d1\u878d\u5bb6
p3101
I1
sV\u5df4\u9ece
p3102
I17
sV\u5229\u7528
p3103
I14
sV\u70b9\u51fb
p3104
I2
sV\u4e3b\u56e0
p3105
I1
sV\u52b3\u52a8\u8005
p3106
I3
sV\u6551\u52a9
p3107
I10
sV\u53f7\u4e3a
p3108
I1
sV\u8df3\u821e
p3109
I1
sV\u4e3b\u6743
p3110
I9
sV\u4f8b\u8bc1
p3111
I2
sV\u65f6\u523b
p3112
I5
sV\u65b0\u4f4e
p3113
I10
sV\u98de\u901f
p3114
I2
sV\u5927\u5c9b
p3115
I1
sV\u52a0\u91cc
p3116
I1
sV\u6df7\u5408
p3117
I3
sV\u5229\u7387\u653f\u7b56
p3118
I4
sV\u6bd2\u54c1
p3119
I2
sV\u897f\u5b89
p3120
I1
sV\u7b79\u5907\u5de5\u4f5c
p3121
I1
sV\u53d1\u52a8\u673a
p3122
I2
sV\u89c2\u5bdf\u5bb6
p3123
I1
sV\u5408\u4f5c\u9879\u76ee
p3124
I4
sV\u50a8\u5907\u57fa\u91d1
p3125
I3
sV\u5ba3\u626c
p3126
I1
sV\u63d0\u793a
p3127
I1
sV\u5fae\u89c2
p3128
I1
sV\u4e2d\u82f1\u5173\u7cfb
p3129
I7
sV\u73b0\u573a\u91c7\u8bbf
p3130
I1
sV\u8d38\u6613
p3131
I96
sV\u505c\u804c
p3132
I1
sV\u63cf\u8ff0
p3133
I1
sV\u589e\u503c
p3134
I1
sV\u5173\u7cfb\u6076\u5316
p3135
I1
sV\u653f\u5e9c
p3136
I112
sV\u7b97\u672f\u9898
p3137
I1
sV\u51b2\u7ef3
p3138
I2
sV\u5e72\u7ebf
p3139
I1
sV\u80dc\u51fa
p3140
I1
sV\u72ec\u5bb6
p3141
I3
sV\u8463\u4f1a
p3142
I2
sV\u767e\u4e07\u5bcc\u7fc1
p3143
I1
sV\u59d4\u5458\u4f1a
p3144
I39
sV\u5b9a\u4e3a
p3145
I1
sV\u4e2d\u503c
p3146
I3
sV\u5916\u4ea4\u5173\u7cfb
p3147
I1
sV\u7834\u89e3
p3148
I1
sV\u9ec4\u91d1\u6c34\u9053
p3149
I1
sV\u8001\u4e00\u8f88
p3150
I1
sV\u7b79\u63aa
p3151
I1
sV\u8fdb\u5c55
p3152
I14
sV\u52a0\u5165
p3153
I35
sV\u63a7\u5236\u6743
p3154
I1
sV\u610f\u56fe
p3155
I1
sV\u8ba9\u4f60\u5728
p3156
I1
sV\u770b\u51fa
p3157
I1
sV\u5bcc\u56fd
p3158
I1
sV\u4e92\u8865\u6027
p3159
I3
sV\u622a\u6b62
p3160
I6
sV\u4e24\u4ef6\u4e8b
p3161
I1
sV\u80a1\u6307
p3162
I4
sV\u7ecf\u7406
p3163
I5
sV\u5f62\u5f0f
p3164
I6
sV\u5f3a\u6709\u529b
p3165
I1
sV\u770b\u91cd
p3166
I1
sV\u966a\u540c
p3167
I2
sV\u51fa\u8272
p3168
I1
sV\u5168\u8c8c
p3169
I1
sV\u5b9a\u4ef7
p3170
I5
sV\u516c\u53f8
p3171
I130
sV\u897f\u975e\u5730\u533a
p3172
I1
sV\u5730\u5757
p3173
I1
sV\u9ad8\u5c42
p3174
I7
sV\u97f3\u8bd1
p3175
I1
sV\u6ee8\u6d77
p3176
I2
sV\u5192\u724c
p3177
I1
sV\u95e8\u7968
p3178
I1
sV\u5bb6\u7535\u4ea7\u54c1
p3179
I1
sV\u8d39\u94b1
p3180
I1
sV\u7ecf\u6d4e\u793e\u4f1a
p3181
I1
sV\u4e09\u8005
p3182
I1
sV\u767b\u5f55
p3183
I1
sV\u91dc\u5c71
p3184
I1
sV\u76f8\u53cd
p3185
I5
sV\u60a3\u75c5
p3186
I1
sV\u5de8\u5927\u635f\u5931
p3187
I1
sV\u751f\u4ea7\u8005
p3188
I3
sV\u590d\u5ba1
p3189
I1
sV\u516c\u6295
p3190
I2
sV\u4e2d\u6807
p3191
I2
sV\u5c55\u89c8\u4e1a
p3192
I1
sV\u51f8\u663e\u51fa
p3193
I1
sV\u9014\u89c2
p3194
I1
sV\u6c34\u6ce5\u5382
p3195
I1
sV\u6307\u5357
p3196
I1
sV\u5b9a\u4f4d
p3197
I2
sV\u94c1\u77ff\u77f3
p3198
I17
sV\u5f97\u540d
p3199
I1
sV\u4e24\u56fd\u4eba\u6c11
p3200
I3
sV\u4e2a\u4eba\u6536\u5165
p3201
I1
sV\u8f9e\u5448
p3202
I1
sV\u4f5c\u8005
p3203
I3
sV\u4e9a\u592a\u533a
p3204
I1
sV\u80fd\u6e90\u4f9b\u5e94
p3205
I1
sV\u82f1\u7f8e
p3206
I2
sV\u56fd\u5e94
p3207
I1
sV\u56fd\u5e93
p3208
I1
sV\u8ba2\u5355
p3209
I8
sV\u6c47\u6b3e
p3210
I1
sV\u5c0f\u5e45
p3211
I8
sV\u6295\u673a\u6027
p3212
I1
sV\u533a\u57df\u5f00\u53d1
p3213
I1
sV\u7a0e\u7387
p3214
I7
sV\u53d1\u8a00
p3215
I1
sV\u8d2d\u4e70
p3216
I30
sV\u6838\u8bd5\u9a8c
p3217
I1
sV\u901f\u5ea6
p3218
I18
sV\u6536\u76ca\u7387
p3219
I29
sV\u7f14\u7ed3
p3220
I2
sV\u4f11\u95f2\u6905
p3221
I1
sV\u610f\u5728
p3222
I2
sV\u65b0\u897f\u5170
p3223
I10
sV\u96f6\u552e\u989d
p3224
I1
sV\u793a\u8303\u6027
p3225
I1
sV\u964d\u81f3
p3226
I10
sV\u6295\u8d44\u6536\u76ca
p3227
I1
sV\u7834\u88c2
p3228
I5
sV\u6253\u98de
p3229
I1
sV\u65b9\u5f0f
p3230
I29
sV\u56de\u987e
p3231
I2
sV\u53c2\u5c55
p3232
I2
sV\u5546\u8d38
p3233
I2
sV\u60c5\u7eea
p3234
I7
sV\u5730\u56fe
p3235
I3
sV\u7981\u552e
p3236
I1
sV\u6218\u573a
p3237
I1
sV\u9c9c\u660e\u5bf9\u6bd4
p3238
I1
sV\u4ef7\u503c\u94fe
p3239
I1
sV\u6d3e\u53d1
p3240
I2
sV\u4e0a\u8bc1\u6307\u6570
p3241
I4
sV\u655e\u53e3
p3242
I3
sV\u5168\u8d44
p3243
I2
sV\u6e2d\u539f
p3244
I1
sV\u67aa\u51fb\u6848
p3245
I1
sV\u62a4\u7167
p3246
I2
sV\u751c\u83dc
p3247
I1
sV\u673a\u5bc6\u6587\u4ef6
p3248
I1
sV\u504f\u79bb
p3249
I1
sV\u6ce2\u53ca
p3250
I4
sV\u5b66\u672f\u4ea4\u6d41
p3251
I1
sV\u7591\u95ee
p3252
I1
sV\u4e2d\u7acb\u6d3e
p3253
I1
sV\u9a6c\u8033\u4ed6
p3254
I1
sV\u6210\u54c1\u6cb9
p3255
I1
sV\u8d1f\u9762\u5f71\u54cd
p3256
I5
sV\u672c\u8d28
p3257
I1
sV\u72d9\u51fb
p3258
I1
sV\u623f\u5c4b
p3259
I2
sV\u8fde\u63a5
p3260
I8
sV\u5c6f\u7530
p3261
I1
sV\u6570\u5b57\u5316
p3262
I2
sV\u83dc\u5355
p3263
I1
sV\u5386\u53f2\u5b66
p3264
I1
sV\u4fef\u89c8
p3265
I1
sV\u5c0f\u9ea6
p3266
I2
sV\u8bba\u575b
p3267
I28
sV\u519c\u4e1a
p3268
I23
sV\u624b\u7eed
p3269
I1
sV\u5f62\u5bb9\u8bcd
p3270
I1
sV\u5fc3\u810f\u75c5
p3271
I1
sV\u5750\u4e0b
p3272
I1
sV\u6ede\u80c0
p3273
I2
sV\u5317\u975e
p3274
I1
sV\u5408\u4f19\u4eba
p3275
I4
sV\u51c0\u5229\u6da6
p3276
I1
sV\u94bb\u53d6
p3277
I1
sV\u80ba\u764c
p3278
I1
sV\u8981\u65a5
p3279
I1
sV\u5fb7\u9c81
p3280
I1
sV\u79f0\u4e3a
p3281
I4
sV\u804c\u4e1a
p3282
I3
sV\u9e21\u86cb
p3283
I1
sV\u90e8\u95e8
p3284
I24
sV\u94c1\u8def
p3285
I27
sV\u77ff\u85cf
p3286
I1
sV\u540d\u6c14
p3287
I1
sV\u4e9a\u6d32\u5730\u533a
p3288
I5
sV\u5206\u4e00\u676f\u7fb9
p3289
I1
sV\u4e2d\u51b2
p3290
I1
sV\u5c0f\u5e97
p3291
I1
sV\u64ad\u653e
p3292
I1
sV\u52a0\u901f
p3293
I16
sV\u91d1\u878d\u673a\u6784
p3294
I13
sV\u53d1\u751f\u7387
p3295
I1
sV\u964d\u7ea7
p3296
I1
sV\u592b\u59bb\u4fe9
p3297
I1
sV\u5931\u8054
p3298
I1
sV\u6daa\u9675
p3299
I1
sVA\u578b
p3300
I1
sV\u9000\u9009
p3301
I1
sV\u6da8\u4ef7
p3302
I2
sV\u514d\u75ab
p3303
I1
sV\u501f\u6b3e\u4eba
p3304
I2
sV\u501f\u52a9\u4e8e
p3305
I1
sV\u519b\u56e2\u83cc
p3306
I1
sV\u9057\u5c5e
p3307
I1
sV\u897f\u91cc\u897f\u4e9a
p3308
I1
sV\u4eba\u53e3\u603b\u6570
p3309
I1
sV\u6c34\u5229\u7535\u529b
p3310
I1
sV\u9020\u8840
p3311
I1
sV\u6539\u826f
p3312
I1
sV\u6587\u5cf0
p3313
I1
sV\u6218\u7565\u4f19\u4f34
p3314
I1
sV\u6848\u4ef6
p3315
I5
sV\u4e0b\u6ed1
p3316
I33
sV\u53d1\u751f
p3317
I25
sV\u8425\u4e1a
p3318
I5
sV\u5916\u79fb
p3319
I1
sV\u957f\u671f\u6027
p3320
I2
sV\u89e6\u9876
p3321
I1
sV\u5956\u5f97\u4e3b
p3322
I2
sV\u4fe1\u7528
p3323
I6
sV\u751f\u6d3b\u7528\u54c1
p3324
I1
sV\u5efa\u9020
p3325
I7
sV\u54c1\u724c
p3326
I14
sV\u4e1c\u5357\u4e9a
p3327
I7
sV\u9650\u5ea6
p3328
I1
sV\u5355\u65e5
p3329
I1
sV\u7535\u7f51
p3330
I1
sV\u8e0f\u4e0a
p3331
I1
sV\u76f4\u8fbe
p3332
I1
sV\u571f\u52fa
p3333
I1
sV\u65e5\u7a0b
p3334
I1
sV\u6f2b\u957f
p3335
I2
sV\u67e5\u7406
p3336
I3
sV\u4e0a\u79f0
p3337
I3
sV\u8d44\u672c\u91d1
p3338
I2
sV\u63a5\u8fde
p3339
I2
sV\u951a\u70b9
p3340
I1
sV\u624b\u8155
p3341
I1
sV\u5e9f\u9664
p3342
I3
sV\u63a5\u8fd1
p3343
I23
sV\u56de\u6765
p3344
I1
sV\u5fc3\u7ed3
p3345
I1
sV\u5370\u4e2d
p3346
I1
sV\u5403\u7d27
p3347
I1
sV\u9996\u5bcc
p3348
I3
sV\u65e8\u5728
p3349
I9
sV\u4e86\u7ed3
p3350
I1
sV\u6295\u8d44\u51b3\u7b56
p3351
I1
sV\u5957\u5229
p3352
I1
sV\u82cf\u4e39
p3353
I2
sV\u610f\u5473\u7740
p3354
I52
sV\u4e0d\u957f
p3355
I1
sV\u65e0\u793c
p3356
I1
sV\u8d1f\u503c
p3357
I6
sV\u8d1f\u503a
p3358
I2
sV\u5df4\u65af
p3359
I1
sV\u6392\u653e\u7269
p3360
I1
sV\u76d1\u542c
p3361
I1
sV\u540d\u5355
p3362
I4
sV\u5ba1\u8ba1\u5de5\u4f5c
p3363
I1
sV\u515a\u6d3e
p3364
I1
sV\u534f\u4f1a\u4e3b\u5e2d
p3365
I1
sV\u8d27\u5e01
p3366
I84
sV\u7ecf\u6d4e\u90e8\u957f
p3367
I1
sV\u591a\u6781\u4e16\u754c
p3368
I1
sV\u89e3\u51b3\u95ee\u9898
p3369
I4
sV\u79bd\u6d41\u611f
p3370
I1
sV\u4f17\u8bae\u9662
p3371
I2
sV\u5377\u5165
p3372
I1
sV\u63a5\u8f68
p3373
I1
sV\u59a5\u5584\u5904\u7406
p3374
I1
sV\u5355\u6570
p3375
I1
sV\u96c7\u5458
p3376
I3
sV\u9999\u6c5f
p3377
I1
sV\u5165\u573a
p3378
I1
sV\u624b\u81c2
p3379
I1
sV\u5e72\u6563\u8d27
p3380
I1
sV\u89d2\u9010
p3381
I1
sV\u4f19\u4f34
p3382
I8
sV\u4ea4\u6613\u5458
p3383
I7
sV\u9738\u6743
p3384
I1
sV\u6536\u76ca
p3385
I8
sV\u70ed\u6f6e
p3386
I2
sV\u5b66\u9662
p3387
I7
sV\u5f31\u52bf
p3388
I1
sV\u5916\u6c47\u50a8\u5907
p3389
I13
sV\u6536\u76d8
p3390
I5
sV\u5e74\u91d1
p3391
I1
sV\u5f15\u51fa
p3392
I1
sV\u5927\u529b
p3393
I3
sV\u67f4\u6cb9\u8f66
p3394
I1
sV\u53d7\u76ca
p3395
I11
sV\u626b\u5893
p3396
I1
sV\u7ecf\u8425\u6743
p3397
I1
sV\u65a9\u65ad
p3398
I1
sV\u53cc\u5173
p3399
I1
sV\u9884\u6599
p3400
I1
sV\u5546\u4e1a\u5730\u4ea7
p3401
I1
sV\u4e00\u5206\u94b1
p3402
I1
sV\u53cd\u6d17\u94b1
p3403
I1
sV\u7981\u6b62
p3404
I7
sV\u5403\u996d
p3405
I1
sV\u6240\u77e5
p3406
I1
sV\u4ea7\u751f
p3407
I22
sV\u5e4c\u753a
p3408
I1
sV\u521b\u65b0\u6027
p3409
I1
sV\u4e2d\u56fd\u5d1b\u8d77
p3410
I2
sV\u540c\u8c0b
p3411
I1
sV\u9ed1\u6d1e
p3412
I1
sV\u53c2\u89c2
p3413
I2
sV\u90bb\u5c45
p3414
I2
sV\u4eba\u4eec
p3415
I33
sV\u9f13\u5439
p3416
I1
sV\u4f53\u73b0
p3417
I15
sV\u6f9c\u6ca7\u6c5f
p3418
I1
sV\u6295\u673a
p3419
I4
sV\u53cd\u8f6c
p3420
I3
sV\u5c31\u4e1a
p3421
I44
sV\u529f\u80fd
p3422
I4
sV\u7a7a\u5ba2
p3423
I2
sV\u91d1\u6e7e
p3424
I1
sV\u534f\u8c03\u5458
p3425
I1
sV\u53d8\u9769
p3426
I4
sV\u5927\u56fd
p3427
I19
sV\u516c\u6c11
p3428
I5
sV\u592a\u9633\u80fd
p3429
I5
sV\u4e2a\u90a6
p3430
I1
sV\u5224\u8d54
p3431
I1
sV\u7ec4\u6210
p3432
I7
sV\u5efa\u7b51\u4e1a
p3433
I1
sV\u6559\u80b2\u90e8\u95e8
p3434
I1
sV\u544a\u793a
p3435
I1
sV\u6cf0\u56fd
p3436
I19
sV\u7eba\u7ec7
p3437
I3
sV\u56fd\u60c5
p3438
I1
sV\u5267\u589e
p3439
I1
sV\u57c3\u5229\u4e9a
p3440
I1
sV\u8d62\u56de
p3441
I1
sV\u6c14\u53d8
p3442
I1
sV\u6b27\u6d32
p3443
I94
sV\u53d6\u5f97
p3444
I20
sV\u70df\u9152
p3445
I1
sV\u56de\u6696
p3446
I5
sV\u4e2d\u534e\u4eba\u6c11\u5171\u548c\u56fd
p3447
I2
sV\u4ea4\u6613
p3448
I45
sV\u4eba\u4e3a
p3449
I3
sV\u5f15\u5165
p3450
I5
sV\u5a5a\u59fb\u5236\u5ea6
p3451
I1
sV\u57c3\u585e\u4fc4\u6bd4\u4e9a
p3452
I2
sV\u8d70\u8dcc
p3453
I1
sV\u603b\u4f53
p3454
I14
sV\u5f62\u6001
p3455
I4
sV\u4e0a\u7834
p3456
I1
sV\u5c31\u4efb
p3457
I1
sV\u53cc\u91cd
p3458
I3
sV\u9e7f\u513f\u5c9b\u53bf
p3459
I1
sV\u57ce\u9645
p3460
I1
sV\u5df2\u6709
p3461
I4
sV\u6c42\u63f4
p3462
I1
sV\u5dde\u957f
p3463
I6
sV\u5bc6\u96c6\u578b
p3464
I1
sV\u4fa8\u754c
p3465
I1
sV\u7528\u54c1
p3466
I1
sV\u8001\u677f
p3467
I1
sV\u5438\u5f15
p3468
I19
sV\u4e4c\u9c81\u6728\u9f50
p3469
I2
sV\u65e0\u5e95\u6d1e
p3470
I1
sV\u9274\u5b9a
p3471
I1
sV\u6295\u8d44\u603b\u989d
p3472
I1
sV\u4eab\u8a89
p3473
I1
sV\u8ffd\u6c42
p3474
I2
sV\u60ca\u5413
p3475
I1
sV\u5144\u5f1f
p3476
I1
sV\u6572\u5b9a
p3477
I2
sV\u6d88\u6781\u5f71\u54cd
p3478
I1
sV\u5f97\u51fa
p3479
I3
sV\u8981\u5bb3
p3480
I1
sV\u9760\u8fd1
p3481
I3
sV\u51b3\u8bae
p3482
I7
sV\u4e2d\u6fb3
p3483
I6
sV\u9aa4\u5347
p3484
I1
sV\u4ea4\u6613\u5546
p3485
I1
sV\u8425\u8fd0
p3486
I2
sV\u6551\u6d4e
p3487
I3
sV\u9002\u9f84
p3488
I1
sV\u4eb2\u621a\u670b\u53cb
p3489
I1
sV\u5165\u95e8
p3490
I1
sV\u65b0\u5174\u56fd\u5bb6
p3491
I1
sV\u4e70\u623f\u8005
p3492
I1
sV\u51e1\u68ee\u95e8
p3493
I1
sV\u4e73\u5236\u54c1
p3494
I3
sV\u6e38\u4eba
p3495
I1
sV\u610f\u5411\u4e66
p3496
I1
sV\u52a0\u6df1
p3497
I2
sV\u5bb6\u5bb4
p3498
I1
sV\u83b1\u897f
p3499
I1
sV\u91cd\u9633
p3500
I1
sV\u79c9\u6301
p3501
I1
sV\u8725\u8734
p3502
I1
sV\u5df4\u897f\u5229\u4e9a
p3503
I2
sV\u5ba3\u5e03
p3504
I51
sV\u4e1c\u897f
p3505
I1
sV\u6e2f\u52a1\u5c40
p3506
I2
sV\u4e0b\u964d
p3507
I80
sV\u8ba4\u8bc1
p3508
I1
sV\u9996\u9970
p3509
I1
sV\u591a\u56fd
p3510
I1
sV\u4e0b\u9650
p3511
I3
sV\u652f\u6491
p3512
I21
sV\u95f2\u7f6e
p3513
I3
sV\u8d38\u6613\u91cf
p3514
I2
sV\u8fde\u5e26
p3515
I1
sV\u91c7\u53d6
p3516
I38
sV\u6c99\u91cc
p3517
I1
sV\u75c5\u5047
p3518
I1
sV\u7a0e\u4ee4
p3519
I1
sV\u7403\u573a
p3520
I1
sV\u79c1\u5954
p3521
I1
sV\u5f00\u7f5a
p3522
I1
sV\u65e0\u89c6
p3523
I1
sV\u900f\u9732
p3524
I18
sV\u663e\u793a
p3525
I67
sV\u963b\u529b
p3526
I2
sV\u6495\u6210
p3527
I1
sV\u89d2\u529b
p3528
I1
sV\u5929\u7136\u6c14
p3529
I23
sV\u8f6c\u5934
p3530
I1
sV\u963f\u8054\u914b
p3531
I8
sV\u6c11\u610f\u6d4b\u9a8c
p3532
I1
sV\u68c0\u6838
p3533
I1
sV\u58a8\u897f\u54e5
p3534
I13
sV\u50cf\u662f
p3535
I5
sV\u8fc8\u8fdb
p3536
I2
sV\u4e3b\u9898
p3537
I4
sV\u4eba\u8d28
p3538
I3
sV\u4e0d\u9760
p3539
I1
sV\u521b\u4e1a
p3540
I3
sV\u4e2d\u6cd5
p3541
I3
sV\u75ab\u82d7
p3542
I2
sV\u4fee\u8ba2\u672c
p3543
I1
sV\u521b\u4e0b
p3544
I17
sV\u5c45\u6c11
p3545
I8
sV\u4e0b\u56fe
p3546
I1
sV\u8d26\u5355
p3547
I1
sV\u9999\u6e2f
p3548
I19
sV\u4e2d\u6ce2
p3549
I1
sV\u96be\u6c11
p3550
I1
sV\u80b2\u513f
p3551
I1
sV\u521b\u4e3e
p3552
I1
sV\u57ce\u9547
p3553
I2
sV\u8def\u7ebf
p3554
I6
sV\u5907\u5fd8\u5f55
p3555
I11
sV\u5267\u60c5
p3556
I1
sV\u8fd8\u6b3e
p3557
I1
sV\u5355\u6708
p3558
I2
sV\u66b4\u6da8
p3559
I2
sV\u54e5\u65af\u8fbe\u9ece\u52a0
p3560
I1
sV\u90e8\u5206
p3561
I38
sV\u52a8\u673a
p3562
I1
sV\u5357\u5b81
p3563
I1
sV\u8c03\u8282
p3564
I2
sV\u770b\u6da8
p3565
I3
sV\u4fdd\u6301\u7a33\u5b9a
p3566
I1
sV\u5b66\u4e60
p3567
I4
sV\u90e8\u526f
p3568
I1
sV\u84dd\u7259
p3569
I1
sV\u5171\u8bc6
p3570
I18
sV\u626e\u6f14
p3571
I5
sV\u5361\u529b
p3572
I1
sV\u6db2\u6676
p3573
I3
sV\u5b9e\u65bd
p3574
I45
sV\u9009\u4e3e
p3575
I11
sV\u82b1\u8d39
p3576
I4
sV\u7406\u667a
p3577
I1
sV\u5229\u89d2
p3578
I1
sV\u9634\u5f71
p3579
I1
sV\u76f4\u998f\u6c7d\u6cb9
p3580
I1
sV\u533f\u540d
p3581
I1
sV\u6ce2\u9ed1
p3582
I1
sV\u82f1\u7279\u5c14
p3583
I1
sV\u91cd\u56de
p3584
I4
sV\u5355\u5e97
p3585
I1
sV\u62a5\u9053
p3586
I168
sV\u5ba1\u8ba1
p3587
I2
sV\u5b9a\u4ef7\u6743
p3588
I2
sV\u5f39\u836f
p3589
I1
sV\u4ea4\u6613\u65b9\u5f0f
p3590
I1
sV\u6cb3\u9053
p3591
I1
sV\u5f85\u9047
p3592
I2
sV\u751f\u513f\u80b2\u5973
p3593
I1
sV\u5ba1\u8bae
p3594
I4
sV\u653e\u5728
p3595
I4
sV\u504f\u8fdc\u5730\u533a
p3596
I1
sV\u884c\u52a8\u8ba1\u5212
p3597
I4
sV\u8d38\u6613\u90e8
p3598
I1
sV\u8d70\u4f4e
p3599
I11
sV\u9a7b\u5e95
p3600
I1
sV\u9996\u5e9c
p3601
I1
sV\u6930\u6cb9
p3602
I1
sV\u8d2d\u7269
p3603
I4
sV\u4ee5\u6c42
p3604
I1
sV\u79d1\u6280\u90e8
p3605
I1
sV\u8ba1\u7b97
p3606
I10
sV\u85aa\u8d44
p3607
I5
sV\u8bc1\u5238
p3608
I6
sV\u6c11\u65cf
p3609
I2
sV\u94a2\u94c1\u884c\u4e1a
p3610
I1
sV\u521b\u8fd1
p3611
I1
sV\u6295\u653e
p3612
I1
sV\u63a2\u7d22
p3613
I1
sV\u57fa\u8f9b\u683c
p3614
I3
sV\u4f1a\u6240
p3615
I1
sV\u6e56\u6cca
p3616
I1
sV\u518d\u6b21\u51fa\u73b0
p3617
I1
sV\u6548\u5e94
p3618
I21
sV\u725b\u5e02
p3619
I8
sV\u9152\u5427
p3620
I2
sV\u6b3e\u9879
p3621
I1
sV\u5173\u5fc3
p3622
I4
sV\u6bd4\u7d22
p3623
I5
sV\u4ea4\u6d41\u4f1a
p3624
I1
sV\u6000\u65e7
p3625
I1
sV\u4f9b\u5e94\u4ef7\u683c
p3626
I1
sV\u8dd1\u9053
p3627
I1
sV\u6253\u9020
p3628
I7
sV\u4e1b\u53f8
p3629
I2
sV\u63a8\u7b97
p3630
I2
sV\u6e2f\u80a1
p3631
I1
sV\u50a8\u5907\u91d1
p3632
I2
sV\u6f0f\u6d1e
p3633
I1
sV\u8d70\u5e73
p3634
I1
sV\u5efa\u7b51\u5de5\u4eba
p3635
I1
sV\u6280\u672f\u4eba\u5458
p3636
I2
sV\u592b\u4eba
p3637
I2
sV\u53d1\u7535
p3638
I2
sV\u8d70\u8fdb
p3639
I1
sV\u4fdd\u8bc1\u91d1
p3640
I2
sV\u9884\u671f
p3641
I72
sV\u65f6\u8bf4
p3642
I8
sV\u8d70\u8fc7
p3643
I1
sV\u5148\u9a71\u62a5
p3644
I1
sV\u5f00\u95f8
p3645
I1
sV\u5149\u5f69
p3646
I1
sV\u80a1\u5e02
p3647
I38
sV\u94fa\u5e73\u9053\u8def
p3648
I1
sV\u5177\u540d
p3649
I1
sV\u53cc\u53cd
p3650
I1
sV\u540c\u4e8b
p3651
I1
sV\u53d8\u4e3a
p3652
I2
sV\u5bc4\u51fa
p3653
I1
sV\u6728\u5bb6\u5177
p3654
I1
sV\u770b\u6cd5
p3655
I11
sV\u4f4e\u4ef7
p3656
I1
sV\u5c1d\u8bd5
p3657
I4
sV\u53d7\u7406
p3658
I1
sV\u62c5\u4efb
p3659
I9
sV\u706b\u7535\u7ad9
p3660
I1
sV\u5f81\u670d
p3661
I1
sV\u5355\u6676
p3662
I1
sV\u6e38\u51fb\u6218
p3663
I1
sV\u7b79\u5efa
p3664
I5
sV\u4e2a\u522b
p3665
I2
sV\u7a7a\u5934
p3666
I3
sV\u8d22\u653f
p3667
I26
sV\u8fea\u62dc
p3668
I6
sV\u91d1\u94b1
p3669
I2
sV\u4e0a\u7a7a
p3670
I1
sV\u652f\u6301
p3671
I67
sV\u673a\u5668\u4eba
p3672
I3
sV\u884c\u7a0b
p3673
I5
sV\u5efa\u5382
p3674
I1
sV\u505c\u8f66\u573a
p3675
I2
sV\u8d5e\u6bd4\u4e9a
p3676
I1
sV\u94c1\u77ff
p3677
I1
sV\u8054\u5408
p3678
I16
sV\u7ba1\u7406\u4f53\u7cfb
p3679
I1
sV\u504f\u822a
p3680
I1
sV\u82af\u7247
p3681
I2
sV\u900f\u5165
p3682
I1
sV\u7533\u8bf7\u8005
p3683
I1
sV\u5468\u671f\u6027
p3684
I2
sV\u5e7f\u64ad
p3685
I1
sV\u536b\u751f\u7528\u54c1
p3686
I1
sV\u5177\u6709
p3687
I32
sV\u601d\u8003
p3688
I1
sV\u8bbe\u8ba1
p3689
I7
sV\u81ea\u4f20
p3690
I1
sV\u6253\u901a
p3691
I1
sV\u5b9e\u9645\u6536\u5165
p3692
I1
sV\u4ee3\u8868\u56e2
p3693
I8
sV\u5211\u6cd5
p3694
I1
sV\u6b63\u5e38\u5316
p3695
I7
sV\u521b\u7eaa\u5f55
p3696
I6
sV\u767e\u59d3
p3697
I1
sV\u4f1a\u56e0
p3698
I1
sV\u7b79\u5907
p3699
I2
sV\u989d\u5ea6
p3700
I2
sV\u521b\u59cb\u4eba
p3701
I6
sV\u53eb\u505c
p3702
I1
sV\u51cf\u6392
p3703
I3
sV\u8d22\u62a5
p3704
I4
sV\u53d1\u6587
p3705
I2
sV\u73b0\u5b58
p3706
I1
sV\u589e\u5f3a
p3707
I14
sV\u6307\u6807
p3708
I12
sV\u5ba2\u8231
p3709
I1
sV\u548c\u89e3
p3710
I5
sV\u597d\u666f
p3711
I1
sV\u9501\u5b9a
p3712
I2
sV\u4f18\u5316
p3713
I1
sV\u65b9\u9488
p3714
I1
sV\u4e89\u593a
p3715
I3
sV\u5168\u7403\u5316
p3716
I7
sV\u507f\u4ed8
p3717
I2
sV\u52ab\u532a
p3718
I1
sV\u83f2\u5f8b\u5bbe
p3719
I5
sV\u7167\u4f1a
p3720
I1
sV\u603b\u4f53\u89c4\u5212
p3721
I1
sV\u73af\u7403\u65f6\u62a5
p3722
I15
sV\u6d77\u8fd0
p3723
I7
sV\u8f6c\u5f3a
p3724
I1
sV\u98de\u5165
p3725
I1
sV\u5386\u53f2\u6027
p3726
I2
sV\u4f4e\u7aef
p3727
I1
sV\u5468\u8fb9\u56fd\u5bb6
p3728
I1
sV\u4e00\u4e8b
p3729
I4
sV\u7b49\u4e8e
p3730
I1
sV\u73b0\u5b9e
p3731
I5
sV\u5021\u8bae
p3732
I8
sV\u7f8e\u5bb9
p3733
I2
sV\u9636\u6bb5
p3734
I8
sV\u6ca1\u6536
p3735
I1
sV\u6709\u7740
p3736
I7
sV\u533b\u836f
p3737
I1
sV\u6d88\u8d39\u5e02\u573a
p3738
I1
sV\u8fd4\u56de
p3739
I2
sV\u72b6\u6001
p3740
I11
sV\u50a8\u5b58
p3741
I1
sV\u5165\u534e
p3742
I1
sV\u6240\u5f97\u7a0e
p3743
I2
sV\u897f\u73ed\u7259
p3744
I5
sV\u964d\u7a0e
p3745
I1
sV\u51cf\u6301
p3746
I3
sV\u5de8\u91cf
p3747
I1
sV\u7b54\u6848
p3748
I1
sV\u7406\u6027
p3749
I3
sV\u65b0\u673a\u9047
p3750
I2
sV\u5408\u7ea6
p3751
I8
sV\u8ba4\u8d2d
p3752
I1
sV\u8749\u8054
p3753
I2
sV\u60f3\u6cd5
p3754
I4
sV\u53d6\u7ecf
p3755
I1
sV\u519c\u6797\u6c34\u4ea7
p3756
I1
sV\u5199\u9053
p3757
I12
sV\u53c2\u6218
p3758
I1
sV\u81ea\u4fe1
p3759
I1
sV\u519c\u7530
p3760
I2
sV\u77f3\u6cb9\u8f93\u51fa
p3761
I3
sV\u65a5\u8d44
p3762
I4
sV\u8feb\u8fd1
p3763
I2
sV\u6765\u6e90
p3764
I5
sV\u8d38\u6613\u5f80\u6765
p3765
I2
sV\u65b9\u5411
p3766
I11
sV\u6cf0\u4e2d
p3767
I1
sV\u7279\u8d28
p3768
I1
sV\u81ea\u4e3b
p3769
I7
sV\u56fd\u9645\u6536\u652f
p3770
I3
sV\u987e\u95ee\u516c\u53f8
p3771
I1
sV\u82b1\u843d
p3772
I1
sV\u7533\u7acb
p3773
I1
sV\u6709\u76ca
p3774
I3
sV\u503a\u5e02
p3775
I6
sV\u6392\u5728
p3776
I2
sV\u524d\u77bb
p3777
I2
sV\u7d2f\u79ef
p3778
I2
sV\u7ecf\u6d4e\u8fd0\u884c
p3779
I4
sV\u4e2d\u6b62
p3780
I2
sV\u8206\u8bba
p3781
I1
sV\u603b\u88c1
p3782
I13
sV\u8f68\u9053\u4ea4\u901a
p3783
I4
sV\u9488\u5bf9\u6027
p3784
I3
sV\u51fa\u79df\u8f66
p3785
I4
sV\u6f6e\u6d41
p3786
I2
sV\u7b7e\u8bc1
p3787
I4
sV\u5168\u7701
p3788
I1
sV\u5bf9\u5e94
p3789
I3
sV\u5c3e\u53f7
p3790
I1
sV\u573a\u666f
p3791
I1
sV\u6c7d\u8f66\u8d37\u6b3e
p3792
I1
sV\u6c47\u5151
p3793
I2
sV\u6291\u5236
p3794
I10
sV\u7814\u7a76
p3795
I58
sV\u672a\u83b7
p3796
I1
sV\u4e3a\u6b62
p3797
I2
sV\u6e44\u516c\u6cb3
p3798
I2
sV\u603b\u8ba1
p3799
I3
sV\u97e9\u4e2d
p3800
I1
sV\u8054\u52a8
p3801
I2
sV\u6392\u540d
p3802
I9
sV\u5d1b\u8d77
p3803
I5
sV\u7b7e\u8ba2
p3804
I14
sV\u4f7f\u56e2
p3805
I1
sV\u6269\u4ea7
p3806
I1
sV\u89c1\u4e60
p3807
I2
sV\u4e2d\u6b27
p3808
I9
sV\u516c\u4fe1\u529b
p3809
I1
sV\u822a\u7a7a\u5de5\u4e1a
p3810
I1
sV\u51b2\u51fb\u6ce2
p3811
I1
sV\u507f\u8fd8
p3812
I7
sV\u95ef\u5165
p3813
I1
sV\u9996\u5e2d
p3814
I30
sV\u7528\u9014
p3815
I2
sV\u4ea4\u6613\u91cf
p3816
I2
sV\u4fb5\u72af
p3817
I3
sV\u5168\u7403\u80a1\u5e02
p3818
I5
sV\u770b\u4e0d\u5230
p3819
I3
sV\u8eab\u4e3a
p3820
I1
sV\u62c9\u9762
p3821
I1
sV\u4e73\u4e1a
p3822
I1
sV\u6570\u767e\u4eba
p3823
I1
sV\u6ef4\u9732
p3824
I1
sV\u8b66\u793a
p3825
I1
sV\u6267\u884c\u957f
p3826
I1
sV\u89c2\u5149
p3827
I1
sV\u8c37\u7269
p3828
I3
sV\u4fdd\u5bc6
p3829
I1
sV\u8f6c\u8ba9
p3830
I1
sV\u670d\u5f79
p3831
I1
sV\u507f\u8fd8\u503a\u52a1
p3832
I3
sV\u64a4\u8d70
p3833
I1
sV\u4f20\u60c5
p3834
I1
sV\u81f3\u4eb2
p3835
I1
sV\u64a4\u8d44
p3836
I1
sV\u4f1a\u9762
p3837
I3
sV\u571f\u5730
p3838
I9
sV\u5370\u5ea6
p3839
I58
sV\u6668\u62a5
p3840
I1
sV\u56de\u62a5
p3841
I6
sV\u8eab\u4efd
p3842
I7
sV\u8eab\u5bb6
p3843
I2
sV\u7279\u7ea6\u8bb0\u8005
p3844
I4
sV\u90e8\u957f
p3845
I17
sV\u4ef7\u6bd4\u9ad8
p3846
I1
sV\u4e1c\u4e9a
p3847
I2
sV\u5546\u4e1a\u5316
p3848
I3
sV\u7701\u957f
p3849
I2
sV\u57fa\u70b9
p3850
I9
sV\u6cd5\u89c4
p3851
I1
sV\u5e74\u7387
p3852
I2
sV\u5357\u5c9b
p3853
I1
sV\u4fdd\u5b88
p3854
I1
sV\u8f7f\u8f66
p3855
I1
sV\u6362\u8840
p3856
I1
sV\u5bb6\u5c45
p3857
I1
sV\u9996\u5ea6
p3858
I2
sV\u5317\u6d77
p3859
I1
sV\u4eba\u53e3\u8001\u9f84\u5316
p3860
I2
sV\u8499\u53e4\u56fd
p3861
I1
sV\u91cd\u91d1
p3862
I1
sV\u4f18\u52bf
p3863
I12
sV\u4f1a\u573a
p3864
I2
sV\u5047\u8bbe
p3865
I3
sV\u4eba\u8d28\u4e8b\u4ef6
p3866
I1
sV\u4e1c\u4eac
p3867
I7
sV\u52a8\u6001
p3868
I1
sV\u94f6\u884c\u5229\u7387
p3869
I1
sV\u7535\u8bdd\u4f1a\u8bae
p3870
I2
sV\u6d6e\u76c8
p3871
I1
sV\u672a\u80fd
p3872
I13
sV\u4f18\u5148
p3873
I4
sV\u4f4e\u786b
p3874
I1
sV\u8def\u7a0b
p3875
I2
sV\u83ab\u6c49
p3876
I1
sV\u51c6\u786e\u6027
p3877
I1
sV\u822a\u73ed
p3878
I4
sV\u7387\u6bd4
p3879
I1
sV\u91d1\u878d\u5e02\u573a
p3880
I27
sV\u5951\u7ea6
p3881
I1
sV\u654c\u56fd
p3882
I1
sV\u73b0\u91d1\u989d
p3883
I1
sV\u62d6\u6b20
p3884
I2
sV\u798f\u5854\u83b1\u8428
p3885
I2
sV\u77f3\u6cb9\u5e02\u573a
p3886
I1
sV\u97e9\u4e09\u56fd
p3887
I1
sV\u9884\u62a5
p3888
I1
sV\u5929\u6c14
p3889
I9
sV\u7ef4\u591a\u5229\u4e9a
p3890
I2
sV\u4e9a\u592a\u5730\u533a
p3891
I7
sV\u6750\u6599
p3892
I2
sV\u603b\u88c5
p3893
I1
sV\u5e02\u573a\u51c6\u5165
p3894
I4
sV\u503e\u9500
p3895
I2
sV\u5168\u7403
p3896
I273
sV\u4e0d\u5931\u4e3a
p3897
I1
sV\u901a\u884c\u8d39
p3898
I1
sV\u4e0d\u53d8
p3899
I8
sV\u91cd\u521b
p3900
I4
sV\u975e\u6d32\u4eba
p3901
I1
sV\u7c97\u7cae
p3902
I1
sV\u7535\u8111
p3903
I1
sV\u6e21\u8f6e
p3904
I1
sV\u7ebd\u7ea6
p3905
I22
sV\u57fa\u91d1\u4f1a
p3906
I5
sV\u591a\u52a0
p3907
I1
sV\u7167\u7247
p3908
I1
sV\u51cf\u5c11
p3909
I39
sV\u6295\u8d44\u8005
p3910
I87
sV\u80fd\u8dcc
p3911
I1
sV\u4e2d\u6838
p3912
I1
sV\u53d1\u73b0
p3913
I11
sV\u65f6\u4ee3
p3914
I18
sV\u8fde\u9501\u5e97
p3915
I2
sV\u767b\u673a
p3916
I1
sV\u5c45\u6807
p3917
I1
sV\u7b14\u8bb0\u672c
p3918
I1
sV\u5934\u7b49\u8231
p3919
I1
sV\u6807\u51c6
p3920
I23
sV\u4e3e\u63aa
p3921
I7
sV\u9020\u4ef7
p3922
I2
sV\u6ce8\u5165
p3923
I8
sV\u8d28\u8be2
p3924
I1
sV\u542f\u7a0b
p3925
I1
sV\u65f6\u4efb
p3926
I3
sV\u574f\u5b69\u5b50
p3927
I1
sV\u604b\u4eba
p3928
I1
sV\u6d88\u6781
p3929
I1
sV\u8fd0\u8425\u5b98
p3930
I1
sV\u57fa\u7840\u8bbe\u65bd
p3931
I77
sV\u6fb3\u5927\u5229\u4e9a
p3932
I43
sV\u6807\u51fa
p3933
I1
sV\u5b9e\u9645
p3934
I20
sV\u7f79\u60a3
p3935
I2
sV\u65e0\u7f1d
p3936
I1
sV\u5f69\u5238
p3937
I1
sV\u4e34\u754c\u70b9
p3938
I1
sV\u65b0\u673a\u5236
p3939
I1
sV\u5766\u767d
p3940
I1
sV\u5370\u5ea6\u5362\u6bd4
p3941
I4
sV\u521d\u88c1
p3942
I2
sV\u67ec\u57d4\u5be8
p3943
I2
sV\u9000\u56de
p3944
I1
sV\u68ee\u6797
p3945
I3
sV\u62a5\u544a
p3946
I95
sV\u4f1a\u5426
p3947
I1
sV\u5730\u7406\u5b66
p3948
I1
sV\u8d4c\u4e0a
p3949
I1
sV\u5f97\u514b\u8428\u65af
p3950
I3
sV\u56fd\u9645\u6807\u51c6
p3951
I3
sV\u7ed3\u6784\u6027
p3952
I14
sV\u8f6e\u503c
p3953
I5
sV\u90ae\u4ef6
p3954
I2
sV\u6d88\u706d
p3955
I2
sV\u50a8\u5907
p3956
I21
sV\u4eba\u6c11\u5e01
p3957
I77
sV\u5a31\u4e50
p3958
I1
sV\u9020\u8f66
p3959
I1
sV\u6258\u5e02
p3960
I1
sV\u5de2\u4e2d
p3961
I1
sV\u5bb6\u5ead
p3962
I15
sV\u5316\u5986\u54c1
p3963
I1
sV\u7406\u7531
p3964
I13
sV\u62c9\u7f8e\u5730\u533a
p3965
I1
sV\u503e\u542c
p3966
I1
sV\u56db\u56fd
p3967
I6
sV\u5916\u6c47\u4ea4\u6613
p3968
I1
sV\u5929\u6d25
p3969
I4
sV\u731c\u6d4b
p3970
I3
sV\u4e1c\u6b27\u5730\u533a
p3971
I1
sV\u91d1\u5e01
p3972
I1
sV\u8089\u7c7b
p3973
I6
sV\u540d\u54c1
p3974
I1
sV\u76d1\u4e8b\u4f1a
p3975
I2
sV\u503e\u5411
p3976
I3
sV\u5206\u79bb
p3977
I1
sV\u627f\u538b
p3978
I2
sV\u8f66\u8f86
p3979
I7
sV\u5bb6\u5e97
p3980
I1
sV\u53d1\u7535\u673a\u7ec4
p3981
I1
sV\u8de8\u5883
p3982
I10
sV\u594f\u6548
p3983
I1
sV\u666e\u904d\u73b0\u8c61
p3984
I1
sV\u7535\u5668
p3985
I2
sV\u8d38\u6613\u987a\u5dee
p3986
I1
sV\u5df2\u6210
p3987
I1
sV\u611f\u53d7
p3988
I4
sV\u5df4\u6797
p3989
I1
sV\u77ed\u671f\u5185
p3990
I9
sV\u5efa\u8bbe\u6027
p3991
I4
sV\u7279\u4f7f
p3992
I1
sV\u8054\u90a6
p3993
I8
sV\u8f6c\u57fa\u56e0
p3994
I3
sV\u6e38\u8bf4
p3995
I1
sV\u6089\u5c3c
p3996
I6
sV\u611f\u53f9
p3997
I1
sV\u5546\u54c1
p3998
I34
sV\u627f\u53d7
p3999
I7
sV\u9700\u626b
p4000
I1
sV\u4e1a\u52a1
p4001
I31
sV\u4e1c\u6b27\u5404\u56fd
p4002
I1
sV\u6cb3\u5317\u7701
p4003
I2
sV\u4e3e\u624b
p4004
I1
sV\u897f\u62c9
p4005
I1
sV\u65b0\u4efb
p4006
I4
sV\u5546\u7528
p4007
I1
sV\u773c\u955c
p4008
I1
sV\u5173\u7a0e
p4009
I14
sV\u6587\u5b57
p4010
I1
sV\u5e03\u9c81\u585e\u5c14
p4011
I3
sV\u7164\u70ad
p4012
I4
sV\u5efa\u7b51
p4013
I6
sV\u53cd\u503e\u9500
p4014
I7
sV\u7a81\u88ad
p4015
I1
sV\u65b9\u9762
p4016
I99
sV\u9762\u4e34
p4017
I61
sV\u5229\u7a7a
p4018
I1
sV\u76d1\u63a7
p4019
I2
sV\u7ecf\u8d38
p4020
I13
sV\u76f8\u5173
p4021
I46
sV\u5b9e\u60c5
p4022
I1
sV\u91cc\u7a0b\u7891
p4023
I1
sV\u6cd5\u514b\u65af
p4024
I1
sV\u6cd5\u9662
p4025
I4
sV\u91cd\u8fd4
p4026
I2
sV\u5747\u7ebf
p4027
I1
sV\u653f\u6cbb\u5316
p4028
I1
sV\u70ab\u76ee
p4029
I1
sV\u6743\u529b\u6597\u4e89
p4030
I1
sV\u513f\u5b50
p4031
I1
sV\u6587\u5b66
p4032
I1
sV\u4f1a\u957f
p4033
I2
sV\u5b9e\u60e0
p4034
I2
sV\u96c7\u4f63
p4035
I3
sV\u5171\u4eab
p4036
I3
sV\u5229\u6da6
p4037
I13
sV\u653f\u6743
p4038
I1
sV\u5c5e\u6027
p4039
I1
sV\u62a5\u540d
p4040
I2
sV\u4f7f\u547d
p4041
I1
sV\u7d20\u8d28
p4042
I2
sV\u51dd\u6790
p4043
I1
sV\u9f13\u52b1
p4044
I9
sV\u8bae\u5458
p4045
I5
sV\u56f4\u680f
p4046
I1
sV\u8d27\u8fd0\u91cf
p4047
I1
sV\u8ba4\u4e3a
p4048
I190
sV\u4e0d\u5230
p4049
I7
sV\u6388\u6743
p4050
I5
sV\u65b0\u52a0\u5761\u7c4d
p4051
I1
sV\u6765\u5230
p4052
I1
sV\u8f66\u8f6e
p4053
I1
sV\u90e8\u961f
p4054
I3
sV\u6df7\u6dc6
p4055
I1
sV\u91ca\u653e
p4056
I9
sV\u5165\u9009
p4057
I2
sV\u53cd\u89c2
p4058
I2
sV\u8fdb\u653b
p4059
I1
sV\u7535\u89e3\u94dd
p4060
I1
sV\u70b8\u6bc1
p4061
I1
sV\u7ecf\u8425\u98ce\u9669
p4062
I1
sV\u53d1\u884c\u91cf
p4063
I2
sV\u540e\u9057\u75c7
p4064
I1
sV\u5bfa\u5e99
p4065
I1
sV\u79e9\u5e8f
p4066
I6
sV\u8d1f\u9762
p4067
I14
sV\u5229\u9a6c
p4068
I2
sV\u878d\u5165
p4069
I5
sV\u9a6c\u6765\u897f\u4e9a\u6797\u5409\u7279
p4070
I3
sV\u85aa\u916c
p4071
I1
sV\u5f00\u5c55\u4e1a\u52a1
p4072
I1
sV\u6574\u4f53
p4073
I33
sV\u6d77\u5173\u7a0e
p4074
I1
sV\u9996\u5355
p4075
I1
sV\u7ecf\u4ea7
p4076
I1
sV\u4e0a\u88c5
p4077
I1
sV\u7b2c\u4e09\u56fd
p4078
I1
sV\u6cb9\u83dc\u7c7d
p4079
I1
sV\u7a77\u4eba
p4080
I2
sV\u4ea4\u6613\u65e5
p4081
I5
sV\u73b0\u573a
p4082
I5
sV\u901a\u77e5
p4083
I3
sV\u4e0d\u9508\u94a2
p4084
I1
sV\u5236\u5b9a\u8005
p4085
I6
sV\u4fb5\u8680
p4086
I4
sV\u6d3b\u8dc3
p4087
I4
sV\u5168\u7a0b
p4088
I1
sV\u8d62\u5f97
p4089
I6
sV\u4f34\u4fa3
p4090
I1
sV\u4fdd\u9669
p4091
I5
sV\u4e0b\u5c5e
p4092
I1
sV\u8d22\u653f\u9884\u7b97
p4093
I2
sV\u7814\u7a76\u90e8
p4094
I3
sV\u5e95\u7a3f
p4095
I1
sV\u4e94\u56fd
p4096
I6
sV\u72af\u4e0b
p4097
I2
sV\u8f66\u80fd
p4098
I1
sV\u62c5\u4fdd\u4eba
p4099
I1
sV\u8f6c\u5316
p4100
I4
sV\u540d\u5bb6
p4101
I1
sV\u9910\u8f66
p4102
I1
sV\u514b\u91cc\u7c73\u4e9a\u534a\u5c9b
p4103
I1
sV\u79c1\u5356
p4104
I1
sV\u65e5\u843d
p4105
I1
sV\u66fc\u65af
p4106
I1
sV\u4e91\u5357\u7701
p4107
I2
sV\u5173\u952e\u70b9
p4108
I1
sV\u5b9c\u5bb6
p4109
I1
sV\u5ba3\u544a
p4110
I2
sV\u6012\u65a5
p4111
I1
sV\u87ba\u65cb
p4112
I1
sV\u8499\u53e4
p4113
I2
sV\u8d2d\u623f\u8005
p4114
I3
sV\u6392\u884c\u699c
p4115
I4
sV\u8d22\u6e90
p4116
I1
sV\u7f8e\u975e
p4117
I1
sV\u8d64\u5b57
p4118
I9
sV\u8fd0\u8425\u5546
p4119
I2
sV\u5f15\u9886
p4120
I1
sV\u901b\u5546\u573a
p4121
I1
sV\u9644\u52a0\u8d39
p4122
I2
sV\u4e8b\u4ef6
p4123
I14
sV\u5904\u4e8e
p4124
I37
sV\u534f\u8bae
p4125
I66
sV\u8868\u8fbe
p4126
I2
sV\u5956\u52b1
p4127
I1
sV\u5954\u9a70
p4128
I1
sV\u534e\u4eba\u534e\u4fa8
p4129
I1
sV\u526f\u4f5c\u7528
p4130
I1
sV\u6d41\u901a
p4131
I8
sV\u65f6\u80fd
p4132
I1
sV\u8f6c\u53d8
p4133
I14
sV\u52a0\u6743
p4134
I3
sV\u672c\u5730\u4eba
p4135
I1
sV\u4ea7\u4e1a\u90e8
p4136
I1
sV\u4f11\u65af\u6566
p4137
I2
sV\u5916\u56fd\u4eba
p4138
I5
sV\u7b7e\u7ea6
p4139
I2
sV\u540d\u5b57
p4140
I1
sV\u95e8\u6237
p4141
I1
sV\u529b\u63a8
p4142
I1
sV\u7535\u4fe1
p4143
I1
sV\u5229\u606f\u6536\u5165
p4144
I1
sV\u5236\u9020\u5546
p4145
I4
sV\u5c55\u4f1a
p4146
I1
sV\u7956\u9a6c
p4147
I1
sV\u6295\u8d44\u4eba
p4148
I4
sV\u4fdd\u969c
p4149
I7
sV\u70df\u53f0
p4150
I1
sV\u8d77\u62cd\u4ef7
p4151
I1
sV\u7f3a\u53e3
p4152
I4
sV\u5b89\u5854\u5229\u4e9a
p4153
I5
sV\u519b\u60c5
p4154
I1
sV\u5bb6\u5177
p4155
I4
sV\u6709\u5229\u4e8e
p4156
I22
sV\u5ba2\u4eba
p4157
I2
sV\u4eba\u53e3\u8001\u5316
p4158
I1
sV\u6050\u5413
p4159
I1
sV\u63d0\u4f9b
p4160
I91
sV\u8bdd\u8bed\u6743
p4161
I5
sV\u7acb\u4f53
p4162
I1
sV\u4e0d\u5e73\u8861\u6027
p4163
I1
sV\u81ea\u7531\u5316
p4164
I8
sV\u95f4\u534f\u8bae
p4165
I1
sV\u632a\u5a01
p4166
I8
sV\u4eba\u529b\u8d44\u6e90
p4167
I1
sV\u7814\u7a76\u8005
p4168
I1
sV\u6536\u7f29
p4169
I3
sV\u6c14\u8c61\u90e8\u95e8
p4170
I1
sV\u53cc\u8fb9\u5173\u7cfb
p4171
I3
sV\u542c\u8bc1\u4f1a
p4172
I1
sV\u8fde\u9501
p4173
I5
sV\u4f18\u6b65
p4174
I1
sV\u5e9f\u5f03
p4175
I1
sV\u51fa\u4e4e
p4176
I1
sV\u6307\u6570
p4177
I34
sV\u514b\u670d
p4178
I4
sV\u949e\u7968
p4179
I3
sV\u4fe1\u606f\u5316
p4180
I1
sV\u6e90\u4e8e
p4181
I2
sV\u5206\u4f1a
p4182
I1
sV\u95fb\u540d
p4183
I2
sV\u9700\u6c42
p4184
I93
sV\u91d1\u878d\u4e2d\u5fc3
p4185
I1
sV\u7cbe\u5bc6\u4eea\u5668
p4186
I1
sV\u8de8\u56fd
p4187
I9
sV\u624b\u8868
p4188
I2
sV\u5b66\u9662\u6d3e
p4189
I1
sV\u5b81\u590f
p4190
I1
sV\u5206\u6790\u5e08
p4191
I55
sV\u8ddf\u968f
p4192
I1
sV\u4e0b\u529f\u592b
p4193
I1
sV\u6536\u5165\u6c34\u5e73
p4194
I1
sV\u632b\u6298
p4195
I2
sV\u6301\u80a1
p4196
I3
sV\u504f\u4f4e
p4197
I1
sV\u84c4\u79ef\u91cf
p4198
I2
sV\u611f\u67d3\u8005
p4199
I1
sV\u6982\u62ec
p4200
I2
sV\u7164\u6cb9\u706f
p4201
I1
sV\u5173\u95ed
p4202
I7
sV\u63d0\u4e0a
p4203
I1
sV\u6cbf\u6d77\u7ecf\u6d4e
p4204
I1
sV\u5356\u51fa
p4205
I3
sV\u6d41\u51fa
p4206
I16
sV\u5965\u5df4\u9a6c
p4207
I25
sV\u4f4e\u4e8e
p4208
I27
sV\u8fd0\u8f93\u6210\u672c
p4209
I1
sV\u9ad8\u98ce\u9669
p4210
I5
sV\u5bfb\u79df
p4211
I1
sV\u767e\u5473
p4212
I1
sV\u5b98\u7f51
p4213
I1
sV\u8513\u5ef6
p4214
I3
sV\u5408\u4f5c\u4f19\u4f34
p4215
I7
sV\u7406\u67e5\u5fb7
p4216
I2
sV\u5411\u6765
p4217
I4
sV\u51fa\u4efb
p4218
I3
sV\u5b89\u5fc3
p4219
I1
sV\u51fa\u4ef7
p4220
I2
sV\u6da8\u52bf
p4221
I3
sV\u9b41\u5317\u514b\u7701
p4222
I1
sV\u589e\u6dfb
p4223
I2
sV\u8336\u9986
p4224
I1
sV\u6fb3\u95e8
p4225
I1
sV\u5173\u952e
p4226
I7
sV\u5e94\u6709
p4227
I1
sV\u5357\u90fd
p4228
I1
sV\u673a\u8f66
p4229
I2
sV\u4e2d\u4e1c\u6b27
p4230
I3
sV\u529b\u62d3
p4231
I4
sV\u6dee\u5b89
p4232
I1
sV\u4e13\u8bbf
p4233
I10
sV\u9884\u6d4b
p4234
I44
sV\u672c\u5468\u4e00
p4235
I2
sV\u8fd4\u5bb6
p4236
I1
sV\u7ed3\u679c\u663e\u793a
p4237
I4
sV\u65b0\u89c6\u91ce
p4238
I1
sV\u4ef7\u683c\u6307\u6570
p4239
I7
sV\u7f8e\u56fd
p4240
I331
sV\u63d0\u4ea4
p4241
I17
sV\u53f7\u79f0
p4242
I1
sV\u6d88\u8d39\u54c1
p4243
I2
sV\u51fa\u4e8e
p4244
I1
sV\u8a93\u8a00
p4245
I2
sV\u6d41\u5165
p4246
I5
sV\u7cbe\u795e
p4247
I4
sV\u4e2d\u67a2
p4248
I1
sV\u8fd0\u529b
p4249
I1
sV\u57ce\u5e02
p4250
I19
sV\u62d3\u5c55
p4251
I11
sV\u5965\u65af\u672c
p4252
I3
sV\u5916\u4ea4\u90e8\u957f
p4253
I3
sV\u601d\u8def
p4254
I1
sV\u8bc1\u5b9e
p4255
I3
sV\u7ed3\u8bba
p4256
I8
sV\u8d1f\u8d23\u4eba
p4257
I12
sV\u63d0\u8d77
p4258
I3
sV\u516c\u5171\u536b\u751f
p4259
I1
sV\u7537\u58eb
p4260
I1
sV\u6c47\u5e02
p4261
I2
sV\u5efa\u9a7b
p4262
I1
sV\u7ecf\u6d4e\u5236\u88c1
p4263
I3
sV\u8131\u624b
p4264
I1
sV\u5bf9\u51b2
p4265
I4
sV\u62a5\u4ef7
p4266
I1
sV\u5929\u6027
p4267
I1
sV\u91d1\u878d\u5371\u673a
p4268
I32
sV\u5305\u62ec
p4269
I135
sV\u77e5\u4e4e
p4270
I1
sV\u7248\u56fe
p4271
I4
sV\u4f9d\u8d56\u5ea6
p4272
I1
sV\u51fa\u8d44
p4273
I2
sV\u6d41\u52a8
p4274
I3
sV\u9500\u552e
p4275
I20
sV\u90ae\u62a5
p4276
I2
sV\u8d1f\u503a\u7387
p4277
I1
sV\u96c6\u56e2
p4278
I54
sV\u53c2\u4e0e\u8005
p4279
I3
sV\u8f93\u51fa\u56fd
p4280
I2
sV\u4f7f\u9986
p4281
I1
sV\u4f5c\u7528
p4282
I20
sV\u5178\u8303
p4283
I2
sV\u627f\u5efa
p4284
I2
sV\u884c\u6587
p4285
I1
sV\u9ad8\u65b0\u6280\u672f
p4286
I2
sV\u4e92\u6362
p4287
I5
sV\u5931\u4e1a\u4eba\u6570
p4288
I1
sV\u56de\u6d41
p4289
I3
sV\u63d0\u8d28
p4290
I2
sV\u7279\u8272
p4291
I1
sV\u8def\u900f\u793e
p4292
I9
sV\u7535\u8d39
p4293
I1
sV\u53d1\u8a00\u7a3f
p4294
I1
sV\u7ec8\u503c
p4295
I1
sV\u903c\u8fd1
p4296
I1
sV\u5e86\u5e78
p4297
I1
sV\u88c1\u51b3
p4298
I3
sV\u652f\u7ebf
p4299
I1
sV\u9053\u6b49
p4300
I1
sV\u7834\u7eaa\u5f55
p4301
I1
sV\u9057\u5631
p4302
I1
sV\u4e07\u5411\u96c6\u56e2
p4303
I1
sV\u56de\u6536
p4304
I1
sV\u65e0\u606f\u8d37\u6b3e
p4305
I1
sV\u6d6e\u76c8\u5c06
p4306
I1
sV\u9886\u8896
p4307
I5
sV\u63aa\u65bd
p4308
I40
sV\u4e2d\u5956\u53f7\u7801
p4309
I1
sV\u542c\u4f17
p4310
I1
sV\u540d\u5973
p4311
I1
sV\u98de\u5f80
p4312
I3
sV\u5f15\u53d1
p4313
I36
sV\u8ff7\u4eba
p4314
I1
sV\u5ba2\u6237\u670d\u52a1
p4315
I1
sV\u9634\u973e
p4316
I1
sV\u501f\u6b3e
p4317
I2
sV\u5b98\u65b9\u7f51\u7ad9
p4318
I1
sV\u6ce1\u6cab
p4319
I14
sV\u5546\u754c
p4320
I7
sV\u521b\u4e1a\u677f
p4321
I1
sV\u4e8f\u635f
p4322
I13
sV\u578b\u6750
p4323
I1
sV\u4e13\u9898\u8ba8\u8bba
p4324
I1
sV\u8fd0\u91cf
p4325
I2
sV\u4f53\u7cfb
p4326
I13
sV\u98ce\u53e3\u6d6a\u5c16
p4327
I1
sV\u8bd5\u56fe
p4328
I18
sV\u5496\u5561
p4329
I2
sV\u73af\u5883
p4330
I35
sV\u914d\u7f6e
p4331
I4
sV\u8bdd\u9898
p4332
I2
sV\u9610\u8ff0
p4333
I3
sV\u94bb\u63a2
p4334
I6
sV\u5927\u6865
p4335
I2
sV\u5c55\u793a\u4f1a
p4336
I1
sV\u6b66\u5668
p4337
I5
sV\u7701\u4f1a
p4338
I1
sV\u539f\u77ff
p4339
I1
sV\u4e0a\u884c
p4340
I4
sV\u901a\u7528
p4341
I3
sV\u4f17\u9662
p4342
I1
sV\u77e5\u4e8b
p4343
I1
sV\u9ad8\u5b98
p4344
I4
sV\u5cf0\u503c
p4345
I3
sV\u5458\u5de5
p4346
I13
sV\u5c0a\u656c
p4347
I1
sV\u8d2d\u7269\u4e2d\u5fc3
p4348
I1
sV\u751f\u7269
p4349
I2
sV\u6444\u50cf\u5934
p4350
I2
sV\u5168\u7ebf
p4351
I2
sV\u5f15\u5bfc
p4352
I2
sV\u793e\u533a
p4353
I1
sV\u53cc\u8fb9\u5408\u4f5c
p4354
I1
sV\u7ba1\u63a7
p4355
I10
sV\u6536\u7d27
p4356
I11
sV\u65b0\u95fb\u7a3f
p4357
I1
sV\u75c5\u539f\u83cc
p4358
I1
sV\u6d8c\u52a8
p4359
I1
sV\u8bae\u9898
p4360
I14
sV\u6295\u878d\u8d44
p4361
I1
sV\u4ee3\u66ff
p4362
I2
sV\u4e0d\u8db3\u4ee5
p4363
I8
sV\u8d28\u91cf
p4364
I5
sV\u505c\u7535
p4365
I1
sV\u7ef4\u7cfb
p4366
I1
sV\u8d22\u4ea7\u7ee7\u627f
p4367
I1
sV\u4e00\u8fde\u4e32
p4368
I2
sV\u4e2d\u95f4\u4ef7
p4369
I8
sV\u60a3\u8005
p4370
I4
sV\u8df3\u6c34
p4371
I1
sV\u89c2\u5ff5
p4372
I2
sV\u5b9e\u4e60\u751f
p4373
I1
sV\u9707\u8361
p4374
I7
sV\u653e\u5f00
p4375
I2
sV\u653e\u5f03
p4376
I10
sV\u7701\u4efd
p4377
I2
sV\u7d27\u8eab\u88e4
p4378
I1
sV\u8ba8\u8bba
p4379
I26
sV\u822a\u7ebf
p4380
I4
sV\u906d\u53d7
p4381
I6
sV\u623f\u5b50
p4382
I3
sV\u5f52\u4e3a
p4383
I1
sV\u505c\u7559
p4384
I1
sV\u5c3c\u65e5\u5229\u4e9a
p4385
I9
sV\u9000\u573a
p4386
I1
sV\u5fc5\u8981\u63aa\u65bd
p4387
I1
sV\u626e\u6f14\u7740
p4388
I1
sV\u8001\u5e74\u4eba
p4389
I3
sV\u7ade\u4e89\u6027
p4390
I7
sV\u4e2d\u95f4\u4eba
p4391
I1
sV\u5e03\u5170
p4392
I2
sV\u7740\u7ea6
p4393
I1
sV\u519c\u4e1a\u90e8\u95e8
p4394
I1
sV\u8d38\u6613\u989d
p4395
I10
sV\u7ed5\u884c
p4396
I1
sV\u7b80\u79f0
p4397
I3
sV\u7a81\u7834
p4398
I7
sV\u58eb\u5175
p4399
I1
sV\u7a7a\u519b
p4400
I1
sV\u540d\u989d
p4401
I1
sV\u5ea7\u4f4d
p4402
I1
sV\u542c\u4efb
p4403
I1
sV\u51fa\u5bf9
p4404
I1
sV\u653b\u9677
p4405
I1
sV\u798f\u7279
p4406
I1
sV\u7eaa\u5ff5\u65e5
p4407
I1
sV\u7532\u809d
p4408
I1
sV\u62db\u8058
p4409
I3
sV\u73b0\u4ee3\u5316
p4410
I4
sV\u90bb\u56fd
p4411
I2
sV\u9020\u798f
p4412
I4
sV\u88c5\u914d\u8f66\u95f4
p4413
I1
sV\u58a8\u5c14\u672c
p4414
I2
sV\u6838\u7535\u5382
p4415
I4
sV\u5e9f\u6b62
p4416
I2
sV\u80fd\u6e90\u9700\u6c42
p4417
I1
sV\u610f\u5927\u5229\u4eba
p4418
I1
sV\u5168\u957f
p4419
I2
sV\u5e2e\u52a9
p4420
I25
sV\u4f1a\u9762\u65f6
p4421
I1
sV\u4e2a\u4f4d\u6570
p4422
I1
sV\u8bf7\u613f\u4e66
p4423
I1
sV\u5b89\u5df4
p4424
I1
sV\u5144\u957f
p4425
I1
sV\u8d1f\u589e\u957f
p4426
I1
sV\u96c6\u88c5\u7bb1
p4427
I4
sV\u6cd5\u5df4
p4428
I1
sV\u629b\u50a8
p4429
I1
sV\u5931\u8bef
p4430
I2
sV\u9677\u5165
p4431
I22
sV\u4ee3\u8868\u5904
p4432
I1
sV\u6210\u5458\u56fd
p4433
I39
sV\u53ef\u91c7
p4434
I1
sV\u5927\u697c
p4435
I2
sV\u73af\u8282
p4436
I2
sV\u6ce2\u97f3
p4437
I1
sV\u7ea2\u7ebf
p4438
I1
sV\u9650\u552e
p4439
I1
sV\u6d88\u8d39\u56fd
p4440
I4
sV\u4fbf\u662f
p4441
I1
sV\u613f\u671b
p4442
I2
sV\u53d1\u7ed9
p4443
I2
sV\u4e2d\u65af
p4444
I1
sV\u8d44\u672c\u8f93\u51fa
p4445
I1
sV\u8bef\u89e3
p4446
I1
sV\u9887\u4e3a
p4447
I2
sV\u7814\u7a76\u6210\u679c
p4448
I1
sV\u77f3\u6cb9\u90e8\u95e8
p4449
I2
sV\u597d\u53cb
p4450
I1
sV\u89e6\u53ca
p4451
I7
sV\u8001\u6d3e
p4452
I1
sV\u7c7b\u4ea7\u54c1
p4453
I1
sV\u8d22\u653f\u72b6\u51b5
p4454
I2
sV\u653b\u51fb
p4455
I3
sV\u8d2b\u5bcc\u5dee\u8ddd
p4456
I2
sV\u589e\u6301
p4457
I2
sV\u63a5\u83b7
p4458
I1
sV\u718a\u5e02
p4459
I11
sV\u5ef6\u957f
p4460
I3
sV\u5c0f\u5bb6\u5177
p4461
I1
sV\u9f99\u820c\u5170
p4462
I1
sV\u52a0\u5de5
p4463
I7
sV\u51b3\u5b9a\u6027
p4464
I5
sV\u65c5\u6e38
p4465
I13
sV\u8bef\u5bfc\u6027
p4466
I1
sV\u65f6\u70b9
p4467
I6
sV\u76ae\u5e3d
p4468
I1
sV\u653f\u6cbb
p4469
I53
sV\u638c\u63e1
p4470
I7
sV\u6210\u4ea4\u4ef7
p4471
I1
sV\u62a2\u8d2d
p4472
I2
sV\u66f2\u661f
p4473
I1
sV\u7a7a\u95f4
p4474
I20
sV\u5f81\u9014
p4475
I1
sV\u4e0d\u5e94
p4476
I1
sV\u77a9\u76ee
p4477
I1
sV\u969c\u788d
p4478
I9
sV\u5730\u4ef7
p4479
I1
sV\u4e13\u4e1a
p4480
I5
sV\u96a7\u9053
p4481
I1
sV\u7528\u9910
p4482
I1
sV\u65f6\u673a
p4483
I5
sV\u534f\u4f5c
p4484
I3
sV\u5de5\u4e1a
p4485
I31
sV\u9996\u573a
p4486
I1
sV\u7528\u4e8e
p4487
I12
sV\u7535\u8bdd
p4488
I5
sV\u4ea4\u901a\u7f51\u7edc
p4489
I1
sV\u63d0\u8bf7
p4490
I1
sV\u4e27\u5931
p4491
I4
sV\u5916\u754c
p4492
I8
sV\u7099\u70e4
p4493
I1
sV\u6d41\u5411
p4494
I2
sV\u7792\u62a5
p4495
I1
sV\u75b2\u6001
p4496
I1
sV\u9677\u9631
p4497
I1
sV\u7535\u5b50\u4ea7\u54c1
p4498
I2
sV\u4f17\u8bae\u5458
p4499
I1
sV\u5de5\u5546\u884c\u653f
p4500
I1
sV\u6050\u6016\u7ec4\u7ec7
p4501
I2
sV\u9ad8\u6e29
p4502
I1
sV\u670b\u53cb
p4503
I6
sV\u8d4b\u4e88
p4504
I2
sV\u62c9\u5c3c\u4e9a
p4505
I1
sV\u6539\u7ec4
p4506
I1
sV\u6cb9\u516c\u53f8
p4507
I1
sV\u4ea7\u4e1a\u94fe
p4508
I4
sV\u745e\u58eb
p4509
I29
sV\u5b66\u8005
p4510
I4
sV\u53e4\u91cc\u4e9a
p4511
I1
sV\u4eb2\u738b
p4512
I1
sV\u8499\u7f57\u7ef4\u4e9a
p4513
I1
sV\u6848\u53d1\u73b0\u573a
p4514
I1
sV\u5e95\u7ebf
p4515
I1
sV\u9650\u5236
p4516
I23
sV\u5148\u751f
p4517
I1
sV\u5173\u505c
p4518
I2
sV\u5b89\u68c0\u5458
p4519
I1
sV\u6674\u96e8\u8868
p4520
I1
sV\u65e0\u9650\u671f
p4521
I3
sV\u8f6c\u578b
p4522
I21
sV\u534e\u4eba
p4523
I1
sV\u51fa\u8bbf
p4524
I7
sV\u76ee\u7684
p4525
I6
sV\u5de5\u4eba
p4526
I8
sV\u5373\u5c06\u6765\u4e34
p4527
I1
sV\u66b4\u53d1
p4528
I1
sV\u63d0\u8bae
p4529
I3
sV\u5224\u51b3
p4530
I4
sV\u5927\u6e56
p4531
I1
sV\u6cb9\u670d
p4532
I1
sV\u706b\u8f66
p4533
I2
sV\u7535\u8baf
p4534
I1
sV\u53ef\u80fd\u6027
p4535
I16
sV\u7b56\u7565\u5e08
p4536
I12
sV\u7ed5\u8fc7
p4537
I1
sV\u80cc\u4e66
p4538
I1
sV\u96c6\u91d1
p4539
I1
sV\u4efb\u7531
p4540
I1
sV\u5730\u4e2d\u6d77
p4541
I1
sV\u6545\u4e8b
p4542
I3
sV\u5f81\u5146
p4543
I1
sV\u79fb\u6c11\u90e8
p4544
I1
sV\u9996\u964d
p4545
I1
sV\u4e0d\u7a33\u5b9a\u6027
p4546
I1
sV\u535a\u58eb\u5b66\u4f4d
p4547
I1
sV\u8bef\u4f1a
p4548
I1
sV\u6c14\u6e29
p4549
I1
sV\u900f\u9876
p4550
I1
sV\u91cd\u593a
p4551
I1
sV\u5f81\u6c42\u610f\u89c1
p4552
I1
sV\u5371\u53ca
p4553
I1
sV\u9884\u6d4b\u503c
p4554
I7
sV\u4f4d\u4e8e
p4555
I23
sV\u4e00\u7638\u4e00\u62d0
p4556
I1
sV\u7ea0\u7ed3
p4557
I1
sV\u5e2d\u5377
p4558
I1
sV\u6392\u5f02
p4559
I1
sV\u82cf\u5dde\u5de5\u4e1a\u56ed\u533a
p4560
I1
sV\u884c\u4f7f\u4e3b\u6743
p4561
I1
sV\u4e0a\u5347\u65f6
p4562
I1
sV\u7206\u53d1
p4563
I8
sV\u7cbe\u7ec6\u5316\u5de5
p4564
I1
sV\u627e\u94b1
p4565
I1
sV\u8d8a\u5357
p4566
I9
sV\u62bd\u79bb
p4567
I1
sV\u5ef6\u7eed
p4568
I3
sV\u8d27\u5e01\u6c47\u7387
p4569
I3
sV\u67aa\u652f
p4570
I1
sV\u6838\u6280\u672f
p4571
I1
sV\u7ea0\u7eb7
p4572
I1
sV\u6bd2\u67ad
p4573
I1
sV\u751f\u75c5
p4574
I1
sV\u7f3a\u9677
p4575
I1
sV\u81a8\u80c0
p4576
I4
sV\u6cd5\u5ead
p4577
I6
sV\u6709\u8272\u91d1\u5c5e
p4578
I1
sV\u4e13\u4e1a\u77e5\u8bc6
p4579
I1
sV\u56db\u5deb
p4580
I1
sV\u6838\u5fc3
p4581
I13
sV\u6807\u51c6\u5316
p4582
I1
sV\u878d\u5408
p4583
I3
sV\u53ef\u9760
p4584
I2
sV\u96c5\u52a0\u8fbe
p4585
I3
sV\u5cf0\u4f1a
p4586
I22
sV\u5931\u8d25
p4587
I2
sV\u504f\u5411
p4588
I2
sV\u5de5\u4f1a
p4589
I1
sV\u5347\u606f
p4590
I2
sV\u56de\u62a5\u7387
p4591
I5
sV\u5438\u53d6
p4592
I1
sV\u6784\u60f3
p4593
I1
sV\u4f5c\u7269
p4594
I3
sV\u840e\u7f29
p4595
I7
sV\u62e8\u6b3e
p4596
I3
sV\u7ecf\u8d39
p4597
I1
sV\u5361\u8f66
p4598
I1
sV\u67f4\u6cb9\u53d1\u52a8\u673a
p4599
I1
sV\u4fc3\u9500
p4600
I1
sV\u5e74\u8f7b\u4eba
p4601
I5
sV\u6f5c\u529b
p4602
I8
sV\u53c2\u52a0\u56fd
p4603
I1
sV\u64cd\u7eb5
p4604
I3
sV\u79c1\u9690
p4605
I1
sV\u94a2\u4ef7
p4606
I2
sV\u5e26\u6765
p4607
I73
sV\u8fdd\u53cd
p4608
I5
sV\u91d1\u878d\u90e8\u95e8
p4609
I2
sV\u4e0d\u987e
p4610
I1
sV\u6269\u5927
p4611
I35
sV\u7591\u67d3
p4612
I1
sV\u9ad8\u9633
p4613
I1
sV\u56fd\u6c11
p4614
I5
sV\u9002\u9022
p4615
I1
sV\u68c0\u67e5
p4616
I5
sV\u91c7\u5c3d
p4617
I1
sV\u8fc1\u81f3
p4618
I1
sV\u574f\u5e10
p4619
I1
sV\u4ed8\u6b3e
p4620
I4
sV\u5185\u7f57\u6bd5
p4621
I1
sV\u90ae\u653f
p4622
I1
sV\u90a6\u653f\u5e9c
p4623
I2
sV\u5fb7\u65af\u5766
p4624
I1
sV\u5916\u79d1\u624b\u672f
p4625
I1
sV\u5b89\u5b9a
p4626
I1
sV\u5c31\u4e1a\u4eba\u53e3
p4627
I2
sV\u6807\u9898
p4628
I2
sV\u65f6\u85aa
p4629
I2
sV\u52b3\u52a8\u751f\u4ea7\u7387
p4630
I4
sV\u77ff\u77f3
p4631
I1
sV\u5efa\u7b51\u884c\u4e1a
p4632
I1
sV\u4e0d\u582a
p4633
I1
sV\u8425\u4e1a\u7a0e
p4634
I1
sV\u51b2\u7ef3\u53bf
p4635
I1
sV\u5b89\u5b81
p4636
I1
sV\u98de\u884c\u5458
p4637
I2
sV\u98ce\u7535
p4638
I2
sV\u63a8\u884c
p4639
I3
sV\u98d9\u6da8
p4640
I1
sV\u4ea7\u7ecf\u65b0\u95fb
p4641
I3
sV\u673a\u7ec4
p4642
I1
sV\u6b27\u4e9a\u5927\u9646
p4643
I3
sV\u4f4e\u54c1\u8d28
p4644
I1
sV\u7acb\u6cd5\u673a\u6784
p4645
I1
sV\u7ef4\u7a33
p4646
I1
sV\u5e97\u94fa
p4647
I1
sV\u613f\u610f
p4648
I11
sV\u660e\u955c
p4649
I2
sV\u610f\u6599
p4650
I1
sV\u7a83\u8d3c
p4651
I1
sV\u8d44\u91d1\u4e0d\u8db3
p4652
I1
sV\u78c1\u5171\u632f
p4653
I1
sV\u5408\u7406\u6027
p4654
I1
sV\u8bae\u5b9a\u4e66
p4655
I2
sV\u7a81\u7834\u6027
p4656
I1
sV\u9aa8\u5e72\u4f01\u4e1a
p4657
I1
sV\u8d44\u4ea7\u8005
p4658
I1
sV\u6269\u5efa
p4659
I3
sV\u63f4\u5f15
p4660
I12
sV\u5c71\u4e1c
p4661
I3
sV\u5e76\u79f0
p4662
I3
sV\u4f34\u968f
p4663
I8
sV\u697c\u76d8
p4664
I2
sV\u6d25\u8d34
p4665
I1
sV\u5224\u65ad\u529b
p4666
I1
sV\u5408\u7406
p4667
I8
sV\u8d1f\u62c5
p4668
I11
sV\u536b\u62a5
p4669
I3
sV\u533a\u522b
p4670
I2
sV\u534f\u8bae\u4e66
p4671
I1
sV\u76f4\u81f3
p4672
I1
sV\u50a8\u91cf
p4673
I4
sV\u629b\u552e
p4674
I12
sV\u5580\u4ec0
p4675
I1
sV\u519c\u755c\u4ea7\u54c1
p4676
I1
sV\u624b\u7eed\u8d39
p4677
I1
sV\u542c\u8bc1
p4678
I1
sV\u5931\u4e1a
p4679
I3
sV\u8f93\u8840
p4680
I1
sV\u5c3f\u7247
p4681
I1
sV\u89d2\u5ea6
p4682
I10
sV\u6c7d\u8f66
p4683
I24
sV\u5f00\u8f66
p4684
I2
sV\u4e2d\u6027
p4685
I3
sV\u4e1c\u76df\u56fd\u5bb6
p4686
I1
sV\u67f4\u6cb9
p4687
I5
sV\u4fdd\u503c
p4688
I3
sV\u5893\u7891
p4689
I1
sV\u7cfb\u7edf\u6027
p4690
I3
sV\u4ea4\u6613\u6210\u672c
p4691
I1
sV\u603b\u5f52
p4692
I1
sV\u542c\u8bf4
p4693
I2
sV\u671f\u8d27\u4ef7\u683c
p4694
I2
sV\u6765\u5b9a
p4695
I1
sV\u80cc\u8d1f
p4696
I1
sV\u6295\u6807
p4697
I3
sV\u5931\u8e2a
p4698
I1
sV\u5e74\u4ea7\u91cf
p4699
I1
sV\u5e76\u4e0d\u8ba4\u4e3a
p4700
I2
sV\u5237\u5361
p4701
I1
sV\u85e9\u7bf1
p4702
I1
sV\u7f8e\u8d44
p4703
I1
sV\u7ecf\u8425
p4704
I11
sV\u6458\u8981
p4705
I1
sV\u6ce2\u52a8
p4706
I24
sV\u89c9\u5f97
p4707
I4
sV\u4e89\u53d6
p4708
I5
sV\u89e6\u5e95
p4709
I1
sV\u79cd\u82b1
p4710
I1
sV\u6d59\u6c5f
p4711
I2
sV\u4e0a\u770b
p4712
I1
sV\u53f7\u7ebf
p4713
I3
sV\u5e02\u5c40
p4714
I1
sV\u4e1c\u6b27\u56fd\u5bb6
p4715
I1
sV\u5e94\u6025
p4716
I11
sV\u5173\u5207
p4717
I2
sV\u5177\u5907
p4718
I1
sV\u4ea7\u4e1a\u56ed
p4719
I1
sV\u8170\u56f4
p4720
I1
sV\u66f4\u5177
p4721
I5
sV\u6c34\u7535
p4722
I1
sV\u6838\u5c06
p4723
I1
sV\u7b7e\u53d1
p4724
I1
sV\u7f62\u4f11
p4725
I1
sV\u89c4\u5212\u8bbe\u8ba1
p4726
I1
sV\u8c03\u4ef7
p4727
I1
sV\u504f\u8892
p4728
I1
sV\u51fa\u9519
p4729
I1
sV\u9910\u996e
p4730
I1
sV\u5168\u4f1a
p4731
I1
sV\u73b0\u91d1
p4732
I12
sV\u8c31\u5199
p4733
I2
sV\u4ef7\u683c\u4e0b\u964d
p4734
I3
sV\u6350\u6b3e
p4735
I3
sV\u9500\u91cf
p4736
I3
sV\u4f9d\u6cd5\u6cbb\u56fd
p4737
I1
sV\u6700\u4f4e\u70b9
p4738
I1
sV\u4f4e\u70b9
p4739
I7
sV\u5148\u51b3\u6761\u4ef6
p4740
I1
sV\u590d\u5236
p4741
I2
sV\u4e2d\u5361
p4742
I1
sV\u5931\u4e8b
p4743
I1
sV\u8de8\u5165
p4744
I1
sV\u745e\u5178
p4745
I8
sV\u536b\u751f\u7eb8
p4746
I1
sV\u59a5\u534f
p4747
I3
sV\u53d7\u5bb3\u8005
p4748
I1
sV\u8bc4\u59d4\u4f1a
p4749
I1
sV\u5efa\u6210
p4750
I7
sV\u6e38\u8247
p4751
I1
sV\u7eb7\u4e89
p4752
I1
sV\u8868\u4e0a
p4753
I1
sV\u4e8b\u52a1\u6240
p4754
I1
sV\u65bd\u52a0\u538b\u529b
p4755
I1
sV\u62c9\u4e01\u7f8e\u6d32
p4756
I7
sV\u8d44\u4ea7
p4757
I50
sV\u82cf\u8054
p4758
I4
sV\u8001\u631d
p4759
I5
sV\u9a7b\u534e
p4760
I4
sV\u5347\u503c
p4761
I29
sV\u8c03\u4f4e
p4762
I1
sV\u5317\u6781
p4763
I2
sV\u4fdd\u8bc1
p4764
I13
sV\u53d1\u7a3f
p4765
I1
sV\u6253\u7834
p4766
I4
sV\u7f8e\u503a
p4767
I1
sV\u94f6\u884c\u4e1a
p4768
I6
sV\u7bee\u5b50
p4769
I12
sV\u89c2\u5bdf
p4770
I3
sV\u5c31\u804c
p4771
I1
sV\u5357\u975e\u5170\u7279
p4772
I2
sV\u5927\u6da8
p4773
I1
sV\u51fa\u884c
p4774
I2
sV\u9ad8\u6da8
p4775
I1
sV\u5c45\u6c11\u6536\u5165
p4776
I2
sV\u5de5\u8d44
p4777
I10
sV\u9057\u4ea7\u7a0e
p4778
I1
sV\u534f\u8c03
p4779
I13
sV\u4fdd\u517b
p4780
I1
sV\u7269\u54c1
p4781
I4
sV\u5802\u5409\u8bc3\u5fb7
p4782
I1
sV\u67aa\u6740
p4783
I1
sV\u4fdd\u5168
p4784
I1
sV\u4e07\u7269
p4785
I1
sV\u70ed\u60c5
p4786
I1
sV\u6548\u529b
p4787
I1
sV\u6551\u63f4
p4788
I2
sV\u7ecf\u6d4e
p4789
I378
sV\u53db\u519b
p4790
I1
sV\u505a\u793c\u62dc
p4791
I1
sV\u4eba\u529b
p4792
I4
sV\u653b\u52bf
p4793
I1
sV\u8bf4\u5531\u4e50
p4794
I1
sV\u62ac\u5347
p4795
I1
sV\u8f6c\u5411
p4796
I8
sV\u7ecf\u6d4e\u5468\u671f
p4797
I2
sV\u63ed\u79d8
p4798
I1
sV\u6700\u60e0\u56fd
p4799
I1
sV\u8d2a\u5b98
p4800
I1
sV\u89c6\u70b9
p4801
I1
sV\u5165\u5883
p4802
I1
sV\u5bcc\u6709
p4803
I13
sV\u6218\u673a
p4804
I2
sV\u53d7\u8bbf\u8005
p4805
I4
sV\u6307\u6325
p4806
I1
sV\u5ffd\u89c6
p4807
I2
sV\u53cd\u8150
p4808
I3
sV\u5173\u53e3
p4809
I1
sV\u76f8\u5f53\u4e8e
p4810
I12
sV\u6d6a\u8d39\u65f6\u95f4
p4811
I1
sV\u538c\u5026
p4812
I1
sV\u5b5f\u52a0\u62c9\u56fd
p4813
I1
sV\u653e\u5bbd
p4814
I4
sV\u822a\u7a7a
p4815
I13
sV\u80a1\u5229
p4816
I1
sV\u52a0\u606f
p4817
I78
sV\u5728\u610f
p4818
I1
sV\u6838\u52a8\u529b
p4819
I1
sV\u4e24\u56fd
p4820
I44
sV\u805a\u4f1a
p4821
I1
sV\u8f66\u95f4
p4822
I1
sV\u8d2b\u56f0\u4eba\u53e3
p4823
I3
sV\u6784\u6210
p4824
I11
sV\u4f24\u53ca
p4825
I2
sV\u5ba2\u89c2
p4826
I2
sV\u5355\u7a0b
p4827
I3
sV\u6062\u590d
p4828
I17
sV\u514d\u7a0e
p4829
I1
sV\u5356\u5730
p4830
I1
sV\u5145\u503c
p4831
I1
sV\u8d38\u6613\u5c40
p4832
I1
sV\u6487\u9664
p4833
I1
sV\u666f\u533a
p4834
I1
sV\u7b79\u529e
p4835
I1
sV\u671f\u8d27
p4836
I10
sV\u544a\u77e5
p4837
I4
sV\u9ec4\u91d1
p4838
I27
sV\u5927\u6d0b
p4839
I2
sV\u5dee\u5f02
p4840
I6
sV\u4e0d\u5a5a
p4841
I1
sV\u6587\u5316
p4842
I13
sV\u4e94\u5178
p4843
I1
sV\u9000\u4f11\u91d1
p4844
I2
sV\u8fde\u53d1
p4845
I1
sV\u4f9d\u6258
p4846
I1
sV\u5438\u5165
p4847
I1
sV\u4e24\u96be
p4848
I1
sV\u62d8\u7559
p4849
I1
sV\u5e02\u573a\u9700\u6c42
p4850
I4
sV\u7ef4\u62a4\u548c\u5e73
p4851
I1
sV\u53cd\u5784\u65ad\u6cd5
p4852
I1
sV\u9a6c\u516d\u7532\u6d77\u5ce1
p4853
I1
sV\u6545\u4eba
p4854
I1
sV\u516c\u62a5
p4855
I1
sV\u798f\u5e03\u65af
p4856
I4
sV\u626b\u9664
p4857
I1
sV\u8fce\u9001
p4858
I1
sV\u83b7\u6089
p4859
I7
sV\u6cb9\u6c14
p4860
I8
sV\u6307\u63a7
p4861
I5
sV\u4fdd\u62a4\u5668
p4862
I1
sV\u770b\u5230
p4863
I12
sV\u5305\u673a
p4864
I3
sV\u98de\u884c
p4865
I8
sV\u5173\u5361
p4866
I1
sV\u68c0\u65b9
p4867
I3
sV\u4e0a\u699c
p4868
I4
sV\u670d\u52a1\u884c\u4e1a
p4869
I2
sV\u8986\u76d6
p4870
I7
sV\u822a\u6750
p4871
I1
sV\u7ed3\u51b0
p4872
I1
sV\u5bb6\u65cf\u4f01\u4e1a
p4873
I3
sV\u53d1\u653e
p4874
I3
sV\u5357\u7f8e\u6d32
p4875
I1
sV\u60c5\u611f
p4876
I2
sV\u6761\u4ef6
p4877
I21
sV\u8dcc\u7a7f
p4878
I1
sV\u8d22\u76f8
p4879
I2
sV\u6ee1\u8840
p4880
I1
sV\u6743\u5229
p4881
I3
sV\u7ecf\u9a8c
p4882
I17
sV\u6760\u4e0a
p4883
I1
sV\u8b66\u6212\u7ebf
p4884
I1
sV\u6e2f\u53e3
p4885
I16
sV\u6302\u94a9
p4886
I2
sV\u62d6\u7d2f
p4887
I10
sV\u5439\u8d77\u6765
p4888
I1
sV\u5316\u77f3
p4889
I3
sV\u7a81\u51fb\u961f
p4890
I1
sV\u94dc\u7ba1
p4891
I1
sV\u6c5f\u4e1c\u533a
p4892
I1
sV\u699c\u9996
p4893
I2
sV\u62cd\u7167
p4894
I1
sV\u5929\u7a7a
p4895
I1
sV\u6d77\u76c6
p4896
I1
sV\u8282\u594f
p4897
I3
sV\u957f\u51f3
p4898
I1
sV\u5931\u901f
p4899
I1
sV\u4f4e\u5229\u7387
p4900
I5
sV\u4f59\u989d
p4901
I1
sV\u51fa\u573a
p4902
I1
sV\u7efc\u5408
p4903
I27
sV\u7a77\u56fd
p4904
I1
sV\u6253\u6765
p4905
I1
sV\u77e5\u540d
p4906
I4
sV\u9a6c\u91cc\u5170\u5dde
p4907
I2
sV\u7f51\u7ad9
p4908
I33
sV\u62ab\u9732
p4909
I3
sV\u5bf9\u8bdd
p4910
I21
sV\u5de5\u7a0b\u673a\u68b0
p4911
I1
sV\u5168\u4f53
p4912
I1
sV\u8db3\u591f
p4913
I11
sV\u4e16\u4eba
p4914
I1
sV\u65bd\u538b
p4915
I1
sV\u64cd\u63a7
p4916
I1
sV\u4e2d\u7ec6
p4917
I1
sV\u6709\u635f
p4918
I1
sV\u5a92\u4f53\u62a5\u9053
p4919
I6
sV\u8089\u6bd2
p4920
I1
sV\u964d\u6e29
p4921
I1
sV\u636e\u4ecb\u7ecd
p4922
I1
sV\u6743\u529b
p4923
I7
sV\u76d8\u8e1e
p4924
I1
sV\u53f8\u957f
p4925
I1
sV\u7acb\u573a
p4926
I13
sV\u4fe1\u8a89\u5ea6
p4927
I1
sV\u5927\u52a8\u8109
p4928
I1
sV\u4fb5\u6743
p4929
I2
sV\u6284\u5e95
p4930
I1
sV\u915d\u917f
p4931
I1
sV\u541e\u5e76
p4932
I1
sV\u53cd\u5e94
p4933
I14
sV\u7259\u9f7f
p4934
I1
sV\u538b\u6c34\u5806
p4935
I1
sV\u5b58\u94b1
p4936
I1
sV\u80cc\u53db
p4937
I1
sV\u52b3\u5de5
p4938
I5
sV\u6da8\u5e45
p4939
I7
sV\u6539\u9769\u65b9\u6848
p4940
I9
sV\u9884\u4ed8\u6b3e
p4941
I3
sV\u505c\u6ede
p4942
I3
sV\u673a\u52a8\u8f66
p4943
I1
sV\u6d41\u884c
p4944
I3
sV\u62c6\u501f
p4945
I3
sV\u8bf4\u660e
p4946
I8
sV\u98ce\u683c
p4947
I2
sV\u518d\u73b0
p4948
I1
sV\u8377\u5170
p4949
I7
sV\u767e\u8d27
p4950
I3
sV\u7206\u4e70
p4951
I1
sV\u4e2d\u7ea6
p4952
I1
sV\u5408\u4f5c
p4953
I135
sV\u4f4e\u4f4d
p4954
I5
sV\u94a2\u5382
p4955
I1
sV\u8eab\u4efd\u8bc1\u53f7
p4956
I1
sV\u4fdd\u4eba
p4957
I1
sV\u8d8b\u7f13
p4958
I1
sV\u8bc1\u5238\u65f6\u62a5
p4959
I4
sV\u5546\u62a5
p4960
I2
sV\u671f\u5269
p4961
I1
sV\u59a5\u5584
p4962
I2
sV\u5e01\u503c
p4963
I1
sV\u63a8\u5e7f
p4964
I3
sV\u6295\u7968\u8005
p4965
I2
sV\u4fdd\u4f51
p4966
I1
sV\u7f8e\u4e2d
p4967
I3
sV\u5e2d\u4f4d
p4968
I1
sV\u80af\u5c3c\u4e9a
p4969
I2
sV\u56f4\u7ed5
p4970
I2
sV\u4e1c\u5317\u4e9a
p4971
I2
sV\u53db\u56fd
p4972
I1
sV\u5c0f\u65f6
p4973
I13
sV\u4ef7\u503c
p4974
I18
sV\u53cd\u5f39
p4975
I33
sV\u72c2\u98d9
p4976
I1
sV\u56fe\u4e66
p4977
I1
sV\u52a0\u5267
p4978
I10
sV\u50a8\u84c4
p4979
I3
sV\u96f6\u5229\u7387
p4980
I5
sV\u5904\u5728
p4981
I2
sV\u5230\u8bbf
p4982
I4
sV\u5de5\u4e1a\u5316
p4983
I2
sV\u8fc7\u5ea6
p4984
I13
sV\u9ad8\u6027\u80fd
p4985
I1
sV\u82f9\u679c
p4986
I2
sV\u5173\u6ce8\u5ea6
p4987
I2
sV\u884c\u4e3a\u51c6\u5219
p4988
I1
sV\u9762\u989d
p4989
I1
sV\u5835\u8f66
p4990
I1
sV\u66ff\u4ee3\u6027
p4991
I1
sV\u5b66\u5df4
p4992
I1
sV\u8fd0\u8f93\u8bbe\u5907
p4993
I1
sV\u519c\u526f\u4ea7\u54c1
p4994
I1
sV\u5de5\u7a0b\u5b66
p4995
I1
sV\u65e5\u6b27
p4996
I1
sV\u64ad\u653e\u6309\u94ae
p4997
I1
sV\u822a\u7a7a\u822a\u5929
p4998
I1
sV\u8d8a\u4f4d
p4999
I1
sV\u91d1\u878d\u8d44\u672c
p5000
I1
sV\u91d1\u672c\u4f4d
p5001
I1
sV\u5dee\u731c
p5002
I1
sV\u65bd\u52a0
p5003
I5
sV\u4f20\u64ad
p5004
I4
sV\u5b66\u672f\u754c
p5005
I1
sV\u96f6\u503c
p5006
I1
sV\u4e2a\u80a1
p5007
I1
sV\u51c0\u6d41\u5165
p5008
I3
sV\u8d27\u8fd0
p5009
I4
sV\u5f3a\u5236\u6027
p5010
I1
sV\u523a\u6fc0\u6027
p5011
I1
sV\u51b2\u51fb
p5012
I28
sV\u5b98\u65b9
p5013
I25
sV\u6cd5\u6848
p5014
I6
sV\u603b\u7ecf\u7406
p5015
I4
sV\u521b\u529e
p5016
I1
sV\u53d8\u901f
p5017
I1
sV\u56e0\u7d20
p5018
I57
sV\u6cd5\u6bd4\u5c24\u65af
p5019
I1
sV\u534f\u52a9
p5020
I4
sV\u9636\u7ea7
p5021
I1
sV\u96f6\u589e\u957f
p5022
I1
sV\u7194\u70bc\u7089
p5023
I1
sV\u4f0a\u6717
p5024
I17
sV\u5236\u6b62
p5025
I1
sV\u4ef7\u683c\u6218
p5026
I4
sV\u533b\u9662
p5027
I2
sV\u8fea\u897f
p5028
I1
sV\u96c6\u8d44
p5029
I1
sV\u64ac\u52a8
p5030
I1
sV\u804c\u707e
p5031
I1
sV\u6709\u6240
p5032
I33
sV\u8138\u8c31
p5033
I1
sV\u79c1\u4eba
p5034
I10
sV\u64bc\u52a8
p5035
I1
sV\u5206\u4f1a\u573a
p5036
I1
sV\u9605\u5175\u5f0f
p5037
I1
sV\u539f\u6cb9
p5038
I65
sV\u7a0e\u6536\u6536\u5165
p5039
I1
sV\u5c16\u7aef\u6280\u672f
p5040
I1
sV\u53cd\u7a0e
p5041
I1
sV\u4f4d\u5217
p5042
I5
sV\u53d7\u6b22\u8fce
p5043
I2
sV\u8bf4\u6765
p5044
I3
sV\u670d\u52a1\u4f53\u7cfb
p5045
I1
sV\u5f97\u5956\u8005
p5046
I1
sV\u75c5\u83cc
p5047
I1
sV\u75d5\u8ff9
p5048
I1
sV\u81ea\u6cbb\u533a
p5049
I1
sV\u6218\u5229\u54c1
p5050
I1
sV\u6d77\u9a6c
p5051
I1
sV\u7ecf\u5b63
p5052
I1
sV\u4eba\u6027\u5316
p5053
I1
sV\u964d\u96e8
p5054
I1
sV\u8bf4\u670d
p5055
I4
sV\u8fde\u8dcc
p5056
I1
sV\u8d37\u6b3e
p5057
I31
sV\u529e\u5382
p5058
I1
sV\u63d0\u5347
p5059
I29
sV\u521d\u73b0
p5060
I1
sV\u5e73\u5747\u6536\u5165
p5061
I1
sV\u73b0\u4efb
p5062
I4
sV\u6392\u653e
p5063
I9
sV\u8bbe\u7acb
p5064
I14
sV\u5de5\u5382
p5065
I8
sV\u98a0\u5012
p5066
I1
sV\u8d70\u51fa
p5067
I4
sV\u8ddf\u8e2a
p5068
I1
sV\u526f\u884c\u957f
p5069
I4
sV\u603b\u8bf4
p5070
I1
sV\u6587\u5316\u4ea4\u6d41
p5071
I1
sV\u6c99\u4e25
p5072
I1
sV\u53d8\u5f97
p5073
I11
sV\u6c11\u95f4
p5074
I4
sV\u670d\u88c5
p5075
I5
sV\u6587\u4ef6
p5076
I8
sV\u4e8b\u60c5
p5077
I6
sV\u5e8a\u5934
p5078
I1
sV\u5173\u952e\u5728\u4e8e
p5079
I1
sV\u8de8\u8d8a
p5080
I1
sV\u6e20\u9053
p5081
I4
sV\u9ad8\u70b9
p5082
I10
sV\u73b0\u8d27
p5083
I1
sV\u6350\u8d60\u4eba
p5084
I1
sV\u77f3\u8721
p5085
I1
sV\u672c\u5e01
p5086
I9
sV\u56fd\u738b
p5087
I1
sV\u9762\u5411
p5088
I8
sV\u7a7a\u88ad
p5089
I2
sV\u51fa\u552e
p5090
I9
sV\u53ef\u884c
p5091
I1
sV\u65c5\u6e38\u4e1a
p5092
I3
sV\u68c0\u6d4b
p5093
I4
sV\u9972\u6599
p5094
I1
sV\u8dcc\u7834
p5095
I8
sV\u6838\u80fd
p5096
I7
sV\u4ea7\u6cb9\u56fd
p5097
I7
sV\u5df2\u6709\u8fd1
p5098
I1
sV\u6b20\u6b3e
p5099
I1
sV\u9762\u5bf9
p5100
I21
sV\u79d1\u5b66\u9662
p5101
I2
sV\u4eb2\u53cb
p5102
I1
sV\u516c\u5171\u653f\u7b56
p5103
I1
sV\u652f\u6301\u8005
p5104
I2
sV\u8bd5\u4e58
p5105
I1
sV\u521b\u5efa
p5106
I4
sV\u91cd\u8d28\u539f\u6cb9
p5107
I1
sV\u9e70\u6d3e
p5108
I3
sV\u5370\u5c3c
p5109
I12
sV\u654f\u611f\u8bdd\u9898
p5110
I1
sV\u5370\u5ea6\u5c3c\u897f\u4e9a
p5111
I9
sV\u603b\u6536\u5165
p5112
I1
sV\u8ba4\u5b9a
p5113
I4
sV\u53ef\u5151\u6362
p5114
I1
sV\u79bb\u5cb8
p5115
I6
sV\u7f45\u9699
p5116
I1
sV\u503a\u5238\u5e02\u573a
p5117
I5
sV\u829d\u52a0\u54e5
p5118
I2
sV\u51fa\u95e8
p5119
I2
sV\u6e34\u671b
p5120
I1
sV\u89d2\u8272
p5121
I7
sV\u8d22\u653f\u653f\u7b56
p5122
I3
sV\u6253\u65ad
p5123
I1
sV\u8d70\u5eca
p5124
I5
sV\u7ec8\u88c1
p5125
I2
sV\u4eba\u7269
p5126
I1
sV\u672c\u56fd\u8d27\u5e01
p5127
I3
sV\u80fd\u591f
p5128
I57
sV\u4fe1\u606f\u6280\u672f
p5129
I2
sV\u914d\u6709
p5130
I1
sV\u641c\u5bfb
p5131
I1
sV\u5df2\u77e5
p5132
I1
sV\u603b\u5c40
p5133
I1
sV\u666f\u6d2a\u5e02
p5134
I1
sV\u52a0\u52d2\u6bd4\u6d77
p5135
I1
sV\u8f9e\u804c
p5136
I3
sV\u672a\u4e88
p5137
I2
sV\u9a7b\u4eac
p5138
I1
sV\u603b\u4ea7\u503c
p5139
I1
sV\u82f1\u683c\u5170
p5140
I6
sV\u94a2\u94c1\u5de5\u4eba
p5141
I1
sV\u5934\u8854
p5142
I2
sV\u4f24\u4ea1
p5143
I1
sV\u95ee\u9898
p5144
I156
sV\u5173\u4e4e
p5145
I1
sV\u6709\u610f
p5146
I2
sV\u5f39\u52be
p5147
I1
sV\u6301\u6709\u8005
p5148
I1
sV\u673a\u52a8\u8f66\u8f86
p5149
I1
sV\u9057\u4ea7
p5150
I2
sV\u6c34\u7535\u7ad9
p5151
I2
sV\u4e8b\u6001
p5152
I2
sV\u51fa\u4f17
p5153
I1
sV\u5206\u79bb\u4e3b\u4e49
p5154
I1
sV\u8fdb\u53e3\u56fd
p5155
I4
sV\u4e89\u8fa9
p5156
I2
sV\u5dee\u70b9
p5157
I1
sV\u8d44\u683c
p5158
I3
sV\u5171\u4f53
p5159
I3
sV\u4f01\u4e1a\u5bb6
p5160
I7
sV\u6d69\u9686
p5161
I1
sV\u96c6\u4e2d
p5162
I10
sV\u6807\u5fd7
p5163
I6
sV\u5f97\u4e0d\u5230
p5164
I1
sV\u79c1\u4eba\u8d44\u672c
p5165
I1
sV\u5ba3\u4f20
p5166
I4
sV\u8c03\u5347
p5167
I1
sV\u8d21\u732e
p5168
I13
sV\u9ad8\u623f\u4ef7
p5169
I1
sV\u503a\u6b3e
p5170
I1
sV\u9057\u4f53
p5171
I1
sV\u8fdc\u79bb
p5172
I1
sV\u5de5\u5177
p5173
I8
sV\u7a83\u53d6
p5174
I3
sV\u7533\u8bf7\u52a0\u5165
p5175
I3
sV\u660e\u7801\u6807\u4ef7
p5176
I1
sV\u5b58\u5728
p5177
I43
sV\u59bb\u5b50
p5178
I1
sV\u6e14\u4e1a
p5179
I2
sV\u7ef0\u53f7
p5180
I1
sV\u7275\u5236
p5181
I1
sV\u4e4c\u6cd5
p5182
I1
sV\u6295\u8d44\u5546
p5183
I2
sV\u5de5\u515a
p5184
I2
sV\u6b27\u7f8e
p5185
I8
sV\u8fd0\u884c
p5186
I4
sV\u9ec4\u91d1\u5e02\u573a
p5187
I1
sV\u9881\u5e03
p5188
I1
sV\u897f\u96c5\u56fe\u5e02
p5189
I1
sV\u94dc\u671f\u8d27
p5190
I1
sV\u6ce2\u5170
p5191
I7
sV\u8ba4\u540c
p5192
I2
sV\u603b\u4ea7\u91cf
p5193
I1
sV\u9519\u5931
p5194
I2
sV\u76d1\u7763
p5195
I4
sV\u62b5\u6d88
p5196
I10
sV\u80a1\u4ef7
p5197
I12
sV\u975e\u4f4f\u5b85
p5198
I1
sV\u9886\u5148
p5199
I2
sV\u751f\u673a
p5200
I1
sV\u7f72\u4e8e
p5201
I1
sV\u6b8b\u9ab8
p5202
I1
sV\u80a1\u4efd
p5203
I5
sV\u7ebf\u7d22
p5204
I4
sV\u5a74\u513f
p5205
I1
sV\u5408\u6cd5\u6743\u76ca
p5206
I1
sV\u8d70\u5f31
p5207
I1
sV\u914b\u957f\u56fd
p5208
I1
sV\u529f\u80fd\u5b9a\u4f4d
p5209
I1
sV\u8d70\u5f3a
p5210
I13
sV\u8bba\u8bc1
p5211
I1
sV\u6210\u4ea4\u91cf
p5212
I1
sV\u82cf\u5dde
p5213
I1
sV\u73b0\u8c61
p5214
I8
sV\u4ea7\u6743
p5215
I1
sV\u7efc\u5408\u5f81
p5216
I3
sV\u77f3\u6cb9\u8d44\u6e90
p5217
I1
sV\u590d\u8f9f
p5218
I1
sV\u76f8\u914d\u5957
p5219
I1
sV\u7eb3\u7a0e\u4eba
p5220
I2
sV\u51fa\u53e3\u7a0e
p5221
I2
sV\u793e\u8bba
p5222
I1
sV\u96c6\u4f53
p5223
I2
sV\u89e3\u6563
p5224
I1
sV\u9886\u519b
p5225
I1
sV\u767e\u4eba
p5226
I1
sV\u5750\u7262
p5227
I1
sV\u4e8f\u7a7a
p5228
I1
sV\u70df\u8349
p5229
I1
sV\u5de8\u989d\u8d22\u4ea7
p5230
I1
sV\u78b3\u6c22\u5316\u5408\u7269
p5231
I1
sV\u5357\u5171\u5e02
p5232
I1
sV\u80a1\u4efd\u516c\u53f8
p5233
I4
sV\u5236\u9020\u4e1a
p5234
I25
sV\u7fbd\u7ed2\u670d
p5235
I1
sV\u5df4\u5398
p5236
I2
sV\u60c5\u62a5
p5237
I2
sV\u7279\u70b9
p5238
I1
sV\u51fa\u54c1
p5239
I1
sV\u9020\u5bcc
p5240
I1
sV\u53d7\u7f5a
p5241
I1
sV\u5347\u7ea7
p5242
I18
sV\u540c\u5e97
p5243
I2
sV\u9875\u5ca9
p5244
I15
sV\u98ce\u5411\u6807
p5245
I1
sV\u6027\u652f\u51fa
p5246
I1
sV\u98ce\u9669\u7ba1\u7406
p5247
I1
sV\u8f7b\u8d28
p5248
I4
sV\u80a1\u4e1c
p5249
I5
sV\u6743\u91cd
p5250
I4
sV\u53cd\u5dee
p5251
I1
sV\u8138\u4e66
p5252
I1
sV\u7ade\u4e89\u5bf9\u624b
p5253
I3
sV\u4fe1\u662f
p5254
I1
sV\u975e\u8425\u5229
p5255
I1
sV\u6c11\u7528
p5256
I5
sV\u5a01\u671b
p5257
I1
sV\u8fbd\u5b81\u7701
p5258
I1
sV\u519c\u6237
p5259
I3
sV\u65e0\u73b0\u91d1
p5260
I1
sV\u5b64\u7acb
p5261
I2
sV\u5931\u53bb
p5262
I12
sV\u6cb9\u7802
p5263
I1
sV\u603b\u516c\u53f8
p5264
I1
sV\u4e3b\u7ba1
p5265
I16
sV\u94a2\u94c1\u5de5\u4e1a
p5266
I1
sV\u8fc7\u5269
p5267
I16
sV\u4e16\u8d38
p5268
I1
sV\u6309\u8ba1\u5212
p5269
I1
sV\u91d1\u878d\u516c\u53f8
p5270
I1
sV\u76ae\u5177
p5271
I1
sV\u6de1\u5b63
p5272
I2
sV\u6574\u5408
p5273
I3
sV\u6765\u81ea
p5274
I50
sV\u98ce\u6ce2
p5275
I1
sV\u5409\u54c8
p5276
I1
sV\u8857\u9053
p5277
I2
sV\u4ea7\u54c1\u8d28\u91cf
p5278
I1
sV\u904f\u5236
p5279
I5
sV\u7814\u7a76\u6240
p5280
I19
sV\u8fd0\u8f6c
p5281
I3
sV\u8282\u7701
p5282
I1
sV\u878d\u8d44
p5283
I25
sV\u955c\u5934
p5284
I1
sV\u5728\u6821
p5285
I1
sV\u4e00\u5e26
p5286
I18
sV\u6d88\u6781\u56e0\u7d20
p5287
I1
sV\u642d\u6863
p5288
I1
sV\u5de5\u7a0b\u5e08
p5289
I2
sV\u5e26\u7ed9
p5290
I1
sV\u5207\u5165\u70b9
p5291
I1
sV\u53cd\u5784\u65ad
p5292
I4
sV\u8fd0\u4f5c
p5293
I4
sV\u7eb7\u5448
p5294
I1
sV\u6c61\u67d3
p5295
I7
sV\u5206\u6790\u5bb6
p5296
I1
sV\u4e0a\u6da8
p5297
I26
sV\u907f\u98ce\u6e2f
p5298
I2
sV\u9605\u8bfb
p5299
I1
sV\u7c7b\u578b
p5300
I2
sV\u5e74\u5ea6\u8ba1\u5212
p5301
I1
sV\u526f\u4ea7\u54c1
p5302
I1
sV\u77e5\u9053
p5303
I4
sV\u4e9a\u6d32\u7248
p5304
I2
sV\u592b\u5987
p5305
I3
sV\u606f\u5dee
p5306
I2
sV\u5927\u725b\u5e02
p5307
I1
sV\u798f\u5229\u5236\u5ea6
p5308
I1
sV\u54c8\u6851\u533a
p5309
I1
sV\u96f6\u552e
p5310
I9
sV\u9662\u58eb
p5311
I1
sV\u6b63\u786e\u65b9\u5411
p5312
I1
sV\u5171\u540c\u5229\u76ca
p5313
I3
sV\u65f6\u5e94
p5314
I1
sV\u53cd\u9a73
p5315
I1
sV\u9a71\u52a8
p5316
I10
sV\u8d44\u6e90
p5317
I18
sV\u7ea6\u675f\u529b
p5318
I3
sV\u5bf9\u65b9
p5319
I3
sV\u53cc\u80de\u80ce
p5320
I1
sV\u8bf7\u6c42
p5321
I3
sV\u7edf\u8ba1\u6570\u636e
p5322
I2
sV\u5230\u4efb
p5323
I1
sV\u542f\u52a8
p5324
I20
sV\u7f51\u7edc
p5325
I16
sV\u6570\u503c
p5326
I4
sV\u5927\u76d8
p5327
I2
sV\u8bd5\u884c
p5328
I1
sV\u65b0\u52a0\u5761
p5329
I15
sV\u7194\u65ad
p5330
I1
sV\u6b66\u88c5
p5331
I3
sV\u592b\u59bb
p5332
I1
sV\u4ea7\u54c1\u4ef7\u683c
p5333
I3
sV\u65f6\u5c1a
p5334
I1
sV\u6001\u52bf
p5335
I5
sV\u5916\u6d41
p5336
I2
sV\u6c38\u5229
p5337
I1
sV\u4fe1\u606f\u7cfb\u7edf
p5338
I1
sV\u8001\u724c
p5339
I2
sV\u51fa\u53e3
p5340
I73
sV\u8f7d\u5ba2\u91cf
p5341
I1
sV\u4e4c\u65b9
p5342
I1
sV\u6d8c\u5165
p5343
I2
sV\u53d7\u635f
p5344
I2
sV\u6709\u6743
p5345
I1
sV\u51fa\u53f0
p5346
I7
sV\u5229\u6bd4\u91cc\u4e9a
p5347
I1
sV\u9887\u5177
p5348
I1
sV\u989c\u8272
p5349
I1
sV\u5236\u5ea6
p5350
I10
sV\u5bfb\u6c42
p5351
I8
sV\u5e03\u5b9c\u8bfa\u65af\u827e\u5229\u65af\u5e02
p5352
I1
sV\u4e2d\u7f8e\u6d32
p5353
I1
sV\u79c1\u8425\u90e8\u95e8
p5354
I1
sV\u7535\u53f0
p5355
I2
sV\u63a3\u8098
p5356
I1
sV\u70bc\u5382
p5357
I1
sV\u9910\u5385
p5358
I1
sV\u96f6\u914d\u4ef6
p5359
I1
sV\u5305\u5bb9
p5360
I5
sV\u4ea4\u6613\u8005
p5361
I4
sV\u51fa\u53d1
p5362
I3
sV\u5370\u5a92
p5363
I1
sV\u7834\u635f
p5364
I1
sV\u6709\u671b
p5365
I24
sV\u5a92\u79f0
p5366
I2
sV\u5e02\u573a\u5316
p5367
I6
sV\u89d2\u843d
p5368
I1
sV\u524d\u666f
p5369
I35
sV\u9996\u4f8b
p5370
I1
sV\u64ad\u4e0b
p5371
I1
sV\u671f\u9650
p5372
I6
sV\u5bbd\u5ea6
p5373
I1
sV\u5047\u836f
p5374
I1
sV\u4e56\u5b69\u5b50
p5375
I1
sV\u80af\u626c
p5376
I1
sV\u8fc7\u8def\u8d39
p5377
I1
sV\u6295\u8d44\u54c1
p5378
I1
sV\u6269\u5f20
p5379
I10
sV\u949f\u60c5
p5380
I1
sV\u4f18\u5f85
p5381
I1
sV\u51b7\u51bb
p5382
I1
sV\u5021\u5bfc
p5383
I2
sV\u7ef4\u6301
p5384
I33
sV\u8fd0\u8f93
p5385
I13
sV\u4e70\u5bb6
p5386
I14
sV\u78cb\u5546
p5387
I9
sV\u5b9a\u989d
p5388
I1
sV\u5b9e\u73b0
p5389
I59
sV\u623f\u4ea7\u4ea4\u6613
p5390
I1
sV\u4f4e\u6c34\u5e73
p5391
I1
sV\u4e0a\u6d77
p5392
I19
sV\u53d7\u632b
p5393
I2
sV\u6700\u4f4e\u6c34\u5e73
p5394
I4
sV\u4e86\u89e3
p5395
I16
sV\u8d38\u6613\u90e8\u957f
p5396
I1
sV\u9996\u8981\u4efb\u52a1
p5397
I1
sV\u5de5\u5546\u754c
p5398
I1
sV\u56fd\u754c
p5399
I1
sV\u5e74\u62a5
p5400
I2
sV\u5df4\u58eb
p5401
I1
sV\u786e\u7acb
p5402
I2
sV\u7a3f\u4ef6
p5403
I1
sV\u7269\u4ef7
p5404
I4
sV\u9886\u571f
p5405
I2
sV\u6c42\u751f\u5b58
p5406
I1
sV\u6545\u969c
p5407
I1
sV\u535a\u58eb
p5408
I2
sV\u6218\u7565\u610f\u4e49
p5409
I2
sV\u6551\u4e16\u4e3b
p5410
I1
sV\u836f\u5e97
p5411
I1
sV\u770b\u7a7a
p5412
I1
sV\u9001\u4ea4
p5413
I1
sV\u6210\u672c
p5414
I51
sV\u87ba\u4e1d
p5415
I1
sV\u75db\u51fb
p5416
I1
sV\u65c5\u6e38\u754c
p5417
I1
sV\u589e\u957f\u7387
p5418
I6
sV\u6ce8\u518c\u4eba\u6570
p5419
I1
sV\u6df1\u5ea6
p5420
I3
sV\u665a\u5bb4
p5421
I3
sV\u5bf9\u6bd4
p5422
I2
sV\u7a7a\u8fd0
p5423
I1
sV\u5c40\u9650\u4e8e
p5424
I1
sV\u6838\u5de5\u4e1a
p5425
I3
sV\u63d0\u524d
p5426
I2
sV\u7ade\u6807
p5427
I3
sV\u8981\u52a1
p5428
I1
sV\u63d0\u5230
p5429
I7
sV\u4e0d\u80af
p5430
I1
sV\u666f\u89c2
p5431
I1
sV\u4e2d\u56fd\u9999\u6e2f
p5432
I3
sV\u8d23\u4efb
p5433
I5
sV\u521b\u59cb
p5434
I14
sV\u6559\u5f92
p5435
I1
sV\u8d77\u4e49\u519b
p5436
I1
sV\u83b7\u5956\u8005
p5437
I2
sV\u786e\u77e5
p5438
I1
sV\u7f3a\u4e4f
p5439
I15
sV\u5546\u673a
p5440
I3
sV\u7ba1\u7406\u5c40
p5441
I5
sV\u7ba1\u7406\u5c42
p5442
I4
sV\u620f\u8a00
p5443
I1
sV\u505c\u6b65
p5444
I1
sV\u505c\u6b62
p5445
I13
sV\u6cbb\u7406
p5446
I20
sV\u65e0\u6cd5
p5447
I29
sV\u7ef4\u62a4
p5448
I9
sV\u9644\u52a0\u503c
p5449
I2
sV\u8f6c\u4e3a
p5450
I5
sV\u5f00\u95e8
p5451
I2
sV\u6d77\u5e26
p5452
I1
sV\u98ce\u6d6a
p5453
I1
sV\u8fd0\u4ef7
p5454
I2
sV\u5916\u6c47
p5455
I19
sV\u671f\u8d27\u4ea4\u6613
p5456
I1
sV\u6280\u672f\u79fb\u6c11
p5457
I2
sV\u51b2\u9500
p5458
I2
sV\u4ef7\u94b1
p5459
I1
sV\u51b3\u5fc3
p5460
I2
sV\u6210\u540d
p5461
I1
sV\u88c1\u5b9a
p5462
I5
sV\u6570\u91cf
p5463
I18
sV\u53d7\u6258
p5464
I1
sV\u6253\u6298
p5465
I1
sV\u751f\u6d3b
p5466
I19
sV\u5236\u7ea6
p5467
I2
sV\u79f0\u4e4b\u4e3a
p5468
I1
sV\u6d2a\u90fd\u62c9\u65af
p5469
I1
sV\u8d2a\u8150
p5470
I1
sV\u6210\u679c
p5471
I17
sV\u53ef\u8fbe
p5472
I2
sV\u653f\u754c
p5473
I1
sV\u5b8c\u6210
p5474
I27
sV\u5c40\u5916\u4eba
p5475
I1
sV\u603b\u6570
p5476
I1
sV\u5c55\u5f00
p5477
I18
sV\u65f6\u95f4\u63a8\u79fb
p5478
I1
sV\u51fa\u52a8
p5479
I1
sV\u5b58\u91cf
p5480
I1
sV\u7535\u529b
p5481
I9
sV\u8c03\u89e3\u4eba
p5482
I1
sV\u7ecf\u6d4e\u8d26
p5483
I1
sV\u51c6\u5219
p5484
I1
sV\u8bbe\u5728
p5485
I5
sV\u9886\u57df
p5486
I92
sV\u6ee1\u8db3
p5487
I10
sV\u73af\u5c9b
p5488
I1
sV\u6210\u7acb
p5489
I17
sV\u519c\u4ea7\u54c1
p5490
I10
sV\u8ba9\u6b65
p5491
I3
sV\u53d8\u6570
p5492
I1
sV\u5230\u4f4d
p5493
I2
sV\u4e91\u9521
p5494
I1
sV\u6b27\u6d32\u5730\u533a
p5495
I1
sV\u51e1\u4e8b
p5496
I1
sV\u52a0\u7a0e
p5497
I1
sV\u57ce\u9547\u5316
p5498
I4
sV\u7535\u52a8
p5499
I1
sV\u7f29\u51cf
p5500
I8
sV\u526f\u6559\u6388
p5501
I1
sV\u9887\u53d7
p5502
I1
sV\u8d85\u5e02
p5503
I4
sV\u4fdd\u5b88\u515a
p5504
I1
sV\u62a4\u58eb
p5505
I1
sV\u8c03\u964d
p5506
I2
sV\u5b89\u8054
p5507
I1
sV\u6c14\u7530
p5508
I3
sV\u60ac\u5d16
p5509
I1
sV\u751f\u9c9c\u98df\u54c1
p5510
I1
sV\u53d1\u6325
p5511
I15
sV\u589e\u957f\u70b9
p5512
I1
sV\u843d\u5730
p5513
I2
sV\u7ffb\u756a
p5514
I1
sV\u53ef\u8c13
p5515
I1
sV\u8840\u7edf
p5516
I1
sV\u7ba1\u7ebf
p5517
I2
sV\u5357\u8f66
p5518
I2
sV\u4e13\u5458
p5519
I1
sV\u8461\u8404\u9152
p5520
I2
sV\u59d4\u6258
p5521
I2
sV\u9ad8\u6cb9\u4ef7
p5522
I1
sV\u539f\u6cb9\u4ef7\u683c
p5523
I18
sV\u8bad\u7ec3\u8425
p5524
I1
sV\u7f34\u7eb3
p5525
I1
sV\u8861\u91cf
p5526
I9
sV\u51cf\u4ea7
p5527
I16
sV\u6d17\u94b1
p5528
I1
sV\u4e4b\u65e5\u8d77
p5529
I2
sV\u524d\u5973\u53cb
p5530
I1
sV\u79c1\u5bb6\u8f66
p5531
I1
sV\u5237\u5361\u673a
p5532
I1
sV\u540c\u5b66
p5533
I1
sV\u519c\u6797
p5534
I1
sV\u62c9\u4f4e
p5535
I1
sV\u8fd0\u8d39
p5536
I2
sV\u547c\u5438
p5537
I4
sV\u539f\u4ea7
p5538
I2
sV\u5ef6\u4f38
p5539
I3
sV\u5916\u56fd\u8d27
p5540
I1
sV\u5927\u4f7f\u9986
p5541
I1
sV\u88c5\u7f6e
p5542
I1
sV\u5546\u54c1\u751f\u4ea7
p5543
I2
sV\u534f\u5546
p5544
I4
sV\u8fb9\u5883
p5545
I8
sV\u82f1\u56fd
p5546
I87
sV\u603b\u989d
p5547
I13
sV\u7535\u89c6\u5267
p5548
I1
sV\u706b\u529b
p5549
I1
sV\u5356\u4ef7
p5550
I1
sV\u518d\u751f
p5551
I2
sV\u6124\u6012
p5552
I1
sV\u6700\u8ba9\u4eba
p5553
I1
sV\u5c5e\u4e8e
p5554
I4
sV\u519c\u6751
p5555
I2
sV\u4e0a\u6f14
p5556
I1
sV\u8868\u51b3
p5557
I3
sV\u8d70\u9ad8
p5558
I10
sV\u5f69\u8272
p5559
I1
sV\u4e16\u884c
p5560
I9
sV\u5077\u6765
p5561
I1
sV\u5e26\u5934
p5562
I1
sV\u6295\u8d44\u90e8
p5563
I1
sV\u6709\u9650\u516c\u53f8
p5564
I8
sV\u793e\u4ea4
p5565
I2
sV\u5851\u6599\u5236\u54c1
p5566
I1
sV\u4fe1\u606f\u5185\u5bb9
p5567
I1
sV\u8fc7\u5934
p5568
I3
sV\u8fc7\u5931
p5569
I1
sV\u8017\u65f6
p5570
I1
sV\u589e\u8d44
p5571
I1
sV\u751f\u4ea7\u7387
p5572
I7
sV\u8def\u8fc7
p5573
I1
sV\u5f53\u5730\u653f\u5e9c
p5574
I2
sV\u51c6\u5165
p5575
I1
sV\u5f39\u56de
p5576
I1
sV\u7845\u8c37
p5577
I1
sV\u8c34\u8d23
p5578
I1
sV\u9650\u884c
p5579
I1
sV\u5ef6\u8fdf
p5580
I4
sV\u9884\u7b97\u8d64\u5b57
p5581
I1
sV\u9ad8\u5b66\u5386
p5582
I1
sV\u7269\u8d28
p5583
I1
sV\u94b1\u5305
p5584
I1
sV\u6297\u62d2
p5585
I1
sV\u5229\u5dee
p5586
I1
sV\u671d\u91ce
p5587
I1
sV\u63d0\u9192
p5588
I3
sV\u4e89\u8bba
p5589
I1
sV\u5b89\u68c0
p5590
I1
sV\u62d3\u8352
p5591
I1
sV\u4ea4\u53c9
p5592
I1
sV\u7a7a\u8c03
p5593
I3
sV\u5151\u6362
p5594
I4
sV\u8d5e\u626c
p5595
I1
sV\u6d88\u606f
p5596
I55
sV\u526f\u6240\u957f
p5597
I1
sV\u4e89\u8bae
p5598
I8
sV\u7f29\u77ed
p5599
I2
sV\u89e3\u653e
p5600
I1
sV\u7ecf\u6d4e\u65e5\u62a5
p5601
I1
sV\u5b66\u5bb6
p5602
I1
sV\u6e38\u5ba2
p5603
I11
sV\u5317\u7f8e
p5604
I4
sV\u6247\u8d1d
p5605
I1
sV\u5e73\u884c
p5606
I2
sV\u6210\u653f
p5607
I1
sV\u5f00\u542f
p5608
I7
sV\u5723\u4eba
p5609
I1
sV\u5916\u51fa
p5610
I1
sV\u8fc7\u5883
p5611
I1
sV\u6311\u62e8
p5612
I1
sV\u8bbe\u8ba1\u5e08
p5613
I1
sV\u7236\u8f88
p5614
I2
sV\u7b49\u5f85
p5615
I5
sV\u738b\u56fd
p5616
I1
sVA\u80a1
p5617
I4
sV\u5999\u65b9
p5618
I1
sV\u793e\u4f1a
p5619
I39
sV\u534f\u540c
p5620
I2
sV\u91d1\u7816
p5621
I19
sV\u53cd\u590d
p5622
I1
sV\u9aa8\u9ad3
p5623
I1
sV\u5de5\u5546
p5624
I1
sV\u65b0\u623f
p5625
I4
sV\u7ebd\u7ea6\u5e02
p5626
I1
sV\u606a\u5b88
p5627
I2
sV\u6cdb\u6ee5
p5628
I1
sV\u4fe1\u6258
p5629
I2
sV\u8054\u7edc\u5458
p5630
I1
sV\u81ea\u5c01
p5631
I1
sV\u88ad\u51fb
p5632
I2
sV\u8d44\u6df1
p5633
I6
sV\u516c\u7ea6
p5634
I4
sV\u9009\u5b9a
p5635
I1
sV\u6d77\u5ce1
p5636
I1
sV\u505a\u5e02\u5546
p5637
I1
sV\u6267\u653f
p5638
I1
sV\u9e3d\u6d3e
p5639
I2
sV\u5165\u80a1
p5640
I1
sV\u8106\u5f31\u6027
p5641
I1
sV\u4fc3\u8fdb
p5642
I48
sV\u5b9a\u671f
p5643
I3
sV\u65b0\u624b
p5644
I1
sV\u6d3b\u52a8
p5645
I32
sV\u638c\u95e8\u4eba
p5646
I1
sV\u73b0\u884c
p5647
I3
sV\u586b\u8865
p5648
I1
sV\u4ea4\u6d89
p5649
I1
sV\u6d3b\u529b
p5650
I6
sV\u63d0\u901f
p5651
I1
sV\u56fd\u9645\u4e8b\u52a1
p5652
I2
sV\u79cd\u5b50
p5653
I1
sV\u6c34\u6ce5
p5654
I2
sV\u5229\u7528\u7387
p5655
I1
sV\u4e88\u4ee5
p5656
I1
sV\u4e0d\u660e
p5657
I1
sV\u98ce\u6f6e
p5658
I1
sV\u53d6\u6d88
p5659
I13
sV\u7740\u624b
p5660
I4
sV\u5e73\u6c11
p5661
I1
sV\u8fdd\u89c4
p5662
I2
sV\u8f7b\u677e\u81ea\u5982
p5663
I1
sV\u64b0\u6587
p5664
I2
sV\u79fb\u4ea4
p5665
I1
sV\u9ec4\u91d1\u4ef7\u683c
p5666
I5
sV\u4e9a\u7684\u65af\u4e9a\u8d1d\u5df4
p5667
I3
sV\u7f8e\u6d32
p5668
I1
sV\u94a2\u94c1
p5669
I13
sV\u4e8b\u6545
p5670
I3
sV\u5b89\u88c5
p5671
I4
sV\u8d5e\u6210
p5672
I2
sV\u6269\u5c55
p5673
I1
sV\u53cd\u9988
p5674
I1
sV\u4ea4\u6d41
p5675
I20
sV\u6301\u5e73
p5676
I4
sV\u9a7e\u8f66
p5677
I1
sV\u8def\u6bb5
p5678
I1
sV\u5bb6\u4e61
p5679
I2
sV\u5a49\u62d2
p5680
I1
sV\u53ec\u5f00
p5681
I15
sV\u5bf9\u8c61
p5682
I4
sV\u5acc\u72af
p5683
I1
sV\u6267\u6cd5
p5684
I7
sV\u73a9\u5177
p5685
I1
sV\u51cf\u707e
p5686
I1
sV\u7bb1\u5305
p5687
I1
sV\u5b88\u4f4f
p5688
I1
sV\u76f4\u5230
p5689
I3
sV\u5f71\u54cd
p5690
I125
sV\u5357\u4e9a
p5691
I5
sV\u521d\u59cb
p5692
I2
sV\u610f\u613f
p5693
I4
sV\u52a0\u7801
p5694
I2
sV\u6709\u6ca1\u6709
p5695
I1
sV\u6323\u624e
p5696
I1
sV\u5409\u6797\u7701
p5697
I1
sV\u9644\u5e26
p5698
I1
sV\u6311\u6218
p5699
I23
sV\u5171\u5efa
p5700
I2
sV\u5632\u8bbd
p5701
I1
sV\u7535\u90ae
p5702
I1
sV\u4fc3\u4f7f
p5703
I12
sV\u7801\u5934
p5704
I2
sV\u7535\u89c6\u53f0
p5705
I2
sV\u8bc6\u522b
p5706
I1
sV\u4e50\u610f
p5707
I1
sV\u539f\u544a
p5708
I1
sV\u7a33\u8d5a
p5709
I1
sV\u7a33\u5b9a\u6027
p5710
I2
sV\u4efb\u6027
p5711
I1
sV\u7279\u79cd\u90e8\u961f
p5712
I1
sV\u624b\u5934
p5713
I2
sV\u54a8\u8be2
p5714
I4
sV\u9ad8\u5ea6\u8bc4\u4ef7
p5715
I1
sV\u52b3\u5de5\u5e02\u573a
p5716
I2
sV\u5efa\u884c
p5717
I2
sV\u6218\u706b
p5718
I1
sV\u9996\u521b
p5719
I2
sV\u9020\u5047
p5720
I1
sV\u53cd\u5bf9\u6d3e
p5721
I1
sV\u7275\u5934
p5722
I2
sV\u8d22\u7ecf
p5723
I5
sV\u7535\u5f71
p5724
I1
sV\u5f00\u652f
p5725
I5
sV\u8054\u8fd0
p5726
I1
sV\u4f01\u4e1a\u503a\u5238
p5727
I1
sV\u62d8\u62bc
p5728
I1
sV\u65b0\u6d25
p5729
I2
sV\u73af\u7403\u7f51
p5730
I20
sV\u5f00\u653e
p5731
I24
sV\u7eb3\u5165
p5732
I15
sV\u4e1c\u5317
p5733
I3
sV\u8d70\u5411
p5734
I9
sV\u5b89\u4e1c
p5735
I1
sV\u6df1\u53d7
p5736
I2
sV\u7269\u4ef7\u6c34\u5e73
p5737
I1
sV\u6210\u529f\u7387
p5738
I1
sV\u5bb3\u6015
p5739
I2
sV\u5e72\u9884
p5740
I10
sV\u6a2a\u65ad
p5741
I1
sV\u79ef\u805a
p5742
I1
sV\u8d2b\u56f0\u7387
p5743
I1
sV\u5165\u4fb5
p5744
I1
sV\u4f9b\u9700\u5e73\u8861
p5745
I1
sV\u4e0b\u8c03
p5746
I18
sV\u5fe0\u5fc3
p5747
I1
sV\u96be\u9003
p5748
I1
sV\u9ad8\u7aef
p5749
I9
sV\u6001\u5ea6
p5750
I13
sV\u534e\u5a01
p5751
I1
sV\u95ee\u5238
p5752
I1
sV\u7687\u5ba4
p5753
I1
sV\u5197\u957f
p5754
I1
sV\u544a\u6025
p5755
I1
sV\u8bfe\u5802
p5756
I1
sV\u65f6\u901f
p5757
I2
sV\u8001\u9f84\u5316
p5758
I4
sV\u539f\u6599
p5759
I1
sV\u996e\u98df
p5760
I1
sV\u6ce8\u518c\u5546\u6807
p5761
I2
sV\u4e0a\u8bc9
p5762
I1
sV\u85cf\u533f
p5763
I2
sV\u8bbf\u95ee
p5764
I30
sV\u4eab\u53d7
p5765
I2
sV\u5927\u6c14
p5766
I1
sV\u6e24\u6d77
p5767
I1
sV\u957f\u5927
p5768
I1
sV\u793e\u4f1a\u4e3b\u4e49
p5769
I1
sV\u751f\u6001
p5770
I2
sV\u5165\u4f4f
p5771
I2
sV\u65e5\u62c9
p5772
I1
sV\u6e56\u5149\u5c71\u8272
p5773
I1
sV\u5371\u9669\u6027
p5774
I2
sV\u7f8e\u56fd\u80a1\u5e02
p5775
I5
sV\u8fb9\u9645
p5776
I8
sV\u5916\u7c4d
p5777
I2
sV\u63a9\u62a4
p5778
I1
sV\u5b69\u5b50
p5779
I7
sV\u541e\u566c
p5780
I2
sV\u534f\u5b9a
p5781
I38
sV\u6b63\u8bd5\u56fe
p5782
I1
sV\u591a\u6781\u5316
p5783
I1
sV\u603b\u548c
p5784
I2
sV\u51cf\u7f13
p5785
I11
sV\u611f\u8c22
p5786
I1
sV\u5173\u952e\u6027
p5787
I2
sV\u8f6c\u5230
p5788
I1
sV\u6301\u7eed\u589e\u957f
p5789
I4
sV\u65e5\u62a5
p5790
I6
sV\u603b\u7edf\u5927\u9009
p5791
I4
sV\u6452\u5f03
p5792
I1
sV\u900f\u660e\u6027
p5793
I1
sV\u91d1\u77ff
p5794
I2
sV\u673a\u7ec4\u4eba\u5458
p5795
I2
sV\u8fdb\u7a0b
p5796
I20
sV\u5408\u7406\u5316
p5797
I1
sV\u5185\u9700
p5798
I2
sV\u77ff\u4e1a
p5799
I12
sV\u8bfe\u9898
p5800
I1
sV\u707e\u96be\u6027
p5801
I1
sV\u9001\u6cb9
p5802
I1
sV\u8de8\u56fd\u516c\u53f8
p5803
I1
sV\u7279\u5730
p5804
I1
sV\u6d88\u606f\u4eba\u58eb
p5805
I5
sV\u5377\u8f74
p5806
I1
sV\u653f\u8981
p5807
I3
sV\u5ba1\u8ba1\u957f
p5808
I1
sV\u5546\u6807\u6743
p5809
I1
sV\u6307\u5411
p5810
I2
sV\u7ed3\u7b97\u4ef7
p5811
I1
sV\u63d0\u610f\u89c1
p5812
I1
sV\u589e\u957f\u52bf\u5934
p5813
I2
sV\u73af\u6e24\u6d77\u5730\u533a
p5814
I1
sV\u8b66\u65b9
p5815
I2
sV\u4e11\u95fb
p5816
I7
sV\u76f8\u4fe1
p5817
I33
sV\u77d7\u7acb
p5818
I1
sV\u653e\u8d37
p5819
I4
sV\u7626\u8eab
p5820
I1
sV\u64a4\u51fa
p5821
I6
sV\u504f\u5f3a
p5822
I1
sV\u6cb9\u7530
p5823
I7
sV\u805a\u9996
p5824
I1
sV\u8425\u5730
p5825
I1
sV\u582a\u57f9\u62c9
p5826
I1
sV\u58f0\u97f3
p5827
I4
sV\u884c\u60c5
p5828
I5
sV\u9791\u977c\u65af\u5766
p5829
I1
sV\u517b\u6b96
p5830
I2
sV\u5bfc\u822a
p5831
I1
sV\u9ad8\u7ba1
p5832
I2
sV\u95e8\u5e97
p5833
I4
sV\u80fd\u529b
p5834
I38
sV\u6838\u5fc3\u5185\u5bb9
p5835
I1
sV\u4e4d\u5f97
p5836
I1
sV\u7ffb\u5f00
p5837
I1
sV\u4ee5\u8272\u5217
p5838
I1
sV\u591a\u7459\u6cb3
p5839
I2
sV\u6c14\u5019\u53d8\u5316
p5840
I20
sV\u559d\u676f
p5841
I1
sV\u76f8\u8fd1
p5842
I2
sV\u53ef\u4e3a
p5843
I1
sV\u670d\u52a1
p5844
I36
sV\u51fa\u5e2d
p5845
I27
sV\u90ae\u7bb1\u5730\u5740
p5846
I1
sV\u9002\u5408
p5847
I4
sV\u8fc8\u5411
p5848
I1
sV\u771f\u9762\u76ee
p5849
I1
sV\u4f19\u4f34\u5173\u7cfb
p5850
I9
sV\u65e5\u7528\u54c1
p5851
I1
sV\u52df\u6350
p5852
I1
sV\u4e2d\u7f8e
p5853
I32
sV\u4f1a\u8bae
p5854
I56
sV\u8fdb\u53e3\u5173\u7a0e
p5855
I2
sV\u897f\u897f\u4f2f\u5229\u4e9a
p5856
I1
sV\u5448\u73b0
p5857
I7
sV\u4f1a\u8ba1
p5858
I2
sV\u53bf\u6c11
p5859
I1
sV\u5b57\u6837
p5860
I1
sV\u64a4\u519b
p5861
I1
sV\u7ecf\u53d7
p5862
I1
sV\u8f6f\u4ef6
p5863
I4
sV\u8d21\u732e\u529b\u91cf
p5864
I1
sV\u7cbe\u70bc
p5865
I3
sV\u8fbe\u5230
p5866
I71
sV\u8d44\u91d1\u5916\u6d41
p5867
I1
sV\u8ba8\u597d
p5868
I1
sV\u5242\u91cf
p5869
I1
sV\u4ea4\u6362
p5870
I7
sV\u81ea\u52a8
p5871
I4
sV\u822a\u7a7a\u4e1a
p5872
I1
sV\u6f29\u6da1
p5873
I1
sV\u4ea4\u7ed9
p5874
I1
sV\u4e24\u6781
p5875
I1
sV\u65b0\u6cb3
p5876
I1
sV\u5206\u91cf
p5877
I1
sV\u8ba1\u7b97\u673a
p5878
I2
sV\u975e\u76df
p5879
I4
sV\u6d1e\u7a74
p5880
I1
sV\u4e0b\u8dcc
p5881
I111
sV\u5598\u606f
p5882
I1
sV\u96be\u770b
p5883
I1
sV\u6d4b\u7b97
p5884
I1
sV\u4f11\u5047
p5885
I1
sV\u76f8\u4f50
p5886
I1
sV\u539f\u6750\u6599
p5887
I7
sV\u56fd\u52a1\u537f
p5888
I2
sV\u95ee\u53f7
p5889
I1
sV\u51fa\u5ead
p5890
I1
sV\u9879\u76ee\u7ecf\u7406
p5891
I2
sV\u7ba1\u7406\u90e8
p5892
I1
sV\u98ce\u5149
p5893
I1
sV\u60c5\u62a5\u673a\u6784
p5894
I1
sV\u4e13\u5bb6
p5895
I29
sV\u79d8\u4e66\u5904
p5896
I4
sV\u9662\u957f
p5897
I4
sV\u6293\u7d27
p5898
I1
sV\u8721\u70db
p5899
I2
sV\u76f8\u4f34
p5900
I1
sV\u5ba2\u6237\u7aef
p5901
I5
sV\u79df\u623f
p5902
I2
sV\u73b0\u5b9e\u610f\u4e49
p5903
I1
sV\u62df\u4e8e
p5904
I1
sV\u9886\u5bfc
p5905
I7
sV\u773c\u775b
p5906
I1
sV\u751f\u7406\u5b66
p5907
I1
sV\u533b\u5e08
p5908
I1
sV\u8ba4\u53ef
p5909
I3
sV\u4f4e\u7a7a\u98de\u884c
p5910
I1
sV\u4f30\u7b97
p5911
I6
sV\u8d38\u6613\u58c1\u5792
p5912
I1
sV\u7f51\u70b9
p5913
I2
sV\u6863\u6848
p5914
I1
sV\u6025\u6027
p5915
I1
sV\u8bf4\u6cd5
p5916
I7
sV\u8981\u804c
p5917
I1
sV\u4f9d\u8d56\u4e8e
p5918
I2
sV\u53d7\u5236\u4e8e
p5919
I1
sV\u7a0e\u52a1\u7cfb\u7edf
p5920
I1
sV\u539f\u6709
p5921
I1
sV\u7825\u783a
p5922
I1
sV\u4e2d\u745e
p5923
I3
sV\u5f00\u62d3\u6027
p5924
I1
sV\u623f\u79df
p5925
I1
sV\u8d77\u8bc9\u4e66
p5926
I1
sV\u4e9a\u592a\u7ecf\u6d4e
p5927
I2
sV\u611f\u4eba
p5928
I1
sV\u7528\u4f5c
p5929
I2
sV\u91c7\u8bbf
p5930
I38
sV\u886c\u886b
p5931
I1
sV\u7ef4\u62a4\u5458
p5932
I1
sV\u53cd\u5411
p5933
I1
sV\u5efa\u7b51\u5546
p5934
I3
sV\u5927\u96e8
p5935
I1
sV\u6d77\u519b
p5936
I1
sV\u8463\u4e8b
p5937
I7
sV\u6bdb\u91cc\u5854\u5c3c\u4e9a
p5938
I1
sV\u56e4\u79ef
p5939
I4
sV\u5bff\u547d
p5940
I1
sV\u738b\u5ba4
p5941
I3
sV\u6c34\u5229
p5942
I2
sV\u53cd\u5b63\u8282
p5943
I1
sV\u4e59\u9187
p5944
I2
sV\u5f15\u8ff0
p5945
I3
sV\u505c\u6446
p5946
I1
sV\u9996\u8111
p5947
I4
sV\u559c\u6b22
p5948
I3
sV\u8d4e\u91d1
p5949
I2
sV\u88c1\u5458
p5950
I6
sV\u7cae\u4ed3
p5951
I1
sV\u5de5\u4f5c\u8005
p5952
I1
sV\u4eac\u757f\u9053
p5953
I1
sV\u4f18\u8d28
p5954
I5
sV\u4e0d\u8f8d
p5955
I1
sV\u91cd\u8e48
p5956
I1
sV\u6b27\u6d32\u6e38
p5957
I1
sV\u788e\u7247
p5958
I1
sV\u91d1\u7ba1\u5c40
p5959
I2
sV\u626d\u8f6c
p5960
I1
sV\u80fd\u91cf
p5961
I1
sV\u5f53\u5c40
p5962
I7
sV\u5564\u9152
p5963
I2
sV\u5185\u5730
p5964
I6
sV\u4e9a\u6d32
p5965
I59
sV\u7cae\u4ef7
p5966
I2
sV\u901a\u654c
p5967
I1
sV\u91cd\u5de5
p5968
I3
sV\u897f\u4f2f\u5229\u4e9a
p5969
I3
sV\u507f\u503a
p5970
I3
sV\u7814\u7a76\u6cd5
p5971
I1
sV\u5938\u5f20
p5972
I1
sV\u5347\u5230
p5973
I1
sV\u8fc7\u9519
p5974
I1
sV\u5e7d\u9ed8\u611f
p5975
I1
sV\u53d1\u884c\u989d
p5976
I1
sV\u9884\u7b97
p5977
I19
sV\u7535\u529b\u516c\u53f8
p5978
I3
sV\u8fdc\u7a0b
p5979
I1
sV\u9762\u5305
p5980
I1
sV\u56f0\u6270
p5981
I3
sV\u5e26\u6709
p5982
I2
sV\u4f5c\u65b0
p5983
I1
sV\u54c8\u56fd
p5984
I1
sV\u900f\u8fc7
p5985
I1
sV\u5360\u8be5
p5986
I1
sV\u8feb\u5207\u9700\u8981
p5987
I1
sV\u7535\u5de5
p5988
I2
sV\u5168\u6743\u5927\u4f7f
p5989
I1
sV\u5750\u7b49
p5990
I1
sV\u6269\u5145
p5991
I3
sV\u8d70\u7ea2
p5992
I1
sV\u94f6\u884c\u5bb6
p5993
I2
sV\u653e\u4efb
p5994
I1
sV\u8bc1\u8bcd
p5995
I1
sV\u52a0\u8fbe\u6e56
p5996
I1
sV\u9a7e\u8f66\u8005
p5997
I1
sV\u6d77\u5174
p5998
I1
sV\u6d77\u5173
p5999
I3
sV\u53cc\u65b9
p6000
I71
sV\u6f5c\u85cf
p6001
I1
sV\u7ee7\u4e2d
p6002
I1
sV\u4e0e\u4f1a
p6003
I4
sV\u9635\u7ebf
p6004
I1
sV\u4e13\u9898
p6005
I2
sV\u88ab\u63a7
p6006
I1
sV\u5c3e\u7aef
p6007
I1
sV\u5723\u7075
p6008
I1
sV\u52a9\u542c\u5668
p6009
I1
sV\u957f\u5b50
p6010
I1
sV\u5e03\u6cb9
p6011
I1
sV\u5355\u65b9\u9762
p6012
I1
sV\u6df1\u5165
p6013
I10
sV\u54c1\u8d28
p6014
I2
sV\u65b0\u7eaa\u5f55
p6015
I3
sV\u77f3\u6cb9\u4e1a
p6016
I1
sV\u6c61\u67d3\u7269
p6017
I2
sV\u5355\u7ebf
p6018
I1
sV\u98df\u54c1\u7c7b
p6019
I2
sV\u77ff\u4ea7\u8d44\u6e90
p6020
I3
sV\u5185\u9646
p6021
I1
sV\u4f1a\u89c1
p6022
I7
sV\u8499\u7279\u5229\u5c14
p6023
I1
sV\u8f66\u53a2
p6024
I1
sV\u7279\u533a
p6025
I1
sV\u8d77\u70b9
p6026
I1
sV\u8868\u51b3\u6743
p6027
I1
sV\u6c11\u7cb9\u4e3b\u4e49
p6028
I1
sV\u60e9\u7f5a
p6029
I2
sV\u8f6c\u578b\u671f
p6030
I1
sV\u6350\u7ed9
p6031
I1
sV\u8425\u9500
p6032
I1
sV\u653f\u6cbb\u5b66\u5bb6
p6033
I1
sV\u8fdb\u51fa\u53e3
p6034
I2
sV\u7b26\u5408\u8981\u6c42
p6035
I1
sV\u699c\u5355
p6036
I3
sV\u53c2\u4f1a
p6037
I2
sV\u5f39\u5b54
p6038
I1
sV\u5e02\u4e2d\u5fc3
p6039
I1
sV\u81f4\u8f9e
p6040
I2
sV\u6765\u4eac
p6041
I1
sV\u4e2d\u4ea7\u9636\u7ea7
p6042
I2
sV\u533a\u57df\u5408\u4f5c
p6043
I2
sV\u5185\u9601
p6044
I1
sV\u76ee\u6807
p6045
I50
sV\u5409\u5b89
p6046
I1
sV\u7a0e\u57fa
p6047
I3
sV\u9152\u5e97
p6048
I5
sV\u852c\u83dc
p6049
I1
sV\u534e\u5c14\u8857
p6050
I21
sV\u82b1\u94b1
p6051
I2
sV\u5546\u5bb6
p6052
I2
sV\u8bb0\u8005\u4f1a
p6053
I5
sV\u5199\u4fe1
p6054
I1
sV\u82f1\u5bf8
p6055
I1
sV\u8425\u5546
p6056
I2
sV\u9644\u52a0
p6057
I1
sV\u5a5a\u59fb
p6058
I1
sV\u8fd8\u7ed9
p6059
I1
sV\u6700\u9ad8\u4ef7
p6060
I1
sV\u671d\u9c9c
p6061
I4
sV\u8fd0\u80fd
p6062
I1
sV\u751f\u4ea7\u7ebf
p6063
I1
sV\u672a\u8bf4\u660e
p6064
I1
sV\u6e83\u8d25
p6065
I1
sV\u5e94\u7528
p6066
I4
sV\u6d41\u5931
p6067
I1
sV\u9690\u542b
p6068
I1
sV\u83b1\u574a
p6069
I1
sV\u673a\u68b0
p6070
I1
sV\u56ed\u533a
p6071
I2
sV\u5c31\u4e1a\u7387
p6072
I1
sV\u81f4\u4f7f
p6073
I5
sV\u597d\u8bc4
p6074
I1
sV\u653f\u7b56
p6075
I107
sV\u56fd\u6c11\u6536\u5165
p6076
I1
sV\u7d22\u8d54
p6077
I2
sV\u79bb\u573a
p6078
I2
sV\u4f20\u7edf
p6079
I13
sV\u9009\u9879
p6080
I3
sV\u5efa\u8bae
p6081
I20
sV\u7701\u5e02
p6082
I1
sV\u6d4b\u8bd5
p6083
I3
sV\u7559\u610f
p6084
I1
sV\u6b7b\u6b7b
p6085
I1
sV\u672c\u5b63\u5ea6
p6086
I1
sV\u5efa\u8bbe
p6087
I90
sV\u53d7\u6c14
p6088
I1
sV\u65e0\u52a9\u4e8e
p6089
I1
sV\u623f\u4ea7\u516c\u53f8
p6090
I1
sV\u9000\u4f4d
p6091
I1
sV\u798f\u7530
p6092
I1
sV\u5206\u6570
p6093
I2
sV\u7ed3\u5a5a
p6094
I2
sV\u5f8b\u5e08
p6095
I4
sV\u4e0a\u626c
p6096
I2
sV\u6982\u5ff5
p6097
I3
sV\u907f\u514d
p6098
I11
sV\u5206\u6563
p6099
I2
sV\u5e73\u606f
p6100
I1
sV\u5c71\u5be8
p6101
I1
sV\u6c34\u679c
p6102
I2
sV\u4f11\u95f2
p6103
I1
sV\u4e70\u5356
p6104
I2
sV\u6c9f\u901a
p6105
I9
sV\u6838\u7535\u673a\u7ec4
p6106
I1
sV\u8d44\u6599
p6107
I3
sV\u4ea7\u54c1\u79cd\u7c7b
p6108
I1
sV\u7535\u5b50
p6109
I9
sV\u5854\u53f0
p6110
I1
sV\u6d89\u6848
p6111
I6
sV\u5c48\u4ece
p6112
I1
sV\u51fb\u8d25
p6113
I2
sV\u4e2d\u7f8e\u5408\u4f5c
p6114
I1
sV\u80af\u6069
p6115
I1
sV\u57fa\u672c\u9762
p6116
I8
sV\u4f1a\u4ee4
p6117
I2
sV\u540c\u7c7b\u4ea7\u54c1
p6118
I1
sV\u5141\u8bb8
p6119
I7
sV\u4e0b\u884c
p6120
I17
sV\u739b\u5229\u4e9a
p6121
I1
sV\u88c5\u673a\u5bb9\u91cf
p6122
I1
sV\u5ea6\u5047
p6123
I1
sV\u8bbe\u5382
p6124
I1
sV\u8fc8\u5165
p6125
I1
sV\u7f62\u5de5
p6126
I1
sV\u59d3\u540d
p6127
I3
sV\u516c\u53f8\u80a1\u7968
p6128
I1
sV\u6500\u5347
p6129
I3
sV\u582a\u79f0
p6130
I1
sV\u62b5\u6297
p6131
I1
sV\u56de\u7b54
p6132
I3
sV\u4eba\u53e3
p6133
I18
sV\u63d0\u53ca
p6134
I3
sV\u7279\u547d
p6135
I1
sV\u7b49\u4e3a
p6136
I1
sV\u9009\u62e9\u6743
p6137
I1
sV\u84b8\u6c7d
p6138
I1
sV\u505a\u6cd5
p6139
I7
sV\u6e05\u7b97
p6140
I5
sV\u62b5\u62bc
p6141
I1
sV\u89c1\u9762
p6142
I1
sV\u5370\u5236
p6143
I1
sV\u8b66\u60d5
p6144
I2
sV\u94dc\u77ff
p6145
I5
sV\u798f\u5188
p6146
I1
sV\u9ad8\u7ea7\u4f1a\u8bae
p6147
I1
sV\u521b\u59cb\u56fd
p6148
I1
sV\u65f6\u5411
p6149
I1
sV\u5f0a\u7aef
p6150
I1
sV\u63a5\u53d7
p6151
I59
sV\u4ea7\u4e1a\u9769\u547d
p6152
I1
sV\u897f\u6b27\u56fd\u5bb6
p6153
I1
sV\u5938\u5927
p6154
I1
sV\u6c5f\u82cf
p6155
I1
sV\u65e0\u56fd\u754c
p6156
I2
sV\u8bae\u4f1a
p6157
I9
sV\u533b\u5b66
p6158
I2
sV\u53d6\u6696
p6159
I1
sV\u5149\u660e
p6160
I2
sV\u7cd6\u679c
p6161
I1
sV\u6606\u660e
p6162
I2
sV\u6df1\u5733
p6163
I3
sV\u7406\u4e8b
p6164
I1
sV\u8bc9\u8bbc
p6165
I7
sV\u7ba1\u7406
p6166
I29
sV\u5e38\u6001
p6167
I8
sV\u623f\u7f51
p6168
I1
sV\u521b\u9020
p6169
I18
sV\u56fe\u4eec\u6c5f
p6170
I1
sV\u62a5\u4e1a
p6171
I2
sV\u91c7\u8d2d
p6172
I9
sV\u4ea7\u80fd
p6173
I17
sV\u91cd\u70b9\u9879\u76ee
p6174
I1
sV\u5973\u4eba
p6175
I1
sV\u4ef7\u5dee
p6176
I1
sV\u6da8\u5230
p6177
I2
sV\u5c1a\u9700
p6178
I1
sV\u6ba1\u846c
p6179
I1
sV\u6570\u989d
p6180
I3
sV\u6bd2\u7624
p6181
I1
sV\u4e66\u9762
p6182
I6
sV\u90a6\u4ea4
p6183
I1
sV\u907f\u9669
p6184
I8
sV\u884c\u653f
p6185
I1
sV\u5df4\u5c3c\u7279
p6186
I1
sV\u7586\u57df
p6187
I1
sV\u53cd\u5e94\u5806
p6188
I1
sV\u846c\u793c
p6189
I2
sV\u5f97\u77e5
p6190
I4
sV\u6218\u7565\u6027
p6191
I1
sV\u677f\u5757
p6192
I8
sV\u8bc4\u7ea7
p6193
I7
sV\u7cfb\u7edf
p6194
I18
sV\u4e2d\u4f4d\u6570
p6195
I1
sV\u7259\u533b
p6196
I1
sV\u5580\u5c71
p6197
I1
sV\u603b\u5206
p6198
I1
sV\u5207\u65ad
p6199
I1
sV\u5c40\u5c40\u957f
p6200
I1
sV\u897f\u53cc\u7248\u7eb3\u5dde
p6201
I1
sV\u8fc7\u6e21\u671f
p6202
I1
sV\u987a\u5dee
p6203
I1
sV\u4eba\u6587
p6204
I7
sV\u8bde\u751f
p6205
I2
sV\u8292\u683c
p6206
I1
sV\u7cbe\u6db2
p6207
I1
sV\u6269\u56f4
p6208
I1
sV\u73a9\u5bb6
p6209
I3
sV\u4f4f\u623f
p6210
I5
sV\u9884\u8a00\u5bb6
p6211
I1
sV\u957f\u5cad
p6212
I1
sV\u5c55\u73b0\u51fa
p6213
I1
sV\u80a1\u7968\u5e02\u573a
p6214
I1
sV\u8986\u8f99
p6215
I1
sV\u671f\u5f85
p6216
I7
sV\u5c0f\u7c73
p6217
I2
sV\u6536\u6b3e
p6218
I1
sV\u6469\u64e6
p6219
I2
sV\u9009\u51fa
p6220
I1
sV\u9000\u8d27
p6221
I1
sV\u6548\u80fd
p6222
I1
sV\u4e60\u4e0a
p6223
I1
sV\u98ce\u6c34
p6224
I1
sV\u5c71\u4e1c\u534a\u5c9b
p6225
I1
sV\u56de\u7a33
p6226
I1
sV\u6218\u7565
p6227
I48
sV\u517b\u6d3b
p6228
I1
sV\u8d70\u5165
p6229
I1
sV\u547d\u540d
p6230
I1
sV\u8d5a\u94b1
p6231
I4
sV\u503a\u6743\u4eba
p6232
I14
sV\u618e\u6068
p6233
I1
sV\u65e5\u672c
p6234
I90
sV\u591a\u7ef4\u5ea6
p6235
I1
sV\u8c03\u67e5\u6743
p6236
I1
sV\u67aa\u624b
p6237
I1
sV\u7eff\u8272
p6238
I9
sV\u5317\u5a01\u5dde
p6239
I1
sV\u8981\u4f4f
p6240
I1
sV\u8c6a\u95e8
p6241
I2
sV\u611f\u89c9
p6242
I2
sV\u63a8\u65ad
p6243
I1
sV\u6cbb\u7597
p6244
I3
sV\u94bb\u5165
p6245
I1
sV\u5747\u644a
p6246
I2
sV\u641c\u96c6
p6247
I3
sV\u6279\u51c6\u4e66
p6248
I1
sV\u8bc1\u5238\u5316
p6249
I1
sV\u5609\u5bbe
p6250
I1
sV\u901a\u62a5
p6251
I2
sV\u4ecb\u7ecd
p6252
I23
sV\u4e86\u4e2d
p6253
I1
sV\u4fee\u6539
p6254
I4
sV\u8bbf\u9009
p6255
I1
sV\u5730\u94c1\u7ad9
p6256
I1
sV\u91d1\u724c
p6257
I1
sV\u66f2\u7ebf
p6258
I6
sV\u97e9\u56fd
p6259
I35
sV\u75c5\u4f8b
p6260
I1
sV\u6bcf\u5428
p6261
I9
sV\u5bf9\u4e60
p6262
I1
sV\u7ec4\u7ec7
p6263
I35
sV\u5f15\u8d77
p6264
I8
sV\u8bbf\u95ee\u671f\u95f4
p6265
I3
sV\u8fc7\u5206
p6266
I2
sV\u65f6\u95f4
p6267
I166
sV\u60a3\u96be
p6268
I1
sV\u7814\u62a5
p6269
I1
sV\u63a5\u5230
p6270
I1
sV\u7ecf\u8425\u8005
p6271
I1
sV\u51cf\u7a0e
p6272
I3
sV\u80a5\u7682\u5267
p6273
I1
sV\u8fd4\u8fd8
p6274
I1
sV\u6676\u7247
p6275
I1
sV\u8d22\u8def
p6276
I1
sV\u53c2\u8003\u6d88\u606f
p6277
I2
sV\u63d0\u9ad8
p6278
I52
sV\u540d\u4e49
p6279
I2
sV\u76d1\u7981
p6280
I1
sV\u60ac\u5ff5
p6281
I1
sV\u9884\u793a
p6282
I1
sV\u6ce8\u610f
p6283
I8
sV\u620f\u5267\u6027
p6284
I5
sV\u8d1f\u8d23
p6285
I12
sV\u4fc4\u7f57\u65af
p6286
I89
sV\u52a9\u7406
p6287
I3
sV\u7559\u6709
p6288
I1
sV\u8bd5\u8fd0\u884c
p6289
I1
sV\u519c\u6c11
p6290
I3
sV\u5473\u9053
p6291
I1
sV\u5173\u6ce8\u70b9
p6292
I1
sV\u8f66\u957f
p6293
I1
sV\u5175\u79cd
p6294
I1
sV\u4e2d\u56fd\u56fd\u9645\u95ee\u9898\u7814\u7a76\u6240
p6295
I1
sV\u751f\u6548
p6296
I7
sV\u725b\u8089
p6297
I2
sV\u62cd\u5356\u884c
p6298
I1
sV\u62bc\u6ce8
p6299
I4
sV\u540d\u4e3a
p6300
I3
sV\u9884\u8c0b
p6301
I1
sV\u65e5\u672c\u9996\u76f8
p6302
I1
sV\u8d44\u672c
p6303
I46
sV\u91cd\u89c6
p6304
I4
sV\u6df1\u9677
p6305
I1
sV\u7f8e\u82cf
p6306
I1
sV\u523a\u6fc0
p6307
I27
sV\u64a4\u9500
p6308
I1
sV\u9897\u7c92\u7269
p6309
I1
sV\u9003\u79bb
p6310
I3
sV\u56fd\u7c4d
p6311
I1
sV\u62d4\u8349
p6312
I1
sV\u5e02\u573a\u7ecf\u6d4e
p6313
I8
sV\u540c\u50da
p6314
I1
sV\u7259\u5237
p6315
I1
sV\u4e0d\u8be5
p6316
I1
sV\u533b\u836f\u54c1
p6317
I1
sV\u4f9b\u6c14
p6318
I2
sV\u7a0e\u52a1
p6319
I4
sV\u76f8\u5e94
p6320
I8
sV\u6e38\u884c\u793a\u5a01
p6321
I1
sV\u65bd\u5de5
p6322
I3
sV\u7cbe\u70bc\u5382
p6323
I1
sV\u7740\u6bd4
p6324
I1
sV\u5f3a\u653b
p6325
I1
sV\u53ec\u56de
p6326
I2
sV\u603b\u90e8
p6327
I18
sV\u9020\u8239
p6328
I1
sV\u56de\u793c
p6329
I1
sV\u521d\u503c
p6330
I3
sV\u590d\u82cf
p6331
I49
sV\u5531\u7a7a
p6332
I1
sV\u8305\u53f0\u9152
p6333
I1
sV\u5e37\u5e55
p6334
I1
sV\u8bbf\u534e
p6335
I6
sV\u603b\u4e66\u8bb0
p6336
I1
sV\u4e70\u5165
p6337
I12
sV\u5bfc\u822a\u7cfb\u7edf
p6338
I1
sV\u7f51\u9875
p6339
I2
sV\u5b50\u516c\u53f8
p6340
I2
sV\u4e0d\u8ba1
p6341
I1
sV\u9003\u7a0e
p6342
I2
sV\u6253\u4ea4\u9053
p6343
I2
sV\u6863\u6b21
p6344
I1
sV\u4e0d\u8ba9
p6345
I1
sV\u7c3f\u8bb0
p6346
I1
sV\u4f9b\u6c42
p6347
I3
sV\u6765\u8bbf
p6348
I1
sV\u4fe1\u606f
p6349
I14
sV\u7edf\u6cbb
p6350
I1
sV\u98ce\u66b4
p6351
I2
sV\u5192\u9669
p6352
I1
sV\u6ca1\u94b1
p6353
I1
sV\u643a\u624b
p6354
I2
sV\u5976\u7c89
p6355
I3
sV\u4e30\u80f8
p6356
I1
sV\u5e0c\u814a
p6357
I29
sV\u7eaa\u5ff5\u7891
p6358
I1
sV\u6740\u5bb3
p6359
I1
sV\u6362\u53d6
p6360
I3
sV\u4fdd\u6301\u5e73\u8861
p6361
I1
sV\u51fa\u5916
p6362
I1
sV\u8d27\u5e01\u653f\u7b56
p6363
I45
sV\u7559\u610f\u5230
p6364
I1
sV\u94bb\u77f3
p6365
I3
sV\u53cc\u6570
p6366
I1
sV\u98ce\u666f
p6367
I2
sV\u6865\u6881
p6368
I1
sV\u540d\u66f2
p6369
I1
sV\u5904\u5883
p6370
I1
sV\u8840\u764c
p6371
I1
sV\u9881\u53d1
p6372
I1
sV\u745e\u5eb7
p6373
I1
sV\u6c7d\u8f66\u9500\u91cf
p6374
I1
sV\u6742\u5fd7
p6375
I8
sV\u9500\u552e\u989d
p6376
I2
sV\u5f3a\u65b9
p6377
I1
sV\u53d8\u5316
p6378
I23
sV\u7a0e\u5236
p6379
I4
sV\u73af\u5883\u4fdd\u62a4
p6380
I3
sV\u51bb\u7ed3
p6381
I2
sV\u8b66\u6212
p6382
I1
sV\u6bd4\u7387
p6383
I6
sV\u57f9\u690d
p6384
I1
sV\u542b\u950c
p6385
I1
sV\u5206\u6b67
p6386
I14
sV\u4e58\u5ba2
p6387
I3
sV\u5355\u7b14
p6388
I1
sV\u4e2a\u4f53
p6389
I1
sV\u7a0e\u5219
p6390
I1
sV\u533a\u57df\u6027
p6391
I5
sV\u4f1a\u8c08
p6392
I10
sV\u8d27\u54c1
p6393
I1
sV\u63a5\u5165
p6394
I1
sV\u72ec\u7acb\u6027
p6395
I1
sV\u964d\u606f
p6396
I9
sV\u5927\u7c7b
p6397
I1
sV\u5229\u7528\u5916\u8d44
p6398
I1
sV\u4e2d\u5b66
p6399
I1
sV\u51c6\u5907
p6400
I24
sV\u73af\u70c3
p6401
I1
sV\u4f2a\u9020
p6402
I1
sV\u6559\u80b2
p6403
I12
sV\u8fc7\u5173
p6404
I1
sV\u8d70\u52bf
p6405
I16
sV\u56de\u5230
p6406
I2
sV\u591a\u5143\u5316
p6407
I1
sV\u8fd0\u52a8\u5668\u6750
p6408
I1
sV\u4ed3\u4f4d
p6409
I1
sV\u89c1\u95fb
p6410
I6
sV\u6b27\u7248
p6411
I2
sV\u73af\u964d
p6412
I1
sV\u6570\u5b57
p6413
I15
sV\u65ad\u88c2
p6414
I1
sV\u6295\u673a\u8005
p6415
I1
sV\u4e5d\u5dde
p6416
I1
sV\u88ab\u79f0\u4f5c
p6417
I1
sV\u72ec\u7acb
p6418
I10
sV\u5e03\u62c9\u74e6\u7ea6
p6419
I2
sV\u9000\u4f11
p6420
I2
sV\u89c6\u60c5
p6421
I1
sV\u957f\u5ea6
p6422
I1
sV\u627f\u8ba4
p6423
I8
sV\u9000\u8fd8
p6424
I1
sV\u53d8\u52a8
p6425
I2
sV\u5f15\u8fdb
p6426
I2
sV\u52a3\u5e01
p6427
I1
sV\u4efb\u671f
p6428
I3
sV\u5de5\u4f5c
p6429
I45
sV\u5954\u8dd1
p6430
I2
sV\u519c\u5730
p6431
I1
sV\u6570\u5b66
p6432
I1
sV\u53d6\u51b3\u4e8e
p6433
I8
sV\u9ad8\u6280\u672f
p6434
I1
sV\u5730\u76ae
p6435
I1
sV\u8d39\u7528
p6436
I14
sV\u627f\u8bfa
p6437
I26
sV\u4eab\u5e74
p6438
I1
sV\u836f\u54c1
p6439
I2
sV\u503a\u52a1
p6440
I50
sV\u6b21\u6570
p6441
I1
sV\u8425\u517b
p6442
I2
sV\u8fd0\u8425
p6443
I33
sV\u957f\u8fdc\u76ee\u6807
p6444
I1
sV\u4e73\u54c1
p6445
I1
sV\u7559\u5b66\u751f
p6446
I1
sV\u822a\u7a7a\u516c\u53f8
p6447
I3
sV\u7a0e\u53f7
p6448
I1
sV\u6d41\u52a8\u6027
p6449
I24
sV\u5c0f\u4f19\u4f34
p6450
I1
sV\u6cb3\u8c37
p6451
I2
sV\u5546\u6d3d
p6452
I1
sV\u9053\u7406
p6453
I2
sV\u516c\u7235
p6454
I1
sV\u6269\u5927\u5185\u9700
p6455
I1
sV\u56fd\u7ecf
p6456
I1
sV\u91c7\u884c
p6457
I1
sV\u70b9\u706b
p6458
I1
sV\u91ce\u751f\u52a8\u7269
p6459
I1
sV\u79d1\u5b66\u5bb6
p6460
I1
sV\u5951\u673a
p6461
I5
sV\u8eab\u4f53\u529b\u884c
p6462
I1
sV\u76d1\u7ba1
p6463
I17
sV\u80fd\u5426
p6464
I13
sV\u6280\u672f\u5458
p6465
I1
sV\u6b21\u65b9
p6466
I2
sV\u6392\u9664
p6467
I5
sV\u534f\u4f1a
p6468
I17
sV\u8bbe\u5b9a
p6469
I6
sV\u4eba\u9009
p6470
I2
sV\u5c0f\u7ec4
p6471
I1
sV\u519c\u4f5c\u7269
p6472
I2
sV\u80a1\u4efd\u5236
p6473
I1
sV\u8054\u884c
p6474
I2
sV\u585e\u62c9\u5229\u6602
p6475
I1
sV\u4f0a\u6bd4\u5229\u4e9a
p6476
I1
sV\u51fa\u8f68
p6477
I1
sV\u76f4\u901a
p6478
I2
sV\u7ecf\u6d4e\u5e08
p6479
I1
sV\u7a00\u91ca
p6480
I1
sV\u7ecf\u6d4e\u6307\u6807
p6481
I2
sV\u53d1\u653e\u8d37\u6b3e
p6482
I1
sV\u5982\u7ea6
p6483
I1
sV\u88c1\u51cf
p6484
I1
sV\u5f00\u62d3
p6485
I3
sV\u4f01\u5212
p6486
I3
sV\u65e5\u65b9
p6487
I2
sV\u6c61\u6c34
p6488
I1
sV\u52a0\u5c14\u5404\u7b54
p6489
I1
sV\u770b\u70b9
p6490
I1
sV\u4e0b\u8bbe
p6491
I1
sV\u62ac\u9ad8
p6492
I2
sV\u53cc\u8fb9
p6493
I21
sV\u4e2d\u56fd\u53f0\u6e7e
p6494
I2
sV\u76f4\u903c
p6495
I2
sV\u9009\u533a
p6496
I1
sV\u52a8\u4f5c
p6497
I1
sV\u6f5c\u80fd
p6498
I2
sV\u5973\u5b69
p6499
I1
sV\u52b3\u52a8
p6500
I7
sV\u6a21\u62df
p6501
I1
sV\u5173\u952e\u671f
p6502
I1
sV\u4e1d\u8def
p6503
I3
sV\u53d8\u91cf
p6504
I1
sV\u78b3\u7a0e
p6505
I1
stp6506
Rp6507
.