cnltk.probability
FreqDist
p0
((dp1
V\u96ea\u82b1
p2
I2
sV\u4e66\u8bb0
p3
I2
sV\u9f99\u6e7e\u533a
p4
I1
sV\u6d77\u5ce1\u4e24\u5cb8
p5
I1
sV\u540d\u73e0
p6
I1
sV\u79d1\u6280\u9886\u57df
p7
I1
sV\u5305\u88c5
p8
I4
sV\u6574\u6751
p9
I1
sV\u4ea7\u54c1\u7ebf
p10
I2
sV\u4e9a\u975e
p11
I1
sV\u53ea\u7528
p12
I1
sV\u786e\u4fdd
p13
I7
sV\u4e3a\u4e3b
p14
I18
sV\u5438\u7eb3
p15
I1
sV\u65b0\u5e72\u7ebf
p16
I1
sV\u4f5c\u5f0a
p17
I2
sV\u653e\u6162
p18
I1
sV\u4e50\u56ed
p19
I3
sV\u8d2d\u5165
p20
I1
sV\u59d4\u5458
p21
I2
sV\u8c08\u5230
p22
I1
sV\u5305\u88f9
p23
I1
sV\u539f\u7814\u836f
p24
I1
sV\u4ea7\u540e
p25
I1
sV\u8ffd\u968f
p26
I1
sV\u8c08\u5224
p27
I4
sV\u7814\u7a76\u9662
p28
I7
sV\u522b\u5885
p29
I2
sV\u4e13\u6237
p30
I1
sV\u5f39\u6027
p31
I1
sV\u5236\u836f
p32
I3
sV\u6d88\u8d39\u7ed3\u6784
p33
I1
sV\u56f0\u5883
p34
I4
sV\u5e02\u573a\u63a8\u5e7f
p35
I1
sV\u4e2d\u4e1c
p36
I9
sV\u53cc\u65b9\u540c\u610f
p37
I1
sV\u5916\u5546\u72ec\u8d44
p38
I1
sV\u805a\u96c6
p39
I2
sV\u8463\u4e8b\u5c40
p40
I2
sV\u5e94\u4ed8
p41
I2
sV\u4e16\u7eaa
p42
I5
sV\u8ffd\u56de
p43
I1
sV\u627f\u5305\u5546
p44
I1
sV\u8d77\u8bc9
p45
I2
sV\u7ecf\u6d4e\u603b\u91cf
p46
I1
sV\u5e94\u4ece
p47
I1
sV\u4e1c\u6b27
p48
I5
sV\u76c8\u5229
p49
I8
sV\u7ebf\u4e0b
p50
I8
sV\u9ed1\u8c46
p51
I1
sV\u7ea6\u8c08
p52
I3
sV\u7a0e\u6cd5
p53
I1
sV\u4e1a\u754c
p54
I6
sV\u9910\u996e\u4e1a
p55
I3
sV\u4e07\u5dde
p56
I1
sV\u914d\u552e
p57
I1
sV\u5927\u53a6
p58
I1
sV\u6cb9\u6c14\u7530
p59
I2
sV\u5b98\u5458
p60
I4
sV\u4ee3\u91d1\u5238
p61
I1
sV\u53e4\u5239
p62
I1
sV\u53e3\u5473
p63
I2
sV\u5ba1\u6838
p64
I7
sV\u603b\u4f53\u76ee\u6807
p65
I1
sV\u65f6\u62a5
p66
I2
sV\u5168\u529b
p67
I3
sV\u4fdd\u62a4\u73af\u5883
p68
I1
sV\u6d88\u9632
p69
I3
sV\u5df2\u6210\u5b9a\u5c40
p70
I4
sV\u95fa\u5bc6
p71
I1
sV\u836f\u7f51
p72
I1
sV\u524d\u5217
p73
I1
sV\u8c6a\u534e\u8f66
p74
I2
sV\u60c5\u51b5
p75
I82
sV\u8d5b\u6b27
p76
I1
sV\u8d2c\u503c
p77
I1
sV\u5145\u5206\u53d1\u6325
p78
I1
sV\u4f9d\u8d56
p79
I3
sV\u4ee3\u8d2d
p80
I2
sV\u4e0d\u7528
p81
I2
sV\u5546\u529e
p82
I1
sV\u5229\u7528\u6548\u7387
p83
I1
sV\u7834\u574f
p84
I1
sV\u5feb\u8fd0
p85
I1
sV\u7f51\u7edc\u6e38\u620f
p86
I1
sV\u68c0\u6d4b\u8d39
p87
I1
sV\u636e\u7edf\u8ba1
p88
I2
sV\u964d\u5e45
p89
I8
sV\u9886\u5bfc\u73ed\u5b50
p90
I1
sV\u7ba1\u7406\u4f53\u5236
p91
I1
sV\u6536\u96c6
p92
I1
sV\u5f00\u5de5
p93
I2
sV\u65b0\u95fb
p94
I14
sV\u5546\u52a1
p95
I2
sV\u8fdd\u7ea6
p96
I1
sV\u4ea7\u54c1
p97
I98
sV\u5927\u8863
p98
I1
sV\u6d88\u9664
p99
I2
sV\u8fdd\u7eaa
p100
I1
sV\u5f00\u5c01
p101
I1
sV\u68c0\u5bdf\u5b98
p102
I1
sV\u96f6\u9996\u4ed8
p103
I1
sV\u62ff\u5230
p104
I3
sV\u5ba1\u6279
p105
I8
sV\u91d1\u878d\u503a
p106
I1
sV\u52a0\u4ef7
p107
I6
sV\u505c\u5f00
p108
I1
sV\u670d\u52a1\u63d0\u4f9b\u8005
p109
I1
sV\u673a\u5236
p110
I45
sV\u804c\u80fd
p111
I1
sV\u4e2d\u8f66
p112
I1
sV\u6279\u590d
p113
I1
sV\u4efd\u989d
p114
I3
sV\u4e2d\u8f6c
p115
I1
sV\u7528\u80fd
p116
I2
sV\u6d6e\u51fa
p117
I1
sV\u8868\u660e
p118
I4
sV\u5c0f\u805a
p119
I1
sV\u7f50\u88c5
p120
I1
sV\u661f\u5ea7
p121
I1
sV\u6210\u5206
p122
I4
sV\u5904\u957f
p123
I1
sV\u6986\u4e2d
p124
I1
sV\u906d\u9047
p125
I8
sV\u4fee\u590d
p126
I3
sV\u70b9\u4eae
p127
I1
sV\u52a0\u5de5\u8005
p128
I1
sV\u5c97\u4f4d
p129
I3
sV\u5a5a\u4e27\u559c\u5e86
p130
I1
sV\u516c\u5b89\u90e8
p131
I3
sV\u770b\u4e2d
p132
I1
sV\u94dd\u4e1a
p133
I1
sV\u4e0a\u98ce
p134
I2
sV\u5973\u513f
p135
I1
sV\u5f00\u5c55
p136
I19
sV\u5916\u5899
p137
I1
sV\u5ba2\u673a
p138
I3
sV\u4e2d\u4f24
p139
I1
sV\u4eba\u5bff
p140
I1
sV\u8bc9\u8bbc\u6cd5
p141
I1
sV\u9686\u8d77
p142
I1
sV\u6ce2\u53ca
p143
I3
sV\u8d8b\u4e8e
p144
I2
sV\u73af\u5883\u4fdd\u62a4\u90e8
p145
I2
sV\u6b21\u5b50
p146
I1
sV\u6000\u7591
p147
I2
sV\u5e38\u5dde
p148
I1
sV\u6210\u5347
p149
I2
sV\u505a\u51fa
p150
I8
sV\u5305\u88c5\u6750\u6599
p151
I1
sV\u5377\u70df
p152
I1
sV\u53ef\u4f9b
p153
I1
sV\u7cbe\u51c6
p154
I2
sV\u4e2d\u4fc4
p155
I1
sV\u626b\u7801
p156
I1
sV\u5b9a\u91cf
p157
I2
sV\u5047\u5192
p158
I1
sV\u7cd6\u5382
p159
I1
sV\u9700\u6c42\u91cf
p160
I2
sV\u6536\u83b7
p161
I1
sV\u5206\u5f00
p162
I1
sV\u51b3\u5fc3
p163
I2
sV\u7b80\u5316
p164
I1
sV\u4e71\u6536\u8d39
p165
I1
sV\u53d7\u9650
p166
I1
sV\u80a1\u6743\u7ed3\u6784
p167
I1
sV\u5bd2\u6f6e
p168
I1
sV\u9047\u51b7
p169
I1
sV\u72ec\u8463
p170
I1
sV\u8fbe\u6210
p171
I7
sV\u4e3a\u8f85
p172
I1
sV\u914d\u5408
p173
I6
sV\u610f\u89c1
p174
I19
sV\u6539\u53d8
p175
I14
sV\u64cd\u529e
p176
I1
sV\u6838\u5fc3\u6280\u672f
p177
I4
sV\u56fe\u7eb8
p178
I1
sV\u66fc\u8c37
p179
I1
sV\u5c45\u4f4f
p180
I1
sV\u5168\u53f0
p181
I2
sV\u5f69\u7535
p182
I1
sV\u6807\u7684
p183
I4
sV\u9500\u552e\u6536\u5165
p184
I4
sV\u5976\u8336
p185
I1
sV\u503c\u4e3a
p186
I1
sV\u4e00\u6bdb
p187
I1
sV\u670d\u52a1\u578b
p188
I1
sV\u7528\u7535
p189
I1
sV\u98ce\u5934
p190
I1
sV\u7ecf\u6d4e\u578b
p191
I1
sV\u534f\u62cd
p192
I1
sV\u56fd\u6c11\u5f85\u9047
p193
I1
sV\u54c8\u5e02
p194
I1
sV\u4e13\u5bb6\u7ec4
p195
I1
sV\u771f\u5b9e\u6027
p196
I1
sV\u5feb\u4ef6
p197
I2
sV\u683c\u5c40
p198
I4
sV\u6f2b\u6e38
p199
I1
sV\u76ee\u5149
p200
I1
sV\u5e02\u5987
p201
I1
sV\u7814\u7a76\u5458
p202
I4
sV\u7f8e\u7d20
p203
I2
sV\u670d\u52a1\u5458
p204
I1
sV\u643a\u5e26
p205
I1
sV\u6551\u4eba
p206
I1
sV\u65e0\u5bb3
p207
I1
sV\u901a\u5dde
p208
I1
sV\u5b8c\u5584
p209
I14
sV\u8235\u624b
p210
I1
sV\u5ef6\u540c
p211
I1
sV\u94c1\u901a
p212
I1
sV\u764c\u75c7
p213
I1
sV\u5f00\u5f20
p214
I1
sV\u7cbe\u529b
p215
I2
sV\u56fd\u4ea7\u5316
p216
I1
sV\u8d4f\u6708
p217
I1
sV\u65f6\u95f4\u8868
p218
I1
sV\u9057\u5740
p219
I1
sV\u53ef\u884c\u6027\u7814\u7a76
p220
I1
sV\u829d\u9ebb
p221
I1
sV\u58f0\u5b66
p222
I1
sV\u5546\u5230
p223
I1
sV\u6cd5\u5236
p224
I1
sV\u7eba\u7ec7\u5de5\u4e1a
p225
I1
sV\u73af\u5883\u6c61\u67d3
p226
I1
sV\u6469\u6d1b\u54e5
p227
I1
sV\u8d2d\u7269
p228
I8
sV\u6539\u9020
p229
I4
sV\u4ef7\u503c\u89c2
p230
I1
sV\u82cf\u6ce2
p231
I2
sV\u4ef7\u683c\u653f\u7b56
p232
I8
sV\u68af\u961f
p233
I1
sV\u516c\u4f17
p234
I8
sV\u94c1\u9053
p235
I1
sV\u673a\u5177
p236
I1
sV\u57fa\u5730
p237
I12
sV\u6821\u957f
p238
I1
sV\u673a\u5173
p239
I2
sV\u6539\u9009
p240
I1
sV\u6bdb\u94b1
p241
I1
sV\u5a92\u4f53
p242
I27
sV\u5f3a\u7b4b
p243
I1
sV\u6307\u4e3a
p244
I1
sV\u53f7\u6cb9
p245
I2
sV\u732a\u8089
p246
I5
sV\u516c\u4f30
p247
I1
sV\u51fa\u53e3\u989d
p248
I1
sV\u5b9a\u5236
p249
I2
sV\u672c\u5e74\u5ea6
p250
I1
sV\u5149\u5316\u5b66
p251
I1
sV\u5f00\u5f81
p252
I1
sV\u8bd5\u7eb8
p253
I1
sV\u79df\u5957
p254
I1
sV\u53d1\u5e03\u4f1a
p255
I8
sV\u6d41\u7a0b
p256
I2
sV\u4e13\u7528\u7ebf
p257
I1
sV\u4e92\u8ba4
p258
I1
sV\u4e0b\u540c
p259
I3
sV\u4e1c\u98ce\u516c\u53f8
p260
I1
sV\u6625\u8336
p261
I1
sV\u5e72\u6270
p262
I4
sV\u6cd5\u5b98
p263
I2
sV\u8fde\u7ebf
p264
I1
sV\u7ae0\u7a0b
p265
I1
sV\u6258\u7ba1
p266
I4
sV\u770b\u8dcc
p267
I1
sV\u6392\u7247
p268
I1
sV\u70b9\u8d5e
p269
I1
sV\u683c\u5f0f
p270
I1
sV\u7a81\u51fa
p271
I11
sV\u505a\u5230
p272
I1
sV\u7fa4\u4f53
p273
I2
sV\u642d\u5efa
p274
I3
sV\u7535\u52a8\u8f66
p275
I5
sV\u5f00\u5fc3
p276
I2
sV\u62ff\u51fa
p277
I2
sV\u6838\u7535\u7ad9
p278
I1
sV\u6210\u90fd
p279
I12
sV\u53f8\u673a
p280
I4
sV\u526f\u6821\u957f
p281
I1
sV\u5168\u90e8
p282
I10
sV\u4ebf\u4e07\u5bcc\u7fc1
p283
I1
sV\u9ad8\u6821
p284
I1
sV\u4ece\u4e1a\u8005
p285
I1
sV\u771f\u5047
p286
I1
sV\u56fd\u836f
p287
I1
sV\u65b0\u57ce
p288
I1
sV\u793c\u7269
p289
I1
sV\u517b\u9053
p290
I1
sV\u5a31\u4e50\u4e1a
p291
I1
sV\u6c34\u997a
p292
I1
sV\u9152\u62a5
p293
I2
sV\u63a5\u8fd1
p294
I7
sV\u8f70\u70b8
p295
I1
sV\u8d1f\u9762
p296
I2
sV\u8f6c\u5316\u7387
p297
I1
sV\u5e02\u653f\u5e9c
p298
I1
sV\u7fa4\u4f17
p299
I5
sV\u679c\u852c
p300
I1
sV\u5f15\u7206
p301
I1
sV\u7701\u533a\u5e02
p302
I2
sV\u5bfc\u5e08
p303
I1
sV\u5151\u73b0
p304
I4
sV\u4e94\u7cae\u6db2
p305
I1
sV\u4f9d\u9760
p306
I4
sV\u6324\u5360
p307
I1
sV\u5973\u5b69\u5b50
p308
I1
sV\u670d\u52a1\u5546
p309
I3
sV\u533b\u7597\u673a\u6784
p310
I3
sV\u56fd\u82af
p311
I1
sV\u5347\u4e0b
p312
I1
sV\u539f\u88c5
p313
I2
sV\u519c\u4ea7\u54c1
p314
I11
sV\u56de\u843d
p315
I17
sV\u7cd6\u5c3f\u75c5
p316
I1
sV\u6ce8\u610f
p317
I3
sV\u5347\u4e3a
p318
I2
sV\u7535\u89c6\u673a
p319
I1
sV\u5357\u6c99
p320
I1
sV\u901a\u8baf\u5458
p321
I10
sV\u53cc\u65b9
p322
I21
sV\u5382\u5546
p323
I13
sV\u574f\u6d88\u606f
p324
I1
sV\u8f6c\u4ea7
p325
I1
sV\u5916\u5a92
p326
I1
sV\u5927\u81e3
p327
I1
sV\u6de1\u6c34
p328
I1
sV\u6cc4\u6f0f
p329
I1
sV\u672c\u91d1
p330
I1
sV\u8ffd\u95ee
p331
I1
sV\u8087\u4e8b
p332
I1
sV\u7ba1\u7406\u6761\u4f8b
p333
I2
sV\u514d\u606f
p334
I1
sV\u592a\u539f
p335
I1
sV\u673a\u9047
p336
I6
sV\u8fa9\u89e3
p337
I1
sV\u65e8\u5728
p338
I4
sV\u7535\u6c60
p339
I3
sV\u83e0\u841d\u5305
p340
I1
sV\u5206\u5e03
p341
I1
sV\u96c6\u7fa4
p342
I1
sV\u6ce2\u7f57\u7684\u6d77
p343
I1
sV\u4e1c\u7ebf
p344
I1
sV\u6d4e\u5357
p345
I5
sV\u7709\u5c71\u5e02
p346
I1
sV\u9075\u4e49\u5e02
p347
I3
sV\u8089\u98df
p348
I1
sV\u5fcd\u51ac
p349
I1
sV\u8def\u5f84
p350
I2
sV\u884c\u9a76
p351
I6
sV\u63a7\u80a1
p352
I12
sV\u65b0\u53f0\u5e01
p353
I1
sV\u53e5\u53f7
p354
I2
sV\u4ef2\u91cf
p355
I1
sV\u4f9d\u6cd5\u884c\u653f
p356
I1
sV\u7ae5\u88c5
p357
I1
sV\u610f\u8bc6
p358
I2
sV\u4e2d\u8def
p359
I1
sV\u70f9\u996a
p360
I2
sV\u5f00\u5ead
p361
I1
sV\u56de\u6536
p362
I2
sV\u5b9c\u6625
p363
I1
sV\u94f6\u884c\u4e1a
p364
I1
sV\u6c14\u56ca
p365
I1
sV\u4eba\u6c11
p366
I1
sV\u5e02\u573a\u4ef7
p367
I1
sV\u5b8f\u89c2\u7ba1\u7406
p368
I1
sV\u6295\u8d44\u65b9
p369
I2
sV\u62db\u6807
p370
I2
sV\u4e8b\u513f
p371
I1
sV\u77ed\u677f
p372
I1
sV\u5347\u4ef7
p373
I9
sV\u6df1\u5733\u5e02
p374
I1
sV\u732a\u573a
p375
I1
sV\u574d\u584c
p376
I1
sV\u62a5\u520a
p377
I1
sV\u8c03\u63a7
p378
I6
sV\u7f8e\u56fd\u8fdb\u53e3
p379
I1
sV\u6253\u54cd
p380
I1
sV\u62a2\u6293
p381
I1
sV\u4ea7\u57ce
p382
I1
sV\u77e5\u540d
p383
I4
sV\u6210\u90fd\u623f\u4ea7
p384
I1
sV\u6377\u5b89\u7279
p385
I1
sV\u56fd\u6709\u571f\u5730
p386
I1
sV\u82d7\u60c5
p387
I1
sV\u751f\u9c9c
p388
I3
sV\u98df\u7cd6
p389
I2
sV\u679c\u83dc
p390
I1
sV\u4ea7\u503c
p391
I2
sV\u4f53\u5236
p392
I4
sV\u7ec6\u80de
p393
I1
sV\u62ff\u5730
p394
I1
sV\u6536\u5230
p395
I3
sV\u4f53\u80b2\u573a
p396
I1
sV\u96f6\u6574
p397
I1
sV\u673a\u573a
p398
I5
sV\u7f51\u7edc\u5316
p399
I1
sV\u5730\u4ea7\u5546
p400
I1
sV\u53ef\u91c7\u50a8\u91cf
p401
I1
sV\u70ed\u8bae
p402
I1
sV\u5f53\u4e8b\u4eba
p403
I1
sV\u4f9b\u5e94\u94fe
p404
I2
sV\u94a2\u6750
p405
I3
sV\u6d77\u5408\u4f1a
p406
I1
sV\u7ea2\u9152
p407
I1
sV\u62a4\u7406
p408
I2
sV\u9c7c\u8165\u8349
p409
I1
sV\u7ec8\u7aef
p410
I18
sV\u6708\u575b
p411
I1
sV\u79bb\u8c31
p412
I1
sV\u53d1\u9175
p413
I1
sV\u8d2d\u9500
p414
I8
sV\u70ed\u8bcd
p415
I1
sV\u4e86\u805a
p416
I1
sV\u6253\u5370
p417
I1
sV\u8679\u6865
p418
I1
sV\u8c6a\u5b85
p419
I1
sV\u63a8\u4ef7
p420
I1
sV\u5ba2\u6237
p421
I16
sV\u6c14\u7530
p422
I3
sV\u9f50\u6da8
p423
I1
sV\u4fdd\u7a0e
p424
I2
sV\u5b9a\u5411
p425
I2
sV\u62e5\u6709
p426
I13
sV\u5f00\u9664
p427
I1
sV\u6743\u5a01\u673a\u6784
p428
I2
sV\u7092\u4f5c
p429
I2
sV\u539f\u5976
p430
I2
sV\u786e\u8ba4
p431
I5
sV\u5f97\u7f6a
p432
I1
sV\u666e\u904d\u6027
p433
I1
sV\u7cbe\u54c1
p434
I2
sV\u5e1d\u666f
p435
I1
sV\u63d2\u624b
p436
I1
sV\u89c2\u70b9
p437
I4
sV\u8bed\u8a00
p438
I1
sV\u7ec8\u7ed3
p439
I1
sV\u6e38\u620f\u673a
p440
I1
sV\u4eba\u6b21
p441
I1
sV\u6210\u672c\u9ad8
p442
I3
sV\u4f4f\u5bbf
p443
I2
sV\u5b66\u6821
p444
I2
sV\u56f0\u5c40
p445
I1
sV\u4fe1\u51fd
p446
I1
sV\u5907\u4ef6
p447
I1
sV\u7981\u4ee4
p448
I2
sV\u77e5\u60c5
p449
I7
sV\u4f4f\u5b85
p450
I15
sV\u7f51\u4e1a
p451
I1
sV\u7b80\u79f0
p452
I1
sV\u7279\u5356\u4f1a
p453
I1
sV\u6253\u538b
p454
I4
sV\u7eba\u7ec7\u54c1
p455
I2
sV\u5730\u8d28
p456
I4
sV\u5168\u4f53\u4f1a\u8bae
p457
I2
sV\u57fa\u91d1
p458
I7
sV\u91c7\u7528
p459
I9
sV\u51e0\u672c\u4e66
p460
I1
sV\u5851\u6599\u8584\u819c
p461
I1
sV\u8d85\u8d8a
p462
I3
sV\u80a1\u7968
p463
I5
sV\u5bb6\u4eba
p464
I1
sV\u53d1\u51fa
p465
I6
sV\u6df1\u6f5c
p466
I1
sV\u62c5\u4fdd
p467
I3
sV\u5927\u529b\u63d0\u9ad8
p468
I1
sV\u539f\u59cb
p469
I1
sV\u534a\u5f84
p470
I2
sV\u4e2d\u5360\u6bd4
p471
I1
sV\u552e\u697c\u5904
p472
I1
sV\u8981\u7ea6
p473
I1
sV\u5e73\u5f71
p474
I1
sV\u871c\u82bd
p475
I1
sV\u635f\u5bb3
p476
I3
sV\u4e0a\u6d77\u6d77\u5173
p477
I1
sV\u7ffb\u8fc7
p478
I1
sV\u878d\u521b
p479
I1
sV\u8fc1\u79fb
p480
I1
sV\u5168\u96c6
p481
I1
sV\u80fd\u6e90\u7ba1\u7406
p482
I1
sV\u6539\u9769
p483
I64
sV\u662f\u4ece
p484
I2
sV\u4fcf\u6c5f\u5357
p485
I1
sV\u603b\u91cf
p486
I5
sV\u6781\u5149
p487
I1
sV\u80cc\u666f
p488
I4
sV\u5ba3\u793a
p489
I1
sV\u4f9b\u9700
p490
I4
sV\u5e02\u5e9c
p491
I1
sV\u5e2e\u5b9d\u9002
p492
I1
sV\u6027\u9700\u6c42
p493
I1
sV\u5929\u4f26
p494
I1
sV\u79ef\u7d2f
p495
I1
sV\u5339\u514b
p496
I1
sV\u68c0\u8f66
p497
I1
sV\u80fd\u6e90
p498
I26
sV\u5c42\u9762
p499
I13
sV\u51fa\u624b
p500
I3
sV\u79cd\u690d
p501
I7
sV\u5e26\u8fdb
p502
I1
sV\u8ba2\u5355
p503
I16
sV\u6700\u9ad8\u70b9
p504
I1
sV\u540e\u679c
p505
I1
sV\u652f\u51fa
p506
I3
sV\u6781\u5177
p507
I1
sV\u65d7\u5cf0
p508
I1
sV\u591a\u6570\u636e\u6d41
p509
I1
sV\u671f\u8d27\u5e02\u573a
p510
I1
sV\u7559\u5ff5
p511
I1
sV\u5382\u533a
p512
I1
sV\u8c03\u6574
p513
I99
sV\u62db\u8058
p514
I2
sV\u8fb9\u7f18\u5316
p515
I1
sV\u9886\u5bfc\u8005
p516
I1
sV\u7f51\u4fe1
p517
I1
sV\u5168\u9762
p518
I20
sV\u4e39\u9633
p519
I1
sV\u5e94\u8be5
p520
I22
sV\u8239\u8236
p521
I3
sV\u4ee3\u540d\u8bcd
p522
I1
sV\u51b0\u5c71
p523
I1
sV\u5546\u573a
p524
I3
sV\u571f\u77f3
p525
I1
sV\u5957\u5229
p526
I1
sV\u644a\u8d29
p527
I1
sV\u4fe1\u606f\u7f51
p528
I1
sV\u8131\u8d2b
p529
I1
sV\u5728\u5efa
p530
I3
sV\u5916\u5c42
p531
I1
sV\u516c\u88c5
p532
I1
sV\u5f15\u8ff0
p533
I2
sV\u5c31\u9910
p534
I1
sV\u94a2\u94c1\u5de5\u4e1a
p535
I1
sV\u5f3a\u5ea6
p536
I1
sV\u6d88\u5316
p537
I3
sV\u7fc5\u8180
p538
I1
sV\u6253\u52a8
p539
I1
sV\u51cf\u8239
p540
I1
sV\u53d6\u5f97
p541
I9
sV\u672c\u571f
p542
I6
sV\u76d1\u6d4b
p543
I14
sV\u5546\u57ce
p544
I3
sV\u5f97\u76ca\u4e8e
p545
I1
sV\u5fae\u5229
p546
I2
sV\u79fb\u52a8
p547
I16
sV\u914d\u9001
p548
I8
sV\u63d0\u62d4
p549
I1
sV\u9884\u8ba2
p550
I1
sV\u6c88\u9633
p551
I1
sV\u5206\u8fa8\u7387
p552
I1
sV\u589e\u81f3
p553
I3
sV\u68c0\u4fee
p554
I2
sV\u7a81\u56f4
p555
I3
sV\u9ec4\u66f2
p556
I1
sV\u8d3f\u8d42
p557
I1
sV\u4f7f\u7528\u6743
p558
I1
sV\u5546\u54c1\u4ea4\u6613
p559
I1
sV\u4f01\u4e8b\u4e1a
p560
I1
sV\u622a\u83b7
p561
I2
sV\u4fe1\u90a6
p562
I1
sV\u4ea7\u51fa
p563
I1
sV\u9519\u8fc7
p564
I2
sV\u5e93\u5b58
p565
I40
sV\u6d88\u534f
p566
I1
sV\u7687\u660e
p567
I1
sV\u5ba3\u79f0
p568
I1
sV\u5f97\u4ee5
p569
I2
sV\u7b56\u7565
p570
I6
sV\u5238\u5546
p571
I1
sV\u6c34\u5e73
p572
I20
sV\u592a\u5e73\u6d0b
p573
I1
sV\u9898\u4e3a
p574
I1
sV\u836f\u6027
p575
I1
sV\u4fdd\u7ba1
p576
I2
sV\u6536\u53d6
p577
I2
sV\u6536\u53d7
p578
I4
sV\u4ea7\u91cf
p579
I24
sV\u7ba1\u7406\u6cd5
p580
I1
sV\u544a\u4e0a
p581
I1
sV\u63a8\u79fb
p582
I1
sV\u5584\u6587
p583
I2
sV\u667a\u80fd
p584
I7
sV\u4f9b\u5e94\u91cf
p585
I2
sV\u697c\u9762
p586
I1
sV\u624b\u673a
p587
I16
sV\u513f\u7ae5
p588
I4
sV\u56f4\u89c2
p589
I1
sV\u514d\u53bb
p590
I1
sV\u4e3b\u4eec
p591
I1
sV\u7406\u8d22\u4ea7\u54c1
p592
I1
sV\u4e1c\u6d77
p593
I1
sV\u610f\u4e49
p594
I3
sV\u65b0\u533a
p595
I1
sV\u5317\u4eac
p596
I59
sV\u503a\u5e02
p597
I1
sV\u8d5e\u52a9
p598
I1
sV\u7ed9\u51fa
p599
I1
sV\u8d35\u9633
p600
I1
sV\u6c7d\u8f66\u8d37\u6b3e
p601
I1
sV\u6587\u7ae0
p602
I4
sV\u5c6f\u6cb3
p603
I1
sV\u56fd\u6c11\u7ecf\u6d4e
p604
I3
sV\u8d1f\u589e\u957f
p605
I3
sV\u6d3e\u9a7b
p606
I1
sV\u65e0\u5fe7
p607
I1
sV\u5236\u9020\u5382\u5546
p608
I1
sV\u5f81\u7a0e
p609
I1
sV\u7248\u9762
p610
I1
sV\u5b58\u6258
p611
I1
sV\u652f\u6301
p612
I25
sV\u67e5\u5230
p613
I1
sV\u6253\u5165
p614
I1
sV\u7ea2\u5305
p615
I2
sV\u5f00\u5b66
p616
I1
sV\u53d1\u7535\u673a
p617
I1
sV\u63a8\u8fdb\u5242
p618
I1
sV\u9ad8\u901f\u8def
p619
I2
sV\u6210\u5458
p620
I3
sV\u71c3\u70e7
p621
I1
sV\u635f\u5931
p622
I4
sV\u514d\u53d7
p623
I1
sV\u5ef6\u7f13
p624
I1
sV\u9884\u4f30
p625
I1
sV\u6784\u6210\u5a01\u80c1
p626
I1
sV\u8fbe\u6807
p627
I3
sV\u90ae\u4ef6
p628
I1
sV\u8d54\u507f
p629
I3
sV\u5546\u4e1a\u884c\u4e3a
p630
I1
sV\u5e76\u5165
p631
I2
sV\u6536\u50a8
p632
I1
sV\u7269\u6d41\u914d\u9001
p633
I1
sV\u8d85\u8fc7
p634
I50
sV\u9884\u6599
p635
I1
sV\u4e1a\u52a1\u5c40
p636
I1
sV\u8bf4\u9053
p637
I3
sV\u516c\u8bc9
p638
I2
sV\u53f0\u6e7e\u5730\u533a
p639
I1
sV\u5546\u54c1
p640
I22
sV\u5173\u7a0e
p641
I3
sV\u4fe1\u53f7
p642
I3
sV\u4f7f\u7528
p643
I35
sV\u6d77\u6d3e
p644
I1
sV\u52a8\u8361
p645
I2
sV\u5229\u6da6
p646
I22
sV\u65bd\u6551
p647
I1
sV\u904d\u5e03
p648
I1
sV\u5468\u8fb9\u5730\u533a
p649
I1
sV\u5546\u94fa
p650
I2
sV\u6d77\u6d0b
p651
I3
sV\u9972\u517b
p652
I1
sV\u7f51\u8c03
p653
I1
sV\u79ef\u6781\u63a2\u7d22
p654
I1
sV\u6cd5\u5f8b
p655
I14
sV\u5e45\u4e3a
p656
I1
sV\u539f\u6cb9\u671f\u8d27
p657
I20
sV\u6253\u51fb
p658
I6
sV\u6c7d\u67f4
p659
I4
sV\u7a0b\u5ea6
p660
I10
sV\u5409\u661f
p661
I1
sV\u53c2\u8003
p662
I6
sV\u5348\u9910
p663
I1
sV\u547c\u5401
p664
I5
sV\u6cb9\u8d39
p665
I4
sV\u57f9\u517b
p666
I2
sV\u5730\u4f4d
p667
I5
sV\u7a00\u571f\u77ff
p668
I1
sV\u603b\u652f\u51fa
p669
I1
sV\u7ed3\u675f
p670
I7
sV\u5403\u996d
p671
I1
sV\u6df1\u6d77
p672
I1
sV\u4e3b\u4e1a
p673
I4
sV\u519c\u573a
p674
I3
sV\u6c14\u85cf
p675
I2
sV\u4e8c\u7ef4\u7801
p676
I1
sV\u6210\u54c1
p677
I2
sV\u5927\u8fde\u5e02
p678
I1
sV\u5413\u4e86\u4e00\u8df3
p679
I1
sV\u51cf\u80a5
p680
I1
sV\u5012\u6263
p681
I1
sV\u4ea7\u533a
p682
I3
sV\u65a9\u83b7
p683
I1
sV\u4e2d\u58a8
p684
I1
sV\u5b98\u65b9\u7f51\u7ad9
p685
I3
sV\u96e8\u6da6
p686
I1
sV\u6709\u5bb3\u7269\u8d28
p687
I1
sV\u4eac\u6d25\u5180
p688
I1
sV\u89e3\u91ca
p689
I2
sV\u8bf4\u51fa
p690
I1
sV\u65e0\u5e8f
p691
I1
sV\u6d88\u8d39\u7a0e
p692
I2
sV\u63d0\u51fa
p693
I26
sV\u5b98\u53f8
p694
I1
sV\u5730\u4ea7
p695
I16
sV\u5fc5\u8981\u63aa\u65bd
p696
I1
sV\u8868\u6001
p697
I1
sV\u80ba\u6e90
p698
I1
sV\u5730\u7f18
p699
I17
sV\u91cd\u91d1\u5c5e
p700
I3
sV\u89c6\u9891
p701
I7
sV\u4e00\u6d41
p702
I1
sV\u5efa\u7b51\u8282\u80fd
p703
I2
sV\u6536\u5165
p704
I9
sV\u5931\u671b
p705
I1
sV\u535a\u89c8\u4f1a
p706
I3
sV\u6293\u83b7
p707
I1
sV\u6210\u957f
p708
I7
sV\u5409\u6797
p709
I3
sV\u4fbf\u662f
p710
I2
sV\u89e3\u51b3
p711
I11
sV\u7740\u529b
p712
I2
sV\u6240\u5f97\u989d
p713
I1
sV\u7533\u9886
p714
I1
sV\u94a2\u6750\u5e02\u573a
p715
I1
sV\u5ead\u5ba1
p716
I1
sV\u4ed3\u50a8\u4e1a
p717
I1
sV\u5f90\u5dde
p718
I1
sV\u9884\u79df\u7387
p719
I1
sV\u65b0\u5efa
p720
I11
sV\u5e02\u573a\u8c03\u7814
p721
I1
sV\u773c\u89c1
p722
I1
sV\u6253\u5047
p723
I3
sV\u6280\u80fd
p724
I1
sV\u5e26\u8d70
p725
I1
sV\u4eba\u4eec
p726
I8
sV\u9ca8\u9c7c
p727
I1
sV\u81ea\u6cbb
p728
I1
sV\u5546\u7528\u8f66
p729
I2
sV\u5f00\u5c40
p730
I1
sV\u6c47\u7387
p731
I2
sV\u6d89\u53ca
p732
I18
sV\u7a0e\u6b3e
p733
I2
sV\u53d1\u52a8
p734
I1
sV\u957f\u6625
p735
I4
sV\u4e8b\u957f
p736
I1
sV\u4e0a\u5e02
p737
I23
sV\u6838\u7535
p738
I1
sV\u4e3b\u4f53
p739
I3
sV\u8d77\u8c03
p740
I1
sV\u6df1\u6c34
p741
I1
sV\u53d1\u529b
p742
I1
sV\u767d\u8272
p743
I2
sV\u53f7\u578b
p744
I1
sV\u7814\u7a76\u6210\u679c
p745
I1
sV\u8c03\u67e5
p746
I32
sV\u4eba\u6c11\u7f51
p747
I3
sV\u5efa\u8bbe\u9879\u76ee
p748
I1
sV\u4e89\u7aef
p749
I2
sV\u521a\u9886
p750
I1
sV\u5448\u73b0\u51fa
p751
I4
sV\u98df\u54c1\u6807\u7b7e
p752
I1
sV\u5382\u91cc
p753
I1
sV\u5360\u636e
p754
I5
sV\u75c5\u75c7
p755
I1
sV\u6536\u76ca\u6743
p756
I2
sV\u4f01\u4e1a\u4fe1\u7528
p757
I2
sV\u6807\u81f4
p758
I1
sV\u80af\u5b9a
p759
I6
sV\u6fc0\u589e
p760
I2
sV\u6f14\u8bb2\u65f6
p761
I1
sV\u5f81\u7ba1
p762
I1
sV\u7ecf\u6d4e
p763
I73
sV\u4f1a\u7528
p764
I1
sV\u94bb\u4e95
p765
I2
sV\u8425\u9500\u4e2d\u5fc3
p766
I1
sV\u4ee3\u8a00
p767
I1
sV\u6539\u5584
p768
I17
sV\u517b\u732a\u573a
p769
I2
sV\u6307\u8ba4
p770
I1
sV\u4f53\u91cf
p771
I1
sV\u8d85\u4eba
p772
I1
sV\u63a8\u5f00
p773
I1
sV\u901a\u62a5\u60c5\u51b5
p774
I1
sV\u4f17\u7b79
p775
I1
sV\u519c\u59d4
p776
I1
sV\u5e73\u539f
p777
I1
sV\u53cd\u6620
p778
I13
sV\u7b26\u53f7
p779
I1
sV\u7528\u6237\u7fa4
p780
I1
sV\u5b9e\u4f53
p781
I6
sV\u6ce2\u5c14\u591a
p782
I1
sV\u635f\u574f
p783
I1
sV\u53f0\u5317\u5e02
p784
I1
sV\u592a\u9633\u80fd
p785
I3
sV\u96c6\u4e2d\u5ea6
p786
I5
sV\u6284\u5e95
p787
I1
sV\u9f99\u4e95
p788
I1
sV\u4e0b\u7ebf
p789
I1
sV\u6446\u8d77
p790
I1
sV\u5371\u673a
p791
I5
sV\u8fd0\u6742\u8d39
p792
I3
sV\u5171\u8ba1
p793
I4
sV\u52bf\u5fc5\u4f1a
p794
I4
sV\u5207\u5165
p795
I1
sV\u5bb4\u5e2d
p796
I1
sV\u62c9\u5347
p797
I1
sV\u5f3a\u5316
p798
I6
sV\u6253\u5f00
p799
I5
sV\u517c\u5e76
p800
I4
sV\u79bb\u804c
p801
I3
sV\u62a5\u7aef
p802
I1
sV\u8d22\u4ea7
p803
I3
sV\u8f90\u5c04
p804
I1
sV\u8bb0\u5f55
p805
I3
sV\u515a\u59d4\u4e66\u8bb0
p806
I1
sV\u52a8\u7269
p807
I2
sV\u7ecf\u6d4e\u5e26
p808
I1
sV\u964d\u96e8
p809
I1
sV\u552e\u5047
p810
I3
sV\u79f0\u5982
p811
I1
sV\u73b0\u4ee3\u519c\u4e1a
p812
I1
sV\u4e0b\u8dcc
p813
I25
sV\u5408\u5242
p814
I1
sV\u6559\u8bad
p815
I1
sV\u62e8\u4ed8
p816
I1
sV\u632f\u52a8
p817
I1
sV\u4fbf\u5229\u5e97
p818
I1
sV\u5e73\u53f0
p819
I36
sV\u67e5\u5c01
p820
I3
sV\u610f\u5927\u5229
p821
I3
sV\u975e\u9ad8\u7530
p822
I1
sV\u6c11\u4e8b
p823
I2
sV\u963b\u788d
p824
I3
sV\u5408\u529b
p825
I1
sV\u5236\u8ba2
p826
I1
sV\u6bd4\u56fd
p827
I1
sV\u529e\u516c\u5ba4
p828
I8
sV\u62c9\u952f\u6218
p829
I1
sV\u6b65\u5165
p830
I1
sV\u60c5\u5987
p831
I1
sV\u4e3b\u5bfc\u5730\u4f4d
p832
I1
sV\u6350\u8d60
p833
I1
sV\u77e5\u8bc6\u4ea7\u6743
p834
I5
sV\u7f8a\u8089
p835
I2
sV\u535a\u4f1a
p836
I1
sV\u8d22\u52a1\u72b6\u51b5
p837
I1
sV\u8bbf\u65e5
p838
I1
sV\u4ea4\u5272
p839
I1
sV\u8ddf\u7740
p840
I1
sV\u80a1\u7968\u5e02\u573a
p841
I2
sV\u5e9f\u7eb8
p842
I1
sV\u826f\u6027
p843
I1
sV\u51b3\u7b56\u5c42
p844
I1
sV\u6b20\u91cf
p845
I1
sV\u8d28\u91cf\u5956
p846
I1
sV\u6cbf\u6d77\u5730\u533a
p847
I1
sV\u6307\u8d23
p848
I1
sV\u9014\u5f84
p849
I2
sV\u6210\u90fd\u5730\u533a
p850
I3
sV\u91d1\u878d
p851
I28
sV\u8df3\u8fdc
p852
I1
sV\u53c2\u4e0e
p853
I16
sV\u78b0\u5230
p854
I1
sV\u7f6e\u4e1a
p855
I3
sV\u5e74\u9500\u91cf
p856
I1
sV\u88c2\u7f1d
p857
I1
sV\u6295\u4ea7
p858
I4
sV\u516c\u5b89
p859
I2
sV\u58f0\u660e
p860
I7
sV\u4e92\u8054\u7f51
p861
I36
sV\u7edf\u4e00
p862
I20
sV\u5d29\u76d8
p863
I1
sV\u82b1\u6735
p864
I1
sV\u5bfc\u5411
p865
I2
sV\u964d\u964d
p866
I1
sV\u673a\u5bc6
p867
I1
sV\u8d77\u8349
p868
I2
sV\u518d\u6218
p869
I1
sV\u9996\u73b0
p870
I3
sV\u5ba2\u6e90
p871
I1
sV\u6807\u7b7e
p872
I2
sV\u5e74\u5ea6
p873
I9
sV\u53d8\u6570
p874
I1
sV\u63a8\u9001
p875
I1
sV\u63a8\u51fa
p876
I20
sV\u6d77\u62a5
p877
I1
sV\u5730\u65b9
p878
I23
sV\u77ff\u533a
p879
I1
sV\u51cf\u4ea7
p880
I1
sV\u9759\u89c2
p881
I1
sV\u57fa\u51c6\u4ef7
p882
I6
sV\u96f6\u552e\u4ef7
p883
I9
sV\u56fd\u5bb6\u7a0e\u6536
p884
I1
sV\u5c5e\u4e8e
p885
I6
sV\u5f3a\u5236
p886
I2
sV\u4ef7\u683c
p887
I190
sV\u589e\u8d44
p888
I2
sV\u7206\u53d1\u5f0f
p889
I2
sV\u538b\u88c2
p890
I2
sV\u521b\u65b0
p891
I32
sV\u4ea4\u53c9
p892
I1
sV\u52d8\u63a2
p893
I5
sV\u6ef4\u6ef4
p894
I4
sV\u5747\u503c
p895
I1
sV\u5f00\u542f
p896
I15
sV\u57fa\u5c42
p897
I3
sV\u6c5f\u82cf\u7701
p898
I9
sV\u53d1\u5c04
p899
I4
sV\u5171\u6027
p900
I1
sV\u533a\u57df\u6027
p901
I2
sV\u5b9e\u4e60
p902
I1
sV\u8054\u7ec4
p903
I1
sV\u6838\u7b97
p904
I1
sV\u79bd\u86cb
p905
I1
sV\u53f8\u6cd5
p906
I6
sV\u6559\u6388
p907
I2
sV\u5b9e\u4e1a
p908
I1
sV\u7c89\u4e1d
p909
I4
sV\u5168\u4e16\u754c
p910
I2
sV\u9b54\u65b9
p911
I1
sV\u9707\u611f
p912
I1
sV\u90e8\u79f0
p913
I1
sV\u7535\u5b50\u4fe1\u606f
p914
I1
sV\u4fee\u6539\u7248
p915
I1
sV\u8131\u8102
p916
I1
sV\u51fa\u6e38
p917
I2
sV\u4e1c\u5317\u5730\u533a
p918
I1
sV\u67f4\u6cb9\u673a
p919
I1
sV\u91cf\u4ef7
p920
I3
sV\u8463\u4e8b\u957f
p921
I14
sV\u5370\u6709
p922
I1
sV\u597d\u5904\u8d39
p923
I1
sV\u53d1\u5c55
p924
I141
sV\u6709\u6548\u671f
p925
I1
sV\u7edf\u7b79
p926
I4
sV\u642d\u552e
p927
I3
sV\u7ad9\u5c97
p928
I1
sV\u8ba1\u91cf
p929
I1
sV\u4eba\u5458
p930
I18
sV\u6452\u5f03
p931
I1
sV\u6570\u7801\u4ea7\u54c1
p932
I1
sV\u76f8\u7ed3\u5408
p933
I1
sV\u5404\u90e8\u59d4
p934
I1
sV\u4e8b\u5b9e
p935
I1
sV\u4e8b\u5b9c
p936
I5
sV\u5370\u67d3
p937
I1
sV\u5b9e\u51b5
p938
I1
sV\u58c1\u5792
p939
I1
sV\u5c01\u5b58
p940
I1
sV\u4f4d\u5c45
p941
I3
sV\u5bb6\u4f4f
p942
I2
sV\u5e02\u573a\u5360\u6709\u7387
p943
I6
sV\u7a0e\u6536
p944
I5
sV\u5df4\u897f
p945
I1
sV\u89c1\u62a5
p946
I1
sV\u5c0f\u8d29
p947
I1
sV\u5413\u8dd1
p948
I1
sV\u505a\u5927
p949
I1
sV\u836f\u623f
p950
I1
sV\u7784\u51c6
p951
I1
sV\u7406\u8d22
p952
I2
sV\u7acb\u6848\u4fa6\u67e5
p953
I1
sV\u8346\u95e8
p954
I1
sV\u559c\u6b22
p955
I1
sV\u4eab\u6709
p956
I2
sV\u516c\u5bb3
p957
I1
sV\u9999\u8549
p958
I3
sV\u5916\u9003
p959
I2
sV\u8ba1\u5165
p960
I1
sV\u9002\u822a\u8bc1
p961
I1
sV\u7535\u6e90
p962
I1
sV\u4e24\u4f4d\u6570
p963
I1
sV\u5bc6\u5c01
p964
I1
sV\u666e\u901a\u80a1
p965
I1
sV\u8d77\u8272
p966
I1
sV\u6c34\u5408\u7269
p967
I1
sV\u5e74\u9f84
p968
I2
sV\u66ff\u4ee3
p969
I4
sV\u53c2\u4f1a
p970
I1
sV\u505a\u996d
p971
I1
sV\u6c11\u4f17
p972
I1
sV\u6253\u9ed1
p973
I1
sV\u6a2a\u5411
p974
I1
sV\u6279\u51c6
p975
I9
sV\u505a\u597d
p976
I8
sV\u8bc4\u8bba
p977
I3
sV\u6d4b\u8bd5
p978
I6
sV\u89d2\u5ea6\u770b
p979
I1
sV\u96f6\u552e\u4e1a
p980
I2
sV\u9a7e\u9a76\u5458
p981
I1
sV\u767b\u8bb0
p982
I3
sV\u8bbe\u65bd
p983
I11
sV\u7efc\u8ff0
p984
I1
sV\u5957\u6570
p985
I3
sV\u5e03\u5c40
p986
I8
sV\u9000\u7a0e
p987
I1
sV\u9644\u52a0\u8d39
p988
I10
sV\u79df\u91d1
p989
I6
sV\u529e\u6848
p990
I2
sV\u503a\u5238
p991
I1
sV\u540d\u79f0
p992
I2
sV\u6ede\u9500
p993
I1
sV\u4ef7\u6b3e
p994
I1
sV\u7ee7\u7eed
p995
I46
sV\u51fa\u6d77
p996
I1
sV\u809a\u5b50
p997
I1
sV\u6536\u5c3e
p998
I1
sV\u7ecf\u6d4e\u65e5\u62a5
p999
I2
sV\u5206\u94b1
p1000
I7
sV\u7626\u8eab
p1001
I1
sV\u9752\u7750
p1002
I2
sV\u8206\u8bba\u76d1\u7763
p1003
I1
sV\u4e86\u4e3a
p1004
I1
sV\u884c\u53ca
p1005
I1
sV\u539f\u5730
p1006
I1
sV\u4f30\u8ba1
p1007
I2
sV\u5efa\u8bae\u4e66
p1008
I1
sV\u80a5\u529b
p1009
I1
sV\u5927\u9053\u7406
p1010
I1
sV\u77f3\u6cb9\u4ef7\u683c
p1011
I3
sV\u76ae\u68c9
p1012
I1
sV\u843d\u6237
p1013
I2
sV\u5b8c\u5de5
p1014
I2
sV\u4f18\u60e0\u653f\u7b56
p1015
I2
sV\u9aa8\u67b6
p1016
I1
sV\u8fbd\u9633\u5e02
p1017
I1
sV\u4fe1\u53f7\u7cfb\u7edf
p1018
I1
sV\u63a8\u52a8
p1019
I26
sV\u53d7\u76ca\u4eba
p1020
I1
sV\u94c1\u5854
p1021
I4
sV\u4fe1\u606f\u4ea7\u4e1a
p1022
I4
sV\u80b2\u79cd
p1023
I1
sV\u79d1\u5b66\u5bb6
p1024
I2
sV\u6709\u52a9\u4e8e
p1025
I3
sV\u6ce8\u518c\u8d44\u91d1
p1026
I1
sV\u53eb\u6765
p1027
I1
sV\u5fae\u5dee
p1028
I1
sV\u6865\u6881
p1029
I1
sV\u957f\u65b9\u5f62
p1030
I1
sV\u8d70\u8def
p1031
I1
sV\u5b9e\u8d28
p1032
I1
sV\u51b6\u91d1
p1033
I1
sV\u9020\u6210
p1034
I23
sV\u884c\u4e1a\u6807\u51c6
p1035
I3
sV\u52df\u80a1
p1036
I1
sV\u7231\u7434\u6d77
p1037
I1
sV\u8001\u7a96
p1038
I1
sV\u68a6\u60f3
p1039
I1
sV\u76ae\u8349
p1040
I1
sV\u5f3a\u51a0
p1041
I5
sV\u503a\u52a1
p1042
I2
sV\u6c14\u4f53
p1043
I3
sV\u6df1\u5165\u7814\u7a76
p1044
I1
sV\u65e7\u8f66
p1045
I1
sV\u4efb\u52a1
p1046
I10
sV\u624b\u6bb5
p1047
I6
sV\u6db2\u5316\u6c14
p1048
I2
sV\u4e8b\u9879
p1049
I5
sV\u6253\u5b54
p1050
I1
sV\u52a8\u8f66
p1051
I1
sV\u539f\u4ea7\u5730
p1052
I2
sV\u7a33\u5c45
p1053
I1
sV\u8ddd\u4eca
p1054
I1
sV\u4fe1\u5fc3
p1055
I5
sV\u57f9\u80b2
p1056
I2
sV\u5598\u606f
p1057
I1
sV\u52a8\u4f5c
p1058
I1
sV\u5efa\u7acb
p1059
I21
sV\u6b63\u54c1
p1060
I4
sV\u62bc\u5b9d
p1061
I1
sV\u65b0\u95fb\u5a92\u4f53
p1062
I2
sV\u6d0b\u54c1\u724c
p1063
I3
sV\u51cf\u8d1f
p1064
I2
sV\u8ba1\u5212
p1065
I31
sV\u98df\u7269
p1066
I1
sV\u6539\u98de
p1067
I1
sV\u5145\u7535
p1068
I10
sV\u6599\u5230
p1069
I1
sV\u65b9\u5411\u6027
p1070
I1
sV\u7f51\u7edc\u5a92\u4f53
p1071
I1
sV\u7545\u9500
p1072
I1
sVA\u80a1
p1073
I3
sV\u94bb\u83b7
p1074
I1
sV\u670d\u52a1\u6c34\u5e73
p1075
I1
sV\u6d41\u7247
p1076
I1
sV\u884c\u674e\u7bb1
p1077
I1
sV\u91c7\u53d6\u6709\u6548
p1078
I1
sV\u5438\u70df\u8005
p1079
I1
sV\u79d1\u5de5
p1080
I1
sV\u6c47\u7ecf
p1081
I1
sV\u4e0a\u5347
p1082
I12
sV\u4eba\u6570
p1083
I7
sV\u63a8\u8fdf
p1084
I1
sV\u5927\u8857
p1085
I1
sV\u5217\u8f66
p1086
I3
sV\u6eb6\u5242
p1087
I1
sV\u6e29\u5dde
p1088
I2
sV\u53eb\u677f
p1089
I1
sV\u6cb9\u8102
p1090
I1
sV\u5355\u4f53
p1091
I2
sV\u5355\u4f4d
p1092
I29
sV\u4f20\u8f93
p1093
I2
sV\u6c11\u4e3b\u51b3\u7b56
p1094
I1
sV\u4ea4\u901a
p1095
I5
sV\u8de8\u754c
p1096
I3
sV\u6539\u589e
p1097
I1
sV\u8981\u70b9
p1098
I1
sV\u5927\u884c
p1099
I1
sV\u589e\u4ea7
p1100
I2
sV\u6c47\u7f16
p1101
I1
sV\u8054\u7cfb
p1102
I3
sV\u9ad8\u4e0b
p1103
I1
sV\u4e94\u82b1\u9a6c
p1104
I1
sV\u6db5\u76d6
p1105
I4
sV\u4fdd\u7559
p1106
I1
sV\u793a\u5a01
p1107
I1
sV\u6548\u76ca
p1108
I6
sV\u56db\u5ddd\u76c6\u5730
p1109
I2
sV\u65e0\u9521
p1110
I3
sV\u7262\u8bb0
p1111
I1
sV\u6ede\u540e
p1112
I5
sV\u9632\u8303
p1113
I1
sV\u88d9\u5b50
p1114
I1
sV\u5355\u4ea7
p1115
I1
sV\u8425\u6536
p1116
I3
sV\u8bef\u64cd\u4f5c
p1117
I1
sV\u8f74\u627f
p1118
I1
sV\u4e1a\u7ee9
p1119
I14
sV\u95ed\u73af
p1120
I1
sV\u653e\u7f13
p1121
I9
sV\u72c2\u6b22\u8282
p1122
I1
sV\u79d8\u94a5
p1123
I1
sV\u5927\u57ce\u5e02
p1124
I1
sV\u5bb6\u7528
p1125
I1
sV\u53d1\u5e03
p1126
I67
sV\u7a7a\u88ad
p1127
I1
sV\u505c\u552e
p1128
I1
sV\u6295\u8d44
p1129
I51
sV\u8305\u53f0
p1130
I4
sV\u751f\u53d8
p1131
I1
sV\u5355\u4ef7
p1132
I1
sV\u52bf\u5934
p1133
I4
sV\u89c4\u8303
p1134
I14
sV\u884c\u52a8
p1135
I6
sV\u6ed1\u5761
p1136
I1
sV\u7ea7\u8f66
p1137
I2
sV\u672a\u6da8
p1138
I3
sV\u5229\u606f
p1139
I2
sV\u68b3\u7406
p1140
I1
sV\u552e\u5356
p1141
I1
sV\u914d\u5efa
p1142
I1
sV\u526f\u603b\u88c1
p1143
I6
sV\u8f66\u8d2d\u7a0e
p1144
I1
sV\u98df\u54c1\u536b\u751f
p1145
I1
sV\u88ab\u5224
p1146
I2
sV\u8def\u9762
p1147
I2
sV\u796d\u8d77
p1148
I1
sV\u4e49\u84ec
p1149
I1
sV\u5bc6\u5ea6
p1150
I1
sV\u8d44\u6df1
p1151
I4
sV\u53d8\u66f4
p1152
I3
sV\u8d85\u7ea7\u7a3b
p1153
I1
sV\u4e2d\u836f\u996e\u7247
p1154
I1
sV\u603b\u6570
p1155
I1
sV\u65b0\u5e97
p1156
I1
sV\u901a\u544a
p1157
I3
sV\u4e0d\u5408\u7406
p1158
I1
sV\u751f\u5316
p1159
I1
sV\u6f84\u6e05
p1160
I1
sV\u4e16\u754c
p1161
I20
sV\u70bc\u6cb9
p1162
I2
sV\u5206\u9500
p1163
I4
sV\u53bb\u5e74\u540c\u671f
p1164
I7
sV\u6ea2\u4ef7
p1165
I3
sV\u7092\u80a1
p1166
I1
sV\u6a59\u5b50
p1167
I1
sV\u4ee3\u7406\u5f8b\u5e08
p1168
I1
sV\u5b66\u672f
p1169
I1
sV\u91d1\u878d\u4e1a
p1170
I1
sV\u667a\u80fd\u624b\u673a
p1171
I6
sV\u6298\u6263
p1172
I1
sV\u592a\u5b50
p1173
I1
sV\u6240\u6709\u5236
p1174
I6
sV\u4ed8\u8d39
p1175
I1
sV\u6c11\u8d44
p1176
I1
sV\u5e02\u503c
p1177
I2
sV\u91d1\u878d\u4fe1\u606f
p1178
I2
sV\u8f93\u8840
p1179
I1
sV\u63a8\u5347
p1180
I1
sV\u8d8b\u52bf\u6027
p1181
I1
sV\u8303\u56f4
p1182
I14
sV\u79df\u501f
p1183
I1
sV\u4e86\u8fd1
p1184
I2
sV\u6bd4\u55bb
p1185
I1
sV\u8282\u62cd
p1186
I1
sV\u9700\u4ece
p1187
I1
sV\u76f4\u9500\u5458
p1188
I1
sV\u4ea4\u6613\u5546
p1189
I1
sV\u7834\u5c40
p1190
I1
sV\u5236\u88c1
p1191
I4
sV\u7ec8\u5ba1
p1192
I1
sV\u6574\u6cbb
p1193
I2
sV\u6863\u6848\u8d44\u6599
p1194
I1
sV\u884d\u751f\u54c1
p1195
I1
sV\u4fa6\u529e
p1196
I1
sV\u884c\u5217
p1197
I1
sV\u63d0\u5021
p1198
I1
sV\u6279\u53d1
p1199
I11
sV\u89c6\u542c
p1200
I1
sV\u5927\u961f
p1201
I1
sV\u6cb9\u8017
p1202
I25
sV\u539f\u56e0
p1203
I14
sV\u5e72\u6cd5
p1204
I1
sV\u9ad8\u4e8e
p1205
I6
sV\u5b58\u680f
p1206
I1
sV\u552e\u540e
p1207
I3
sV\u6392\u957f\u961f
p1208
I1
sV\u5fc3\u7406\u5b66
p1209
I1
sV\u5b9a\u5c45
p1210
I1
sV\u6ca1\u6709\u7528\u5b8c
p1211
I1
sV\u6bcf\u65a4
p1212
I3
sV\u5b9a\u5c40
p1213
I1
sV\u6d41\u5165
p1214
I1
sV\u8bc8\u9a97\u7f6a
p1215
I1
sV\u65c5\u4e1a
p1216
I2
sV\u51fa\u53e3\u56fd
p1217
I1
sV\u7eb8\u5236
p1218
I1
sV\u76ee\u5f55
p1219
I3
sV\u638c\u8da3
p1220
I1
sV\u83dc\u80b4
p1221
I1
sV\u6d77\u76d0\u53bf
p1222
I1
sV\u4f4e\u4e0b
p1223
I1
sV\u5408\u6da6\u9e9f
p1224
I1
sV\u665a\u62a5
p1225
I8
sV\u6728\u6750
p1226
I2
sV\u4f20\u6765
p1227
I3
sV\u9ad8\u4ea7
p1228
I1
sV\u8f6c\u6298\u70b9
p1229
I1
sV\u632f\u56fd
p1230
I3
sV\u7efc\u89c2
p1231
I1
sV\u81ea\u6709
p1232
I2
sV\u5168\u5e02
p1233
I3
sV\u6d3e\u9001
p1234
I1
sV\u8ba2\u5a5a
p1235
I1
sV\u6c34\u57df
p1236
I1
sV\u998a\u6c34\u6cb9
p1237
I3
sV\u7728\u773c
p1238
I1
sV\u8865\u4ea4
p1239
I1
sV\u571f\u5730\u7a0e
p1240
I1
sV\u6bcd\u5a74
p1241
I1
sV\u4e8b\u6545\u73b0\u573a
p1242
I1
sV\u516c\u5171\u670d\u52a1
p1243
I4
sV\u6d77\u6d0b\u6743\u76ca
p1244
I1
sV\u53d1\u5c55\u7f13\u6162
p1245
I1
sV\u79d1\u5b66
p1246
I3
sV\u52a8\u8f66\u7ec4
p1247
I1
sV\u5e02\u57df
p1248
I1
sV\u6709\u5f85
p1249
I2
sV\u7535\u5b50\u8bbe\u5907
p1250
I1
sV\u96c6\u6563\u5730
p1251
I1
sV\u4ece\u4e8b
p1252
I3
sV\u70bc\u6cb9\u5382
p1253
I1
sV\u91cc\u7a0b
p1254
I2
sV\u4fb5\u5bb3
p1255
I1
sV\u5e74\u5ea6\u62a5\u544a
p1256
I1
sV\u788e\u73bb\u7483
p1257
I1
sV\u53d7\u5bb3
p1258
I1
sV\u597d\u4e8b
p1259
I1
sV\u9009\u62e9\u9762
p1260
I1
sV\u94c1\u8def\u7ebf
p1261
I2
sV\u4e2d\u8239
p1262
I1
sV\u9ad8\u4ef7
p1263
I4
sV\u671f\u6ee1
p1264
I1
sV\u9006\u5411
p1265
I1
sV\u9700\u8981
p1266
I49
sV\u8bd5\u70b9
p1267
I12
sV\u5916\u5546
p1268
I1
sV\u4f9b\u5e94
p1269
I30
sV\u9014\u5bb6
p1270
I1
sV\u52b3\u52a8\u529b
p1271
I1
sV\u57ce\u5e02\u8f68\u9053
p1272
I1
sV\u8ba9\u5229
p1273
I4
sV\u6fc0\u53d1
p1274
I1
sV\u964d\u5230
p1275
I4
sV\u6837\u677f
p1276
I1
sV\u884c\u957f
p1277
I3
sV\u4ea7\u4e1a\u653f\u7b56
p1278
I1
sV\u6e29\u5ba4
p1279
I2
sV\u5c1a\u6709
p1280
I1
sV\u914d\u5907
p1281
I1
sV\u4e3b\u9898\u4e50\u56ed
p1282
I1
sV\u5c0f\u6da8
p1283
I2
sV\u53d7\u6258\u4eba
p1284
I1
sV\u786c\u4ef6
p1285
I2
sV\u79bb\u5f00
p1286
I2
sV\u65c5\u884c\u793e
p1287
I2
sV\u897f\u4e9a
p1288
I1
sV\u4f53\u9a8c
p1289
I10
sV\u8bc4\u4ef7
p1290
I5
sV\u76f2\u76ee
p1291
I2
sV\u91cd\u7ec4
p1292
I11
sV\u5e02\u573a
p1293
I242
sV\u5dee\u4ef7
p1294
I2
sV\u804c\u8d23
p1295
I1
sV\u5546\u5e97
p1296
I1
sV\u6837\u672c
p1297
I2
sV\u96c6\u4e2d\u7cbe\u529b
p1298
I1
sV\u63a8\u9ad8
p1299
I2
sV\u8f6c\u578b
p1300
I27
sV\u7efc\u5408\u6027
p1301
I1
sV\u5de5\u4e1a\u751f\u4ea7
p1302
I1
sV\u9053\u8def
p1303
I9
sV\u822a\u5929
p1304
I1
sV\u7cae\u6cb9\u98df\u54c1
p1305
I1
sV\u76f4\u6307
p1306
I1
sV\u8d27\u7269
p1307
I5
sV\u8089\u997c
p1308
I1
sV\u8d76\u5230
p1309
I1
sV\u751f\u547d
p1310
I3
sV\u603b\u6210
p1311
I1
sV\u4f4f\u53cb
p1312
I1
sV\u5185\u8499\u53e4
p1313
I3
sV\u6d4f\u89c8
p1314
I2
sV\u9f99\u5934\u4f01\u4e1a
p1315
I2
sV\u62b5\u5236
p1316
I1
sV\u5229\u7528\u7387
p1317
I1
sV\u56fd\u8d44
p1318
I1
sV\u4ece\u4e1a
p1319
I1
sV\u529e\u4e8b
p1320
I1
sV\u5f00\u51fa
p1321
I2
sV\u5976\u4e1a
p1322
I1
sV\u603b\u8d44\u4ea7
p1323
I1
sV\u6c34\u9762
p1324
I1
sV\u8863\u7740
p1325
I1
sV\u5076\u53d1\u4e8b\u4ef6
p1326
I1
sV\u7814\u5236
p1327
I1
sV\u9a7b\u70b9
p1328
I1
sV\u6570\u63a7\u673a\u5e8a
p1329
I1
sV\u6a21\u5f0f
p1330
I39
sV\u6a61\u80f6
p1331
I2
sV\u5f00\u901a
p1332
I4
sV\u65e5\u7167\u5e02
p1333
I2
sV\u76d1\u5bdf\u90e8
p1334
I1
sV\u65b0\u5858
p1335
I1
sV\u8bc1\u5238\u65e5\u62a5
p1336
I4
sV\u8fdb\u884c
p1337
I93
sV\u6d3d\u8c08\u4f1a
p1338
I1
sV\u4e2d\u836f
p1339
I1
sV\u517b\u6b96\u4e1a
p1340
I2
sV\u6025\u9700
p1341
I5
sV\u6cd5\u540d
p1342
I1
sV\u5ea7\u6905
p1343
I3
sV\u5730\u8d28\u707e\u5bb3
p1344
I1
sV\u6ce8\u518c
p1345
I4
sV\u914d\u989d
p1346
I2
sV\u71c3\u6c14\u516c\u53f8
p1347
I1
sV\u9542\u7a7a
p1348
I1
sV\u5e02\u573a\u76d1\u7ba1
p1349
I2
sV\u5e86\u795d
p1350
I1
sV\u8870\u9000
p1351
I1
sV\u76c8\u9f0e
p1352
I1
sV\u7cfb\u8f66
p1353
I1
sV\u6709\u5e8f
p1354
I1
sV\u7968\u9762
p1355
I1
sV\u597d\u8f6c
p1356
I4
sV\u5e7f\u5dde\u5e02
p1357
I4
sV\u9999\u6e2f\u6d77\u5173
p1358
I1
sV\u6606\u5c71\u5e02
p1359
I1
sV\u67e5\u5904
p1360
I4
sV\u5546\u54c1\u5316
p1361
I1
sV\u4e70\u623f
p1362
I5
sV\u7eb1\u7ebf
p1363
I1
sV\u8d38\u6613\u91cf
p1364
I1
sV\u7406\u89e3
p1365
I4
sV\u4e3e\u884c
p1366
I7
sV\u5976\u725b
p1367
I1
sV\u6ce8\u91cd
p1368
I3
sV\u7167\u660e
p1369
I3
sV\u7edf\u8ba1
p1370
I16
sV\u5546\u65c5
p1371
I1
sV\u603b\u5c40\u5c40\u957f
p1372
I1
sV\u4eb2\u6c11
p1373
I1
sV\u5206\u5316
p1374
I3
sV\u89d2\u8272\u5b9a\u4f4d
p1375
I1
sV\u6c7d\u6cb9
p1376
I122
sV\u5bfc\u5165
p1377
I2
sV\u5206\u624b
p1378
I2
sV\u6559\u6750
p1379
I1
sV\u521b\u610f
p1380
I2
sV\u6905\u5b50
p1381
I1
sV\u5927\u4f17
p1382
I8
sV\u73b0\u72b6
p1383
I3
sV\u4e0d\u65ad\u6269\u5927
p1384
I1
sV\u673a\u5e8a
p1385
I1
sV\u5e73\u51c9\u5e02
p1386
I1
sV\u5927\u4f1a
p1387
I4
sV\u5185\u71c3\u673a
p1388
I1
sV\u5382\u5bb6
p1389
I4
sV\u6295\u8bc9
p1390
I3
sV\u7ec4\u4ef6
p1391
I1
sV\u602a\u5708
p1392
I3
sV\u8def\u51b5
p1393
I1
sV\u6708\u5ea6
p1394
I3
sV\u8f6c\u8ba9\u65b9
p1395
I1
sV\u5f62\u8c61
p1396
I3
sV\u9ad8\u4f4d
p1397
I3
sV\u8282\u64cd
p1398
I1
sV\u76f8\u7b26
p1399
I1
sV\u6307\u5bfc\u4ef7
p1400
I1
sV\u5f3a\u56fd
p1401
I5
sV\u706b\u9f99\u679c
p1402
I1
sV\u6ce8\u5165
p1403
I1
sV\u957f\u6c5f
p1404
I6
sV\u4eba\u624d
p1405
I9
sV\u6d77\u666f\u623f
p1406
I1
sV\u540c\u60c5
p1407
I1
sV\u63a5\u624b
p1408
I1
sV\u4eba\u624b
p1409
I1
sV\u6c7d\u6cb9\u4ef7\u683c
p1410
I12
sV\u6fc0\u52b1
p1411
I2
sV\u624b\u6cd5
p1412
I1
sV\u98df\u7528
p1413
I4
sV\u7814\u7a76\u5ba4
p1414
I1
sV\u677e\u82b1\u6c5f
p1415
I2
sV\u65b0\u4eae\u70b9
p1416
I1
sV\u5c42\u5c42
p1417
I2
sV\u5c0f\u8f66
p1418
I2
sV\u4ea7\u54c1\u5305\u88c5
p1419
I1
sV\u5e38\u52a1
p1420
I2
sV\u8d77\u85aa
p1421
I1
sV\u56fd\u5185\u822a\u7ebf
p1422
I1
sV\u8d70\u4e0a
p1423
I1
sV\u6388\u4e88
p1424
I1
sV\u5171\u6709
p1425
I2
sV\u5feb\u901f\u589e\u957f
p1426
I4
sV\u5ba2\u6e90\u5730
p1427
I1
sV\u70e4\u7bb1
p1428
I1
sV\u56fd\u4ea7\u54c1\u724c
p1429
I4
sV\u51e0\u7387
p1430
I1
sV\u7206\u70b8
p1431
I4
sV\u91cd\u7a0e
p1432
I1
sV\u793a\u8303
p1433
I6
sV\u9009\u62e9
p1434
I22
sV\u623f\u4ef7
p1435
I12
sV\u51fa\u53d1\u70b9
p1436
I1
sV\u76d8\u70b9
p1437
I1
sV\u534e\u76db\u987f\u5dde
p1438
I1
sV\u9910\u6905
p1439
I1
sV\u53cd\u601d
p1440
I2
sV\u4e0d\u826f\u7387
p1441
I2
sV\u9002\u5e94\u80fd\u529b
p1442
I1
sV\u6d6e\u52a8
p1443
I2
sV\u6bd4\u503c
p1444
I2
sV\u9ed1\u8272
p1445
I2
sV\u9ccc\u5934
p1446
I1
sV\u6700\u4f4e\u503c
p1447
I1
sV\u91cd\u8981\u6027
p1448
I1
sV\u5957\u9910
p1449
I3
sV\u6548\u7387
p1450
I3
sV\u7ecf\u8425\u8303\u56f4
p1451
I2
sV\u4f9b\u8d27\u5546
p1452
I1
sV\u6807\u793a
p1453
I1
sV\u7d2f\u52a0
p1454
I3
sV\u9ad8\u5cf0\u671f
p1455
I4
sV\u5438\u70df
p1456
I1
sV\u8f96\u533a
p1457
I1
sV\u5355\u8bc1
p1458
I1
sV\u4e13\u4e1a
p1459
I10
sV\u98ce\u9669
p1460
I21
sV\u884c\u653f
p1461
I9
sV\u6392\u4ed6\u6027
p1462
I2
sV\u4e0b\u63a2
p1463
I1
sV\u663e\u73b0
p1464
I2
sV\u9ad8\u8c03
p1465
I3
sV\u94c1\u8def\u6cbf\u7ebf
p1466
I1
sV\u4e0a\u8eab
p1467
I1
sV\u73af\u5883\u8d28\u91cf
p1468
I2
sV\u529e\u6cd5
p1469
I6
sV\u592a\u5e73
p1470
I1
sV\u65b0\u4e61\u5e02
p1471
I1
sV\u4e13\u6ce8
p1472
I1
sV\u6d89\u5acc
p1473
I12
sV\u6dfb\u52a0\u7269
p1474
I1
sV\u76c8\u5229\u6a21\u5f0f
p1475
I2
sV\u5168\u5c9b
p1476
I1
sV\u7350\u5b50
p1477
I1
sV\u5e7f\u4e1c
p1478
I17
sV\u6e38\u620f
p1479
I2
sV\u9047\u5230
p1480
I7
sV\u5e02\u552e
p1481
I1
sV\u51fa\u8ba9\u91d1
p1482
I1
sV\u589e\u957f\u901f\u5ea6
p1483
I1
sV\u4f8b\u5b50
p1484
I1
sV\u8017\u6750
p1485
I1
sV\u8fbe\u91cc\u6e56
p1486
I1
sV\u901a\u5173
p1487
I2
sV\u8003\u9a8c
p1488
I1
sV\u6301\u6709
p1489
I8
sV\u65d7\u4e0b
p1490
I19
sV\u6276\u8d2b
p1491
I1
sV\u5f00\u53d1
p1492
I27
sV\u73e0\u6d77
p1493
I2
sV\u6e17\u5751
p1494
I1
sV\u65f6\u4ee3\u5468\u520a
p1495
I1
sV\u4e2a\u6027\u5316
p1496
I3
sV\u6279\u96f6
p1497
I7
sV\u67e5\u9a8c
p1498
I3
sV\u9009\u623f
p1499
I1
sV\u53ef\u5728
p1500
I6
sV\u4f5c\u51fa
p1501
I8
sV\u5ea7\u8c08\u4f1a
p1502
I3
sV\u6536\u81f3
p1503
I1
sV\u901a\u7528
p1504
I6
sV\u5e7f\u4e49
p1505
I1
sV\u7ed9\u94b1
p1506
I1
sV\u7bb1\u5305
p1507
I1
sV\u80fd\u6548
p1508
I4
sV\u7ec7\u7269
p1509
I1
sV\u571f\u8033\u5176
p1510
I1
sV\u755c\u7267\u4e1a
p1511
I1
sV\u5f00\u5200
p1512
I1
sV\u4ea4\u51fa
p1513
I2
sV\u8f66\u67b6
p1514
I1
sV\u542b\u91cf
p1515
I5
sV\u56fd\u4eba
p1516
I2
sV\u9690\u60a3
p1517
I1
sV\u56fd\u4ea7
p1518
I5
sV\u5b9e\u884c
p1519
I18
sV\u6b27\u7f8e\u56fd\u5bb6
p1520
I1
sV\u5927\u533a
p1521
I1
sV\u6ca1\u4eba
p1522
I1
sV\u62cd\u4e3a
p1523
I1
sV\u56fd\u4e94
p1524
I1
sV\u5de5\u4f5c
p1525
I34
sV\u7406\u8bba
p1526
I3
sV\u5c01\u95ed
p1527
I2
sV\u683c\u529b
p1528
I4
sV\u9884\u8ba1
p1529
I50
sV\u53d1\u5a01
p1530
I1
sV\u79d1\u5b66\u7814\u7a76
p1531
I2
sV\u7535\u6869
p1532
I1
sV\u8bfb\u8005
p1533
I1
sV\u63d0\u6848
p1534
I1
sV\u5916\u56fd
p1535
I2
sV\u8425\u4e1a\u989d
p1536
I4
sV\u4ef7\u683c\u4f4e\u5ec9
p1537
I1
sV\u5ba1\u67e5
p1538
I6
sV\u660e\u77e5
p1539
I3
sV\u52a0\u5de5\u4e1a
p1540
I1
sV\u534a\u5e74\u62a5
p1541
I2
sV\u65f6\u673a
p1542
I1
sV\u5e02\u573a\u4f9b\u5e94
p1543
I7
sV\u6cd5\u9662
p1544
I7
sV\u4fe1\u5a01
p1545
I2
sV\u964d\u51c6
p1546
I1
sV\u666e\u4eac
p1547
I1
sV\u6709\u6548\u671f\u9650
p1548
I1
sV\u5206\u51fa
p1549
I1
sV\u6bdb\u5229\u7387
p1550
I2
sV\u697c\u5e02
p1551
I18
sV\u7cbe\u5fc3
p1552
I1
sV\u9910\u684c
p1553
I1
sV\u65f6\u671f
p1554
I8
sV\u5171\u5efa
p1555
I2
sV\u5883\u754c
p1556
I1
sV\u524a\u51cf
p1557
I2
sV\u8003\u5bdf
p1558
I2
sV\u5dee\u8ddd
p1559
I1
sV\u4e2a\u4eba\u5956
p1560
I1
sV\u53d8\u6210
p1561
I4
sV\u4e1c\u963f
p1562
I1
sV\u901a\u9053
p1563
I5
sV\u82a6\u67d1
p1564
I1
sV\u9ed1\u8393
p1565
I1
sV\u91c7\u77ff\u4e1a
p1566
I1
sV\u975e\u6d32
p1567
I1
sV\u6d88\u5931
p1568
I1
sV\u6bd4\u91cd
p1569
I3
sV\u7b5b\u67e5
p1570
I1
sV\u9886\u6da8
p1571
I1
sV\u4ea4\u901a\u5835\u585e
p1572
I1
sV\u7ecf\u67e5
p1573
I1
sV\u6210\u54c1\u7cae
p1574
I2
sV\u6cd5\u56fd
p1575
I4
sV\u90e8\u7f72
p1576
I2
sV\u65b0\u9ad8
p1577
I4
sV\u636e\u4f30\u8ba1
p1578
I1
sV\u6210\u4ea4\u989d
p1579
I1
sV\u8865\u8d34
p1580
I19
sV\u5706\u684c
p1581
I3
sV\u5206\u914d
p1582
I2
sV\u9884\u8b66
p1583
I2
sV\u6cd5\u5b9a
p1584
I1
sV\u8c46\u82bd
p1585
I1
sV\u6210\u85cf
p1586
I2
sV\u7535\u68af
p1587
I1
sV\u8fdb\u8d27
p1588
I1
sV\u7b26\u5408
p1589
I14
sV\u526f\u4f1a\u957f
p1590
I1
sV\u6dd8\u6c70
p1591
I4
sV\u80c6\u56fa\u9187
p1592
I1
sV\u73e0\u6c5f
p1593
I2
sV\u5916\u89c2
p1594
I2
sV\u5f81\u6c42
p1595
I1
sV\u5265\u79bb
p1596
I3
sV\u6539\u826f
p1597
I1
sV\u5927\u52bf
p1598
I1
sV\u52a0\u5feb
p1599
I24
sV\u88c5\u5907
p1600
I4
sV\u505c\u4e1a
p1601
I1
sV\u56fd\u5bb6\u6807\u51c6
p1602
I8
sV\u798f\u5efa
p1603
I5
sV\u663e\u5f97
p1604
I2
sV\u5efa\u7b51\u673a\u68b0
p1605
I1
sV\u6b63\u4e49
p1606
I1
sV\u8d27\u6e90
p1607
I1
sV\u70b9\u5fc3
p1608
I1
sV\u9996\u90fd\u673a\u573a
p1609
I1
sV\u5927\u529b
p1610
I3
sV\u591a\u4ed8
p1611
I1
sV\u96c6\u6ce8
p1612
I1
sV\u5206\u4eab
p1613
I2
sV\u5c0f\u9152
p1614
I1
sV\u79fb\u690d
p1615
I1
sV\u6e56\u5357\u7701
p1616
I6
sV\u8865\u52a9
p1617
I3
sV\u57f9\u751f
p1618
I1
sV\u5bf9\u63a5
p1619
I2
sV\u9762\u79ef
p1620
I9
sV\u622a\u65ad
p1621
I1
sV\u964d\u4ef7
p1622
I26
sV\u5c0f\u4f01\u4e1a
p1623
I1
sV\u79cd\u7c7b
p1624
I1
sV\u58f0\u7eb3
p1625
I1
sV\u52a0\u5f81
p1626
I1
sV\u7535\u5b50\u5546\u52a1
p1627
I10
sV\u66b4\u5229\u884c\u4e1a
p1628
I1
sV\u8bc4\u5224
p1629
I1
sV\u751f\u4ea7\u5546
p1630
I1
sV\u8f6c\u79fb
p1631
I1
sV\u7206\u6ee1
p1632
I1
sV\u64c5\u957f
p1633
I1
sV\u5173\u6ce8
p1634
I18
sV\u635f\u4f24
p1635
I1
sV\u88c5\u9970
p1636
I1
sV\u957f\u5bff\u533a
p1637
I1
sV\u8fc7\u8def\u8d39
p1638
I1
sV\u6bd4\u4ef7
p1639
I1
sV\u542b\u4e49
p1640
I1
sV\u8d44\u8baf\u4e2d\u5fc3
p1641
I7
sV\u89c6\u4f5c
p1642
I1
sV\u5bcc\u58eb
p1643
I2
sV\u76d8\u53e4
p1644
I2
sV\u793e\u4f1a\u516c\u5fb7
p1645
I2
sV\u666f\u6c14
p1646
I5
sV\u6751\u5e84
p1647
I1
sV\u6700\u4f4e\u4ef7
p1648
I1
sV\u964d\u4e3a
p1649
I1
sV\u6280\u672f\u4ea7\u4e1a
p1650
I1
sV\u51fa\u9519\u7387
p1651
I1
sV\u4e8c\u8005
p1652
I1
sV\u4f20\u627f
p1653
I1
sV\u6c11\u4e8b\u88c1\u5b9a
p1654
I1
sV\u9ad8\u6807\u51c6
p1655
I2
sV\u4e0b\u811a\u6599
p1656
I1
sV\u94a2\u94c1\u4e1a
p1657
I3
sV\u5177\u6709
p1658
I17
sV\u8d2d\u81ea
p1659
I1
sV\u505c\u4ea7
p1660
I3
sV\u6570\u767e\u4eba
p1661
I1
sV\u80fd\u6e90\u884c\u4e1a
p1662
I1
sV\u63a8\u884c
p1663
I3
sV\u4fdd\u9c9c
p1664
I1
sV\u5d29\u6e83
p1665
I1
sV\u9a7b\u6d77
p1666
I1
sV\u5962\u4f88\u54c1
p1667
I1
sV\u6d17\u724c
p1668
I3
sV\u5b63\u5ea6
p1669
I6
sV\u68c0\u9a8c
p1670
I7
sV\u8ffd\u6c42
p1671
I1
sV\u975e\u6807\u51c6
p1672
I2
sV\u5784\u65ad
p1673
I10
sV\u786e\u5b9a\u6027
p1674
I1
sV\u63a7\u70df
p1675
I1
sV\u8bbe\u7f6e
p1676
I4
sV\u94a2\u4e1d
p1677
I2
sV\u52a0\u5f3a
p1678
I31
sV\u4ea7\u4e1a\u7ed3\u6784
p1679
I3
sV\u72ec\u6709
p1680
I1
sV\u5206\u5c40
p1681
I1
sV\u7528\u6599
p1682
I1
sV\u4f4e\u4e8e
p1683
I7
sV\u66b4\u8dcc
p1684
I2
sV\u5ec9\u4ef7
p1685
I1
sV\u6076\u610f
p1686
I1
sV\u83b7\u5f97
p1687
I24
sV\u8bc4\u4f30
p1688
I7
sV\u6b66\u6c49
p1689
I3
sV\u6355\u635e\u4e1a
p1690
I1
sV\u8102\u80aa\u9178
p1691
I1
sV\u63a7\u5236
p1692
I7
sV\u53e0\u52a0
p1693
I2
sV\u521b\u65b0\u80fd\u529b
p1694
I1
sV\u4f5c\u4e1a
p1695
I5
sV\u51b3\u7b56
p1696
I1
sV\u9ad8\u901f\u516c\u8def
p1697
I2
sV\u6e05\u6d01\u536b\u751f
p1698
I1
sV\u7b14\u8d26
p1699
I4
sV\u95ee\u7b54
p1700
I1
sV\u5b9e\u9645
p1701
I11
sV\u4e9f\u9700
p1702
I2
sV\u8bc1\u5238\u7f51
p1703
I3
sV\u4f4e\u4f4d
p1704
I14
sV\u589e\u957f
p1705
I56
sV\u6e14\u6c11
p1706
I1
sV\u5468\u520a
p1707
I3
sV\u5f1f\u5f1f
p1708
I1
sV\u7ec8\u6b62
p1709
I1
sV\u7f51\u4e0a\u7f51
p1710
I1
sV\u51b7\u94fe
p1711
I2
sV\u91d1\u878d\u670d\u52a1
p1712
I3
sV\u5229\u7a7a
p1713
I4
sV\u86df\u9f99
p1714
I1
sV\u9f99\u57ce
p1715
I1
sV\u5173\u7cfb
p1716
I11
sV\u91cd\u6574
p1717
I1
sV\u64a4\u79bb
p1718
I2
sV\u5f71\u7247
p1719
I2
sV\u4f4e\u4f30
p1720
I1
sV\u7a81\u51fb\u68c0\u67e5
p1721
I1
sV\u4e0b\u653e
p1722
I1
sV\u751f\u4ea7\u5de5\u827a
p1723
I1
sV\u4e09\u8fb9
p1724
I1
sV\u8d44\u8baf
p1725
I33
sV\u5236\u5242
p1726
I1
sV\u5c11\u6797
p1727
I1
sV\u6fb3\u6d32
p1728
I1
sV\u4fc3\u8fdb\u4f1a
p1729
I1
sV\u8bca\u65ad
p1730
I1
sV\u4e0b\u79f0
p1731
I2
sV\u4e00\u8f86\u8f66
p1732
I1
sV\u6b32\u671b
p1733
I1
sV\u4f7f\u7528\u7387
p1734
I2
sV\u5355\u54c1
p1735
I3
sV\u4f20\u5bfc
p1736
I2
sV\u7b97\u4e86
p1737
I4
sV\u5973\u751f
p1738
I1
sV\u4e2d\u5fc3
p1739
I32
sV\u94a2\u6750\u4ef7\u683c
p1740
I1
sV\u5236\u52a8
p1741
I1
sV\u7b7e\u7f72
p1742
I6
sV\u901f\u9012
p1743
I1
sV\u79fb\u52a8\u7535\u8bdd
p1744
I2
sV\u65f6\u79f0
p1745
I2
sV\u6c14\u52a8
p1746
I1
sV\u7ed3\u6784
p1747
I11
sV\u4f4e\u8ff7
p1748
I11
sV\u9884\u552e
p1749
I2
sV\u52a8\u5458
p1750
I1
sV\u9001\u6765
p1751
I1
sV\u53d1\u8d77
p1752
I5
sV\u5fe7\u8651
p1753
I1
sV\u9a6c\u8def
p1754
I2
sV\u805a\u7126
p1755
I3
sV\u6709\u8272
p1756
I3
sV\u4f30\u503c
p1757
I3
sV\u8fde\u6da8
p1758
I8
sV\u98df\u54c1\u836f\u54c1
p1759
I2
sV\u7535\u6c60\u7ec4
p1760
I2
sV\u5408\u8ba1
p1761
I2
sV\u7164\u70ad\u5e02\u573a
p1762
I1
sV\u78b3\u7ea4\u7ef4
p1763
I1
sV\u53d6\u8bc1
p1764
I3
sV\u7f8e\u9152
p1765
I1
sV\u5730\u4ea7\u80a1
p1766
I1
sV\u63f4\u5f15
p1767
I2
sV\u56e2\u9669
p1768
I1
sV\u4e0a\u884c
p1769
I10
sV\u5355\u5468
p1770
I1
sV\u8f66\u7968
p1771
I1
sV\u96f6\u70b9
p1772
I1
sV\u94dd\u5408\u91d1
p1773
I1
sV\u4f5c\u4ef7
p1774
I1
sV\u8f85\u52a9
p1775
I2
sV\u7ecf\u6709
p1776
I1
sV\u4e2d\u6cb9
p1777
I1
sV\u89c6\u4e3a
p1778
I1
sV\u964d\u4f4e
p1779
I73
sV\u5e94\u5f53
p1780
I3
sV\u4e2d\u5fb7
p1781
I1
sV\u4e70\u7ea6
p1782
I1
sV\u5de8\u8d44
p1783
I1
sV\u5757\u94b1
p1784
I3
sV\u4eff\u5236
p1785
I1
sV\u7efc\u5408
p1786
I17
sV\u4e0a\u8863
p1787
I1
sV\u8f93\u51fa
p1788
I2
sV\u666e\u53ca
p1789
I5
sV\u5c01\u88c5
p1790
I1
sV\u8dcc\u5230
p1791
I1
sV\u52a0\u5de5
p1792
I12
sV\u624b\u673a\u8f6f\u4ef6
p1793
I1
sV\u8fd0\u56de
p1794
I1
sV\u8fd0\u8f93\u8f66
p1795
I1
sV\u516c\u76ca\u6027
p1796
I2
sV\u843d\u7a7a
p1797
I4
sV\u5229\u6bd4\u4e9a
p1798
I14
sV\u7f09\u79c1
p1799
I1
sV\u8003\u8651
p1800
I9
sV\u9662\u7ebf
p1801
I1
sV\u86cb\u9ec4\u9171
p1802
I1
sV\u86cb\u79bd
p1803
I1
sV\u7b97\u8d26
p1804
I1
sV\u98de\u673a
p1805
I5
sV\u5185\u7f6e
p1806
I1
sV\u65b9\u53ef
p1807
I1
sV\u94bb\u5b54
p1808
I1
sV\u79bb\u5a5a
p1809
I1
sV\u6253\u8f66
p1810
I6
sV\u4e2d\u5c71
p1811
I3
sV\u62a2\u593a
p1812
I1
sV\u5f97\u5931
p1813
I1
sV\u6c42\u507f
p1814
I1
sV\u70e7\u94b1
p1815
I2
sV\u51fa\u8d44\u4eba
p1816
I1
sV\u7cbe\u82f1
p1817
I1
sV\u5b8f\u89c2\u7ecf\u6d4e
p1818
I1
sV\u5c0f\u533a
p1819
I6
sV\u8d1f\u62c5
p1820
I2
sV\u6298\u7b97
p1821
I8
sV\u4f4e\u8c37
p1822
I2
sV\u9002\u5e94
p1823
I1
sV\u533b\u7597
p1824
I4
sV\u975e\u6d32\u5730\u533a
p1825
I1
sV\u767d\u9152
p1826
I7
sV\u8f66\u7ad9
p1827
I1
sV\u7740\u529b\u70b9
p1828
I1
sV\u8bc1\u636e
p1829
I9
sV\u906d\u5230
p1830
I2
sV\u897f\u57ce
p1831
I1
sV\u51fa\u751f
p1832
I1
sV\u5e26\u9886
p1833
I1
sV\u59a8\u788d
p1834
I1
sV\u7ecf\u7406\u4eba
p1835
I4
sV\u5efa\u6210
p1836
I7
sV\u4fdd\u9669\u516c\u53f8
p1837
I2
sV\u8fdd\u6cd5
p1838
I9
sV\u84ec\u9547
p1839
I1
sV\u9632\u9a97
p1840
I1
sV\u83dc\u9e1f
p1841
I1
sV\u4e0b\u5348\u8336
p1842
I1
sV\u8865\u507f
p1843
I3
sV\u4f26\u6566
p1844
I3
sV\u5236\u51b7
p1845
I1
sV\u5c0f\u53f6
p1846
I1
sV\u4e2d\u5c71\u533b
p1847
I1
sV\u96f6\u552e\u5546
p1848
I3
sV\u5668\u5b98
p1849
I1
sV\u6263\u51cf
p1850
I2
sV\u4ee3\u4ef7
p1851
I2
sV\u6551\u5e02
p1852
I4
sV\u9ad8\u503c
p1853
I2
sV\u6c14\u4ef7
p1854
I1
sV\u5f71\u4e1a
p1855
I1
sV\u519c\u836f
p1856
I1
sV\u9884\u9632
p1857
I1
sV\u547c\u548c\u6d69\u7279
p1858
I1
sV\u73b0\u6709\u4f01\u4e1a
p1859
I1
sV\u62a5\u6069
p1860
I1
sV\u4ecb\u5165
p1861
I2
sV\u53cd\u9988
p1862
I2
sV\u81ea\u79f0
p1863
I2
sV\u754c\u522b
p1864
I1
sV\u95ee\u5230
p1865
I1
sV\u533b\u836f\u516c\u53f8
p1866
I2
sV\u672c\u8349
p1867
I1
sV\u4e39\u9ea6
p1868
I1
sV\u533a\u5df1
p1869
I1
sV\u52a9\u5b66
p1870
I1
sV\u7b49\u6548
p1871
I1
sV\u51c0\u5316\u5668
p1872
I2
sV\u533b\u751f
p1873
I3
sV\u5438\u5f15\u529b
p1874
I1
sV\u73bb\u7483
p1875
I1
sV\u5e94\u5c4a
p1876
I1
sV\u81ea\u6cbb\u533a
p1877
I2
sV\u540d\u533b\u836f
p1878
I1
sV\u597d\u50cf
p1879
I1
sV\u9875\u9762
p1880
I1
sV\u7ecf\u4e09\u8def
p1881
I1
sV\u6cc4\u9732
p1882
I1
sV\u7eb8\u8d28
p1883
I1
sV\u501f\u529b
p1884
I2
sV\u4e60\u6027
p1885
I1
sV\u798f\u5efa\u7701
p1886
I3
sV\u5f15\u53d1
p1887
I6
sV\u6781\u54c1
p1888
I1
sV\u98d9\u5347
p1889
I1
sV\u719f\u900f
p1890
I1
sV\u6e14\u6e2f
p1891
I1
sV\u71c3\u6599
p1892
I4
sV\u5f00\u4e1a
p1893
I4
sV\u4e13\u9879\u8d44\u91d1
p1894
I1
sV\u5f62\u52bf
p1895
I10
sV\u501f\u52bf
p1896
I1
sV\u5e8a\u5934\u67dc
p1897
I1
sV\u6c14\u5019
p1898
I1
sV\u6536\u89c6\u7387
p1899
I1
sV\u94f6\u884c
p1900
I14
sV\u4e2d\u6d77
p1901
I5
sV\u798f\u5dde
p1902
I2
sV\u516c\u5e73
p1903
I2
sV\u501f\u52a9
p1904
I1
sV\u8bc4\u8bba\u5458
p1905
I2
sV\u4e19\u809d
p1906
I1
sV\u8463\u4e8b\u4f1a
p1907
I4
sV\u4f4e\u8d28
p1908
I1
sV\u751f\u957f
p1909
I2
sV\u6307\u5f15
p1910
I3
sV\u4e3b\u5bb0
p1911
I1
sV\u5356\u5bb6
p1912
I2
sV\u653e\u677e
p1913
I5
sV\u804c\u52a1
p1914
I3
sV\u8fdb\u519b
p1915
I6
sV\u8517\u79cd
p1916
I1
sV\u611f\u67d3
p1917
I2
sV\u4e3b\u5bbe
p1918
I1
sV\u8fce\u6765
p1919
I33
sV\u83b7\u5f97\u8005
p1920
I1
sV\u8087\u5e86
p1921
I1
sV\u7eb3\u7a0e
p1922
I4
sV\u8bc1\u5238
p1923
I8
sV\u6574\u7406
p1924
I3
sV\u9ad8\u67b6\u6865
p1925
I2
sV\u559c\u4e8b
p1926
I1
sV\u642d\u914d
p1927
I1
sV\u7ecf\u6d4e\u5b66\u5bb6
p1928
I2
sV\u900f\u660e
p1929
I1
sV\u8354\u679d
p1930
I1
sV\u4ef7\u724c
p1931
I1
sV\u7aa5\u89c1
p1932
I1
sV\u98de\u8d8a
p1933
I1
sV\u706b\u70ed
p1934
I1
sV\u91d1\u5c5e
p1935
I1
sV\u9ad8\u51fa
p1936
I1
sV\u5305\u5bb9
p1937
I1
sV\u53d6\u5f97\u8054\u7cfb
p1938
I1
sV\u538b\u529b
p1939
I34
sV\u8d77\u98de
p1940
I2
sV\u745e\u6ce2
p1941
I1
sV\u5ba3\u4f20\u6750\u6599
p1942
I1
sV\u5e9f\u6599
p1943
I1
sV\u5c55\u793a
p1944
I2
sV\u60c5\u8282
p1945
I2
sV\u5c40\u90e8
p1946
I1
sV\u544a\u8bc9
p1947
I25
sV\u53cd\u8865\u8d34
p1948
I2
sV\u5c40\u9762
p1949
I14
sV\u53ef\u69a8
p1950
I1
sV\u8865\u5145
p1951
I1
sV\u52a0\u6210
p1952
I1
sV\u5bf9\u6807
p1953
I1
sV\u76d8\u6d3b
p1954
I1
sV\u4e86\u89e3
p1955
I32
sV\u8d2f\u5f7b
p1956
I1
sV\u7ef4\u7cfb
p1957
I1
sV\u8fdb\u5165
p1958
I55
sV\u5927\u5173
p1959
I3
sV\u7f34\u5b58
p1960
I1
sV\u8d26\u6237
p1961
I1
sV\u8ff9\u8c61
p1962
I4
sV\u8fc7\u5c71\u8f66
p1963
I1
sV\u4e60\u60ef
p1964
I1
sV\u963b\u6320
p1965
I1
sV\u89c4\u5b9a
p1966
I34
sV\u538b\u5236
p1967
I1
sV\u4eba\u7c7b
p1968
I2
sV\u8ddd\u79bb
p1969
I3
sV\u5408\u89c4
p1970
I1
sV\u89c2\u671b
p1971
I7
sV\u5206\u8d70
p1972
I1
sV\u653f\u7b56\u6027
p1973
I1
sV\u79d1\u6280\u8fdb\u6b65
p1974
I1
sV\u539f\u4ef7
p1975
I2
sV\u4fee\u8ba2
p1976
I3
sV\u501f\u9274
p1977
I2
sV\u6279\u8bc4
p1978
I2
sV\u70b9\u5c06
p1979
I2
sV\u7ba1\u5b50
p1980
I1
sV\u9ed1\u5fc3
p1981
I1
sV\u5e74\u85aa
p1982
I1
sV\u62d6\u5ef6
p1983
I2
sV\u73ed\u957f
p1984
I1
sV\u5ba2\u6d41
p1985
I3
sV\u6e56\u5317\u7701
p1986
I5
sV\u8dd1\u91cf
p1987
I2
sV\u6392\u6c61\u8d39
p1988
I2
sV\u5a01\u80c1
p1989
I3
sV\u5347\u5916
p1990
I2
sV\u7ecf\u7eaa
p1991
I1
sV\u5408\u683c
p1992
I5
sV\u7ae3\u5de5
p1993
I5
sV\u901a\u8bdd
p1994
I1
sV\u7533\u8bc9
p1995
I1
sV\u5bcc\u5c71
p1996
I1
sV\u7533\u8bc4
p1997
I1
sV\u5e02\u98df
p1998
I1
sV\u52a0\u5bc6
p1999
I1
sV\u77ff\u4e1a
p2000
I3
sV\u7f51\u5e97
p2001
I1
sV\u677e\u7ed1
p2002
I7
sV\u603b\u7ad9
p2003
I1
sV\u5236\u9020\u5382
p2004
I1
sV\u7533\u8bf7
p2005
I10
sV\u7eff\u8272\u901a\u9053
p2006
I1
sV\u610f\u6b32
p2007
I1
sV\u5357\u6d77
p2008
I4
sV\u5f15\u64ce
p2009
I3
sV\u9a9a\u6270\u7535\u8bdd
p2010
I1
sV\u4ea4\u6d41\u4f1a
p2011
I1
sV\u4ea4\u4ed8
p2012
I1
sV\u9000\u4f11
p2013
I1
sV\u52a0\u62ff\u5927
p2014
I1
sV\u8be5\u4e0d\u8be5
p2015
I1
sV\u6606\u4ed1
p2016
I1
sV\u8d22\u52a1
p2017
I4
sV\u589e\u901f
p2018
I21
sV\u5927\u56fd
p2019
I6
sV\u62b1\u5b9a
p2020
I1
sV\u9ad8\u96c4
p2021
I1
sV\u5b88\u6cd5
p2022
I1
sV\u786e\u5b9a
p2023
I27
sV\u901a\u4fe1\u4e1a
p2024
I2
sV\u6fb3\u57ce\u82d1
p2025
I1
sV\u6316\u6398
p2026
I1
sV\u7ecf\u6d4e\u8231
p2027
I4
sV\u56de\u5347
p2028
I5
sV\u516c\u5b89\u673a\u5173
p2029
I4
sV\u671f\u76fc
p2030
I1
sV\u53c2\u52a0
p2031
I7
sV\u6f14\u5458
p2032
I1
sV\u8d44\u4ea7
p2033
I13
sV\u75db\u70b9
p2034
I1
sV\u518d\u8d77
p2035
I1
sV\u5355\u91cf
p2036
I1
sV\u641c\u7d22
p2037
I1
sV\u767d\u9152\u4e1a
p2038
I1
sV\u5e73\u5747\u6c34\u5e73
p2039
I2
sV\u8fde\u7eed\u6027
p2040
I1
sV\u5916\u8d44
p2041
I9
sV\u65e0\u8d27
p2042
I1
sV\u6b20\u7a0e
p2043
I1
sV\u8868\u73b0
p2044
I7
sV\u4e2a\u6570
p2045
I1
sV\u7814\u8ba8
p2046
I1
sV\u4f20\u51fa
p2047
I2
sV\u98df\u6c42
p2048
I1
sV\u5269\u4f59
p2049
I1
sV\u5bbd\u5e26\u7528\u6237
p2050
I1
sV\u9501\u6b62
p2051
I1
sV\u53d1\u52a8\u673a
p2052
I7
sV\u57ce\u5e02\u5316
p2053
I1
sV\u534e\u76df
p2054
I1
sV\u6ca1\u9519
p2055
I1
sV\u79df\u8f66
p2056
I1
sV\u6d77\u7f18
p2057
I1
sV\u884c\u8d27
p2058
I1
sV\u9500\u6bc1
p2059
I2
sV\u9ad8\u6548\u7387
p2060
I1
sV\u77ff\u4ef7
p2061
I2
sV\u4ea7\u80fd
p2062
I26
sV\u62d0\u70b9
p2063
I2
sV\u7968\u4ef7
p2064
I2
sV\u62c5\u5fc3
p2065
I3
sV\u5316\u89e3
p2066
I4
sV\u79cd\u7cae
p2067
I1
sV\u884c\u8d3f
p2068
I2
sV\u65b0\u589e
p2069
I9
sV\u53d1\u81ea
p2070
I5
sV\u51fa\u73b0
p2071
I69
sV\u4f53\u80b2\u7528\u54c1
p2072
I1
sV\u8def\u7531\u5668
p2073
I1
sV\u5217\u5165
p2074
I5
sV\u53d6\u4ee3
p2075
I3
sV\u51cf\u534a
p2076
I2
sV\u542f\u7528
p2077
I1
sV\u9ad8\u9662
p2078
I1
sV\u62c5\u5fe7
p2079
I10
sV\u51b3\u7b56\u8005
p2080
I1
sV\u76d1\u7763\u673a\u5236
p2081
I2
sV\u7387\u4e3a
p2082
I2
sV\u6444\u50cf\u673a
p2083
I1
sV\u5927\u9646
p2084
I4
sV\u5e7f\u544a
p2085
I7
sV\u6d4e\u5357\u5e02
p2086
I1
sV\u5916\u8d38
p2087
I1
sV\u6280\u672f\u542b\u91cf
p2088
I3
sV\u4ea4\u901a\u90e8\u95e8
p2089
I1
sV\u63d0\u632f
p2090
I3
sV\u54c8\u5c14\u6ee8
p2091
I2
sV\u6ca1\u94b1
p2092
I1
sV\u72b6\u51b5
p2093
I7
sV\u8dcc\u52bf
p2094
I2
sV\u864e\u5c71
p2095
I1
sV\u7cd6\u4e1a
p2096
I2
sV\u8fdb\u57ce
p2097
I1
sV\u79fb\u6c11
p2098
I2
sV\u6270\u4e71
p2099
I3
sV\u51fa\u7248
p2100
I2
sV\u56de\u5230
p2101
I3
sV\u706b\u529b\u53d1\u7535
p2102
I1
sV\u8d44\u4fe1
p2103
I2
sV\u6c55\u5934
p2104
I1
sV\u6c34\u4ea7
p2105
I1
sV\u53e3\u6c34
p2106
I1
sV\u5e02\u4eba
p2107
I1
sV\u5206\u8baf
p2108
I1
sV\u5408\u4f5c
p2109
I46
sV\u5e94\u5bf9
p2110
I4
sV\u56fd\u6709\u8d44\u4ea7
p2111
I2
sV\u7231\u8f66
p2112
I2
sV\u6536\u836f
p2113
I1
sV\u5b9e\u65bd\u529e\u6cd5
p2114
I1
sV\u6b63\u9053
p2115
I1
sV\u521b\u529e\u4eba
p2116
I1
sV\u8f66\u8f86\u901a\u884c
p2117
I3
sV\u7c7b\u76ee
p2118
I1
sV\u5b66\u79d1
p2119
I1
sV\u7a0e\u79cd
p2120
I1
sV\u5cb3\u9633
p2121
I1
sV\u5356\u6deb
p2122
I1
sV\u5e73\u4ef7
p2123
I1
sV\u5e38\u89c4
p2124
I3
sV\u4f20\u9012
p2125
I1
sV\u8bbe\u7acb
p2126
I11
sV\u5e73\u5b9a\u53bf
p2127
I1
sV\u6295\u5165\u4f7f\u7528
p2128
I1
sV\u5f00\u91c7
p2129
I6
sV\u4ee3\u9500
p2130
I1
sV\u8d27\u6b3e
p2131
I1
sV\u7ade\u4e89
p2132
I24
sV\u8d70\u79c1
p2133
I1
sV\u4ea7\u9500
p2134
I2
sV\u589e\u91cf
p2135
I1
sV\u8ba1\u8d39
p2136
I1
sV\u5fb7\u56fd
p2137
I5
sV\u51a0\u540d
p2138
I1
sV\u8fc7\u7a0b
p2139
I15
sV\u4e0a\u8c03
p2140
I52
sV\u5165\u624b
p2141
I1
sV\u542c\u8bc1
p2142
I1
sV\u8089\u4ef7
p2143
I1
sV\u529b\u5ea6
p2144
I26
sV\u8a00\u8bba
p2145
I2
sV\u6a59\u8272
p2146
I1
sV\u53e3\u8154
p2147
I1
sV\u5f00\u88c2
p2148
I1
sV\u827a\u672f
p2149
I1
sV\u9884\u5148
p2150
I1
sV\u6cc9\u5dde
p2151
I1
sV\u5b89\u6392
p2152
I11
sV\u63a2\u8ba8
p2153
I1
sV\u4e1a\u6001
p2154
I6
sV\u6de1\u9a6c\u9521
p2155
I2
sV\u6392\u67e5
p2156
I3
sV\u4fdd\u9669\u4ea7\u54c1
p2157
I1
sV\u7a7a\u4e2d\u5ba2\u8f66
p2158
I1
sV\u5165\u6237
p2159
I1
sV\u5c0f\u94b1
p2160
I1
sV\u6761\u6b3e
p2161
I1
sV\u8bd5\u9a8c\u533a
p2162
I3
sV\u62cd\u54c1
p2163
I1
sV\u81ea\u7ed9
p2164
I1
sV\u8fdb\u573a
p2165
I1
sV\u6cb9\u5e02
p2166
I1
sV\u7ade\u4ef7
p2167
I1
sV\u77ff\u5c71\u4f01\u4e1a
p2168
I1
sV\u5269\u4e0b
p2169
I1
sV\u7b54\u590d
p2170
I1
sV\u5728\u4e8e
p2171
I8
sV\u8001\u533a
p2172
I1
sV\u6cb9\u6843
p2173
I1
sV\u6c34\u4e61
p2174
I1
sV\u8981\u6c42
p2175
I52
sV\u5546\u5c06
p2176
I1
sV\u6b63\u503c
p2177
I1
sV\u5c0f\u9762
p2178
I1
sV\u5236\u552e
p2179
I2
sV\u78e8\u6eaa
p2180
I1
sV\u6b20\u4f73
p2181
I1
sV\u5feb\u9910
p2182
I1
sV\u94c1\u8def\u8f66\u8f86
p2183
I1
sV\u8d44\u6e90\u7a0e
p2184
I1
sV\u7ea7\u522b
p2185
I2
sV\u770b\u597d
p2186
I1
sV\u96be\u9898
p2187
I3
sV\u4e0b\u624b
p2188
I1
sV\u5e45\u5ea6
p2189
I39
sV\u63a8\u4ecb
p2190
I1
sV\u751f\u4ea7
p2191
I71
sV\u6c7d\u67f4\u6cb9
p2192
I57
sV\u4e2d\u987a
p2193
I1
sV\u8d4c\u7ea6
p2194
I1
sV\u95e8\u69db
p2195
I5
sV\u516c\u544a
p2196
I7
sV\u9ad8\u94c1
p2197
I6
sV\u71d5\u5c71
p2198
I1
sV\u7518\u8517
p2199
I2
sV\u5206\u62e3
p2200
I1
sV\u51c0\u5316
p2201
I4
sV\u5206\u88c5
p2202
I1
sV\u8ba1\u4ef7
p2203
I18
sV\u503c\u73ed
p2204
I1
sV\u6280\u672f\u6c34\u5e73
p2205
I3
sV\u4e86\u524d
p2206
I1
sV\u529e\u7406
p2207
I5
sV\u8d70\u7a33
p2208
I1
sV\u6d88\u9632\u961f
p2209
I2
sV\u6bd4\u4f8b
p2210
I12
sV\u5b9e\u65bd\u7ec6\u5219
p2211
I1
sV\u5c45\u58eb
p2212
I1
sV\u9547\u897f
p2213
I1
sV\u540c\u7b56
p2214
I1
sV\u51c0\u4e8f\u635f
p2215
I1
sV\u98ce\u4e91
p2216
I1
sV\u627f\u62c5
p2217
I4
sV\u5c40\u52bf
p2218
I11
sV\u8df3\u5165
p2219
I1
sV\u884c\u8f66
p2220
I1
sV\u4e3b\u5e72
p2221
I1
sV\u4e30\u6811
p2222
I1
sV\u8ba4\u7f6a
p2223
I1
sV\u4f53\u80b2
p2224
I3
sV\u7ecf\u8425\u7b56\u7565
p2225
I1
sV\u5de8\u5934
p2226
I14
sV\u8d38\u5f3a
p2227
I1
sV\u516c\u5bd3
p2228
I2
sV\u79df\u8d41
p2229
I4
sV\u503e\u659c
p2230
I2
sV\u998a\u6cb9
p2231
I1
sV\u89e3\u804c
p2232
I1
sV\u68c9\u82b1
p2233
I2
sV\u521b\u4f5c\u8005
p2234
I1
sV\u56fd\u571f
p2235
I1
sV\u534a\u58c1\u6c5f\u5c71
p2236
I1
sV\u6c22\u7f50
p2237
I1
sV\u706b\u7535
p2238
I3
sV\u7269\u6d41
p2239
I31
sV\u6c34\u8d27
p2240
I1
sV\u9999\u574a\u533a
p2241
I1
sV\u96f7\u58eb
p2242
I1
sV\u8017\u8d39
p2243
I1
sV\u9646\u8def
p2244
I1
sV\u52a0\u5927
p2245
I28
sV\u6302\u724c
p2246
I6
sV\u7ec6\u5219
p2247
I3
sV\u8d23\u4efb\u4eba
p2248
I1
sV\u884c\u60c5
p2249
I9
sV\u7ec6\u5206
p2250
I1
sV\u5730\u70b9
p2251
I2
sV\u9020\u7eb8
p2252
I1
sV\u70b9\u5934
p2253
I1
sV\u4e3b\u5e2d
p2254
I5
sV\u51cf\u514d
p2255
I4
sV\u4ea4\u8c08
p2256
I1
sV\u589e\u52bf
p2257
I1
sV\u897f\u5357
p2258
I4
sV\u4fc4\u7f57\u65af\u8054\u90a6
p2259
I1
sV\u73af\u4fdd\u90e8\u95e8
p2260
I2
sV\u9e2d\u68a8
p2261
I1
sV\u6682\u884c\u6761\u4f8b
p2262
I1
sV\u6df7\u51dd\u571f
p2263
I2
sV\u53f0\u5927
p2264
I1
sV\u7a7a\u6c14
p2265
I7
sV\u5546\u4e1a\u6027
p2266
I1
sV\u6b65\u4f10
p2267
I5
sV\u4e1a\u5185\u4eba\u58eb
p2268
I17
sV\u552e\u4ef7
p2269
I3
sV\u5e02\u573a\u4efd\u989d
p2270
I10
sV\u53cd\u8150\u8d25
p2271
I1
sV\u6392\u653e
p2272
I11
sV\u6f5c\u6c34\u5668
p2273
I1
sV\u8054\u60f3
p2274
I5
sV\u91cd\u632b
p2275
I1
sV\u8bc1\u660e
p2276
I5
sV\u4e73\u7c89
p2277
I4
sV\u80fd\u529b
p2278
I24
sV\u7ea2\u8272
p2279
I4
sV\u8bb0\u8005
p2280
I216
sV\u6295\u5165
p2281
I15
sV\u8457\u4f5c
p2282
I1
sV\u6c34\u8c82
p2283
I1
sV\u63a8\u8fdb
p2284
I30
sV\u58f0\u79f0
p2285
I2
sV\u4f01\u4e1a
p2286
I232
sV\u5916\u4ee4
p2287
I1
sV\u7ba1\u5f84
p2288
I1
sV\u94c1\u8def\u5c40
p2289
I2
sV\u540c\u7a0b
p2290
I1
sV\u5c01\u8def
p2291
I1
sV\u5ba1\u7f8e
p2292
I1
sV\u820c\u5c16
p2293
I2
sV\u5730\u70bc
p2294
I3
sV\u62a5\u6599
p2295
I1
sV\u5077\u6392
p2296
I1
sV\u6280\u672f\u6807\u51c6
p2297
I2
sV\u4e0a\u4ea4
p2298
I1
sV\u5efa\u6750
p2299
I2
sV\u4e5d\u6c5f
p2300
I1
sV\u9752\u85cf\u9ad8\u539f
p2301
I1
sV\u7edd\u6536
p2302
I1
sV\u7ec4\u5408
p2303
I2
sV\u56f4\u5899
p2304
I1
sV\u4e0b\u632b
p2305
I2
sV\u7528\u6237
p2306
I34
sV\u8d85\u5e02
p2307
I5
sV\u4e45\u8fdd
p2308
I1
sV\u5426\u8ba4
p2309
I2
sV\u6613\u8d2d
p2310
I1
sV\u7834\u4ea7
p2311
I1
sV\u5408\u8d44
p2312
I13
sV\u5927\u95e8
p2313
I2
sV\u52a8\u529b
p2314
I9
sV\u81ea\u4e3b\u7ecf\u8425\u6743
p2315
I1
sV\u98df\u54c1\u4e1a\u8005
p2316
I1
sV\u65e0\u4ece
p2317
I1
sV\u7d2f\u8ba1
p2318
I28
sV\u4ed8\u51fa
p2319
I1
sV\u5206\u89e3
p2320
I1
sV\u86c7\u53e3
p2321
I1
sV\u8d35\u91d1\u5c5e
p2322
I1
sV\u60e0\u5dde
p2323
I2
sV\u7d2f\u8bb0
p2324
I1
sV\u66b4\u589e
p2325
I1
sV\u6db2\u5316
p2326
I2
sV\u6982\u7387
p2327
I7
sV\u754c\u9762
p2328
I4
sV\u5e7f\u573a
p2329
I6
sV\u56fd\u9632
p2330
I1
sV\u4e3e\u52a8
p2331
I1
sV\u897f\u6b27
p2332
I1
sV\u8f93\u8d62
p2333
I1
sV\u5f15\u6765
p2334
I1
sV\u62a5\u6536
p2335
I7
sV\u6293\u7d27
p2336
I2
sV\u6273\u56de
p2337
I1
sV\u8282\u7ea6
p2338
I4
sV\u7535\u89c6
p2339
I3
sV\u9ad8\u952e
p2340
I1
sV\u5b63\u8282\u6027
p2341
I1
sV\u4e3e\u529e
p2342
I3
sV\u98ce\u53e3
p2343
I2
sV\u9ad8\u5cf0\u8bba\u575b
p2344
I2
sV\u4f18\u60e0
p2345
I17
sV\u6307\u5bfc
p2346
I10
sV\u91d1\u989d
p2347
I9
sV\u6b63\u89c6
p2348
I2
sV\u539f\u5382
p2349
I1
sV\u975e\u4e0a\u5e02
p2350
I1
sV\u6e05\u507f
p2351
I1
sV\u5730\u5e26
p2352
I1
sV\u548c\u9910
p2353
I1
sV\u8bf7\u8f9e
p2354
I2
sV\u6cd5\u89c4
p2355
I3
sV\u76d0\u57ce
p2356
I1
sV\u5177\u5907
p2357
I3
sV\u89c4\u5f8b
p2358
I2
sV\u7ec6\u5316
p2359
I1
sV\u4e86\u53d7
p2360
I1
sV\u5c3e\u58f0
p2361
I2
sV\u7406\u4e8b\u957f
p2362
I1
sV\u884c\u8e2a
p2363
I1
sV\u6307\u5b9a
p2364
I2
sV\u5347\u9ad8
p2365
I3
sV\u7b14\u8bef
p2366
I1
sV\u4e3b\u5f20
p2367
I2
sV\u4fe1\u8bbf\u5c40
p2368
I1
sV\u94a2\u7ed3\u6784
p2369
I1
sV\u76ee\u7684\u5730
p2370
I2
sV\u67e5\u83b7
p2371
I1
sV\u884c\u4e3a
p2372
I26
sV\u6218\u7565\u89c4\u5212
p2373
I1
sV\u5747\u4ef7
p2374
I15
sV\u5236\u54c1
p2375
I2
sV\u8d44\u8d28
p2376
I6
sV\u5c55\u671b
p2377
I1
sV\u7ea6\u5b9a
p2378
I2
sV\u5199\u5b57\u697c
p2379
I2
sV\u4e0a\u4e70
p2380
I1
sV\u56fd\u9645
p2381
I78
sV\u5f00\u53d1\u5546
p2382
I18
sV\u8d44\u8d39
p2383
I4
sV\u884c\u4e1a
p2384
I121
sV\u4e66\u7c4d
p2385
I1
sV\u4e0d\u5fcd
p2386
I1
sV\u65f6\u65e5
p2387
I1
sV\u7535\u7f51
p2388
I3
sV\u94a2\u94c1\u4f01\u4e1a
p2389
I4
sV\u9f99\u5934
p2390
I3
sV\u53d1\u8d27
p2391
I3
sV\u86ee\u5b50
p2392
I1
sV\u52a8\u5de5
p2393
I2
sV\u5546\u4e1a\u6a21\u5f0f
p2394
I6
sV\u603b\u76d1
p2395
I3
sV\u8f6c\u6362
p2396
I1
sV\u4e91\u5357
p2397
I4
sV\u5bb6\u7528\u7a7a\u8c03
p2398
I1
sV\u66b4\u9732
p2399
I1
sV\u6551\u707e
p2400
I1
sV\u94a2\u7b4b
p2401
I1
sV\u7ef4\u4fee
p2402
I3
sV\u89c4\u907f
p2403
I2
sV\u79d8\u4e66\u957f
p2404
I7
sV\u4fe1\u8d56
p2405
I1
sV\u56e2\u961f
p2406
I8
sV\u5927\u5ba2\u673a
p2407
I1
sV\u5e0c\u671b
p2408
I20
sV\u5360\u6709\u7387
p2409
I1
sV\u91cd\u5927\u9879\u76ee
p2410
I1
sV\u91d1\u878d\u4e1a\u52a1
p2411
I1
sV\u5c71\u897f\u7701
p2412
I1
sV\u6bdb\u4e94
p2413
I1
sV\u56de\u5f52
p2414
I2
sV\u670d\u52a1\u4e1a
p2415
I5
sV\u5668\u5177
p2416
I1
sV\u5f97\u5356
p2417
I1
sV\u8dd1\u6b65
p2418
I1
sV\u8001\u5e97
p2419
I2
sV\u5237\u65b0
p2420
I2
sV\u5e26\u52a8
p2421
I10
sV\u4e2d\u961f
p2422
I3
sV\u8bb0\u4f4f
p2423
I1
sV\u9e21\u817f
p2424
I1
sV\u8c03\u7814
p2425
I1
sV\u64ad\u62a5
p2426
I1
sV\u7559\u7ed9
p2427
I2
sV\u6218\u6597\u673a
p2428
I1
sV\u5de5\u7a0b
p2429
I14
sV\u5fae\u4fe1
p2430
I6
sV\u9886\u7a7a
p2431
I1
sV\u5446\u8d26
p2432
I1
sV\u7ad6\u8d77
p2433
I1
sV\u7ea6\u5408
p2434
I2
sV\u533a\u5757
p2435
I1
sV\u4e50\u4e8e
p2436
I1
sV\u7cbe\u88c5
p2437
I1
sV\u4efb\u804c
p2438
I2
sV\u516b\u5e02
p2439
I1
sV\u535a\u5f08
p2440
I4
sV\u5357\u8f66
p2441
I1
sV\u575a\u6301
p2442
I7
sV\u8d22\u5e74
p2443
I2
sV\u6570\u636e\u7ba1\u7406
p2444
I1
sV\u6bcd\u4eb2
p2445
I2
sV\u6279\u53d1\u4ef7
p2446
I8
sV\u514d\u8d39
p2447
I5
sV\u51cf\u5f31
p2448
I3
sV\u8ffd\u8e2a
p2449
I1
sV\u65b9\u6848
p2450
I10
sV\u4e3b\u7ba1\u90e8\u95e8
p2451
I9
sV\u4ee3\u5de5\u5382
p2452
I1
sV\u8fdb\u9a7b
p2453
I1
sV\u4ea7\u54c1\u8ba4\u8bc1
p2454
I1
sV\u6536\u4e8e
p2455
I1
sV\u623f\u5b50
p2456
I5
sV\u7f5a\u6b3e
p2457
I6
sV\u9075\u5faa
p2458
I3
sV\u4e2d\u56fd
p2459
I206
sV\u5236\u5b9a
p2460
I21
sV\u5a74\u7ae5
p2461
I2
sV\u8db3\u4ee5
p2462
I1
sV\u589e\u503c\u7a0e
p2463
I1
sV\u5de5\u4fe1\u90e8
p2464
I1
sV\u5224\u65ad
p2465
I3
sV\u67f3\u5dde
p2466
I1
sV\u5609\u5174\u5e02
p2467
I1
sV\u672a\u6709
p2468
I3
sV\u6ca1\u996d
p2469
I1
sV\u8349\u6848
p2470
I1
sV\u8fdb\u5a01
p2471
I1
sV\u8dc3\u5c45
p2472
I1
sV\u5546\u8a89
p2473
I1
sV\u4e73\u767d\u8272
p2474
I1
sV\u56de\u5fc6
p2475
I1
sV\u725b\u5976
p2476
I2
sV\u53d7\u4f24
p2477
I2
sV\u5386\u65f6
p2478
I1
sV\u5916\u8d44\u4f01\u4e1a
p2479
I3
sV\u4e0b\u6c89
p2480
I1
sV\u8d28\u7591
p2481
I3
sV\u6cb9\u5305
p2482
I1
sV\u56fd\u6709\u4f01\u4e1a
p2483
I4
sV\u7ba1\u9053
p2484
I3
sV\u533a\u57df
p2485
I15
sV\u77f3\u6cb9\u6c14
p2486
I1
sV\u8058\u8bf7
p2487
I2
sV\u5206\u5e03\u5f0f
p2488
I1
sV\u7422\u78e8
p2489
I1
sV\u5546\u54c1\u4ef7\u683c
p2490
I1
sV\u4e0b\u6d77
p2491
I1
sV\u4e34\u6c82
p2492
I1
sV\u52a0\u56fd
p2493
I1
sV\u9891\u9053
p2494
I3
sV\u526f\u5c40\u957f
p2495
I2
sV\u72af\u7f6a
p2496
I2
sV\u7535\u5b50\u8ba1\u7b97\u673a
p2497
I1
sV\u5c0f\u578b\u5316
p2498
I1
sV\u9675\u6c34
p2499
I1
sV\u5bfc\u81f4
p2500
I31
sV\u5f97\u5229
p2501
I1
sV\u7167\u7247
p2502
I1
sV4S\u5e97
p2503
I2
sV\u539f\u5219
p2504
I5
sV\u62b1\u56e2
p2505
I1
sV\u7164\u4e1a
p2506
I1
sV\u5f97\u5230
p2507
I16
sV\u7ecf\u6d4e\u4f53
p2508
I2
sV\u670d\u52a1\u5668
p2509
I3
sV\u614e\u7528
p2510
I1
sV\u5efa\u6863\u7acb\u5361
p2511
I1
sV\u4e16\u754c\u5e02\u573a
p2512
I1
sV\u7814\u7a76\u4f1a
p2513
I2
sV\u9002\u914d\u5668
p2514
I1
sV\u4ea4\u7ed9
p2515
I1
sV\u5386\u53f2
p2516
I2
sV\u7528\u6c34
p2517
I2
sV\u5904\u7f5a
p2518
I6
sV\u517d\u836f
p2519
I1
sV\u76f4\u8f96\u5e02
p2520
I2
sV\u5904\u7f6e
p2521
I1
sV\u5b8c\u6bd5
p2522
I1
sV\u6760\u6746
p2523
I1
sV\u6d4b\u8bd5\u6570\u636e
p2524
I1
sV\u57fa\u8c03
p2525
I1
sV\u63a5\u76d8
p2526
I2
sV\u8bed\u97f3
p2527
I1
sV\u5f81\u6536
p2528
I7
sV\u65b0\u80fd\u6e90
p2529
I13
sV\u7f51\u53cb
p2530
I6
sV\u5907\u53d7
p2531
I2
sV\u6708\u9500\u91cf
p2532
I1
sV\u526f\u603b\u7ecf\u7406
p2533
I4
sV\u5012\u903c
p2534
I1
sV\u4e3b\u9898\u516c\u56ed
p2535
I1
sV\u56de\u5e94
p2536
I12
sV\u4ee5\u56fd
p2537
I1
sV\u745e\u5178\u514b\u6717
p2538
I1
sV\u8d77\u5230
p2539
I7
sV\u62db\u724c
p2540
I1
sV\u91c7\u6837
p2541
I1
sV\u9876\u5c42
p2542
I1
sV\u51e0\u767e\u4eba
p2543
I1
sV\u51cc\u6fc0
p2544
I1
sV\u53ef\u63a7
p2545
I1
sV\u65c5\u5ba2
p2546
I7
sV\u5305\u517b
p2547
I1
sV\u53d1\u5e03\u516c\u544a
p2548
I1
sV\u8d23\u6210
p2549
I1
sV\u8282\u70b9
p2550
I2
sV\u5ba2\u7fa4
p2551
I2
sV\u65e0\u9521\u5e02
p2552
I1
sV\u7528\u6cb9
p2553
I5
sV\u76d1\u7ba1\u90e8\u95e8
p2554
I3
sV\u8986\u76d6
p2555
I5
sV\u672a\u7f34
p2556
I1
sV\u901a\u7f09\u4ee4
p2557
I2
sV\u5e97\u91cc
p2558
I1
sV\u77f3\u6cb9
p2559
I28
sV\u6293\u6355\u5f52\u6848
p2560
I2
sV\u9886\u5bfc\u5c0f\u7ec4
p2561
I1
sV\u9053\u58eb
p2562
I1
sV\u5927\u5b66
p2563
I2
sV\u8f6c\u6295
p2564
I1
sV\u8bc4\u5b9a
p2565
I2
sV\u7164\u4ef7
p2566
I1
sV\u4e13\u5bb6
p2567
I18
sV\u676d\u5dde
p2568
I13
sV\u5347\u7ea7\u7248
p2569
I1
sV\u8001\u9f20
p2570
I1
sV\u5bf9\u624b
p2571
I3
sV\u53f0\u9636
p2572
I2
sV\u836f\u7269
p2573
I4
sV\u7cd6\u7f51
p2574
I1
sV\u7cd6\u6599
p2575
I2
sV\u6d89\u8db3
p2576
I2
sV\u9650\u671f
p2577
I1
sV\u5174\u8da3
p2578
I2
sV\u5c0f\u989d
p2579
I2
sV\u9876\u5c16
p2580
I1
sV\u9178\u679d
p2581
I1
sV\u5546\u8ba8
p2582
I3
sV\u7c7d\u68c9
p2583
I1
sV\u8d44\u91d1
p2584
I33
sV\u56fd\u5bb6
p2585
I162
sV\u5c0f\u5b66
p2586
I1
sV\u5e9f\u6c14
p2587
I1
sV\u56db\u5ddd
p2588
I16
sV\u5e74\u5ea6\u4eba\u7269
p2589
I1
sV\u51b2\u7a81
p2590
I2
sV\u9ad8\u989d
p2591
I2
sV\u5b66\u751f
p2592
I4
sV\u5546\u884c
p2593
I2
sV\u589e\u5e45
p2594
I10
sV\u91c7\u8bbf\u56e2
p2595
I1
sV\u9501\u5b9a
p2596
I2
sV\u67b6\u6784
p2597
I2
sV\u5316\u5de5
p2598
I3
sV\u5145\u65a5
p2599
I1
sV\u5927\u589e
p2600
I1
sV\u60f3\u5230
p2601
I2
sV\u4ea7\u4e1a
p2602
I54
sV\u902e\u6355
p2603
I2
sV\u4eae\u70b9
p2604
I1
sV\u71c3\u6cb9
p2605
I11
sV\u9a7b\u534e\u5927\u4f7f
p2606
I1
sV\u79f0\u8be5
p2607
I1
sV\u6267\u884c
p2608
I63
sV\u5411\u9646
p2609
I1
sV\u5373\u98df
p2610
I1
sV\u6ee5\u7528
p2611
I1
sV\u6548\u679c
p2612
I3
sV\u54c1\u724c\u4ef7\u503c
p2613
I1
sV\u4e50\u89c6
p2614
I4
sV\u626b\u63cf
p2615
I1
sV\u666e\u5b85
p2616
I2
sV\u638c\u95e8
p2617
I1
sV\u6237\u7c4d\u5236\u5ea6
p2618
I1
sV\u7406\u60f3
p2619
I4
sV\u5efa\u7b51\u7528
p2620
I1
sV\u89c4\u5219
p2621
I1
sV\u7f16\u5199
p2622
I1
sV\u65b0\u4f4e
p2623
I1
sV\u4e3b\u529b
p2624
I2
sV\u6237\u578b
p2625
I2
sV\u70ed\u95e8
p2626
I1
sV\u8517\u533a
p2627
I1
sV\u623f\u6e90
p2628
I3
sV\u65b0\u8f66
p2629
I6
sV\u9080\u8bf7
p2630
I1
sV\u50a8\u5907\u68c9
p2631
I1
sV\u516c\u5b89\u6c11\u8b66
p2632
I1
sV\u76d7\u7248\u4e66
p2633
I1
sV\u4e2d\u94c1
p2634
I2
sV\u70ed\u9500
p2635
I1
sV\u6c47\u6e90
p2636
I1
sV\u5408\u5e76
p2637
I5
sV\u53d1\u8fbe
p2638
I4
sV\u6682\u884c\u529e\u6cd5
p2639
I1
sV\u7a3b\u7530
p2640
I1
sV\u7ba1\u5236
p2641
I2
sV\u4fc3\u6210
p2642
I1
sV\u603b\u4f53\u89c4\u5212
p2643
I1
sV\u6d88\u9632\u8f66
p2644
I2
sV\u5730\u533a
p2645
I35
sV\u54a8\u8be2\u670d\u52a1
p2646
I1
sV\u5766\u8a00
p2647
I1
sV\u755c\u79bd\u8089
p2648
I1
sV\u4e0b\u6ed1
p2649
I31
sV\u4eba\u751f
p2650
I1
sV\u9632\u52a1
p2651
I1
sV\u6307\u6325\u90e8
p2652
I1
sV\u4e1c\u839e
p2653
I3
sV\u5408\u80a5
p2654
I2
sV\u8457\u4f5c\u6743
p2655
I2
sV\u5e76\u8d2d
p2656
I10
sV\u82b1\u751f
p2657
I1
sV\u68ee\u5b87
p2658
I1
sV\u6d89\u4e8b
p2659
I2
sV\u7ecf\u9500\u5e97
p2660
I1
sV\u533a\u95f4
p2661
I7
sV\u529b\u91cf
p2662
I6
sV\u60f3\u8c61
p2663
I1
sV\u6c14\u6c1b
p2664
I4
sV\u601d\u7ef4
p2665
I2
sV\u80a1\u6743
p2666
I13
sV\u4e3b\u6e20\u9053
p2667
I2
sV\u62a5\u6848
p2668
I1
sV\u66f4\u6539
p2669
I1
sV\u5c71\u7af9
p2670
I1
sV\u68c9\u4ef7
p2671
I2
sV\u5c4f\u68c0
p2672
I1
sV\u6743\u8d23
p2673
I1
sV\u7ecf\u6d4e\u5b9e\u4f53
p2674
I1
sV\u4e0a\u836f
p2675
I1
sV\u603b\u7406
p2676
I2
sV\u4eba\u5458\u4f24\u4ea1
p2677
I2
sV\u53d7\u8d3f
p2678
I3
sV\u80f6\u6599
p2679
I1
sV\u5f97\u51fa
p2680
I4
sV\u5f39\u7a97
p2681
I1
sV\u7ade\u62cd
p2682
I1
sV\u8d85\u524d
p2683
I1
sV\u6536\u8d27
p2684
I1
sV\u7206\u6599
p2685
I3
sV\u5229\u7a7a\u6d88\u606f
p2686
I3
sV\u771f\u7a7a\u7ba1
p2687
I1
sV\u6536\u8d2d
p2688
I10
sV\u964d\u85aa
p2689
I1
sV\u6536\u8d39
p2690
I10
sV\u81ea\u5f8b
p2691
I4
sV\u4ea9\u4ea7
p2692
I1
sV\u52a9\u529b
p2693
I4
sV\u68ee\u9a6c
p2694
I1
sV\u5bb9\u91cf
p2695
I2
sV\u62d2\u7edd
p2696
I2
sV\u6b22\u8fce
p2697
I1
sV\u514d\u4e88
p2698
I1
sV\u4e2d\u4e1c\u5730\u533a
p2699
I2
sV\u529e\u7968
p2700
I1
sV\u4eea\u5f0f
p2701
I2
sV\u5b58\u6b3e
p2702
I1
sV\u4e0b\u6f5c
p2703
I1
sV\u9152\u6c34
p2704
I1
sV\u516b\u91cc\u6865
p2705
I1
sV\u8ba2\u8d27
p2706
I2
sV\u7ade\u4e89\u529b
p2707
I5
sV\u97f3\u4e50
p2708
I2
sV\u8d2e\u5b58
p2709
I1
sV\u5956\u91d1
p2710
I1
sV\u914d\u4ef6
p2711
I2
sV\u73af\u5883\u5f71\u54cd
p2712
I1
sV\u5347\u964d
p2713
I15
sV\u8bc9\u6c42
p2714
I1
sV\u80af\u5b9a\u6027
p2715
I1
sV\u589e\u5f3a
p2716
I5
sV\u7406\u5ff5
p2717
I1
sV\u73af\u4fdd\u6cd5
p2718
I1
sV\u670d\u52a1\u8d39
p2719
I1
sV\u655b\u8d22
p2720
I1
sV\u53d8\u76f8
p2721
I1
sV\u7535\u5b50\u5143\u4ef6
p2722
I1
sV\u6279\u53d1\u5e02\u573a
p2723
I1
sV\u80c1\u8feb
p2724
I1
sV\u5e2e\u6276
p2725
I1
sV\u6db2\u6001
p2726
I2
sV\u8d23\u602a
p2727
I1
sV\u9000\u6362\u8d27
p2728
I1
sV\u60e9\u7f5a\u6027
p2729
I1
sV\u5fae\u8c03
p2730
I2
sV\u4fdd\u7a0e\u533a
p2731
I1
sV\u6709\u7740
p2732
I4
sV\u8dfb\u8eab
p2733
I2
sV\u7248\u6743
p2734
I3
sV\u4fe1\u4efb
p2735
I3
sV\u5438\u6536
p2736
I1
sV\u67aa\u53e3
p2737
I1
sV\u6d88\u8d39
p2738
I38
sV\u8fb9\u754c
p2739
I1
sV\u6697\u7ba1
p2740
I1
sV\u91cd\u70b9
p2741
I23
sV\u63a8\u8350
p2742
I2
sV\u516c\u56ed
p2743
I1
sV\u5bcc\u53cb
p2744
I1
sV\u5df2\u5efa
p2745
I1
sV\u68c0\u51fa
p2746
I2
sV\u5de5\u827a\u54c1
p2747
I1
sV\u51cf\u5c11
p2748
I37
sV\u6807\u6ce8
p2749
I1
sV\u719f\u98df
p2750
I1
sV\u95e8\u7c7b
p2751
I1
sV\u55c5\u89c9
p2752
I1
sV\u7f16\u5236
p2753
I2
sV\u5305\u5305
p2754
I1
sV\u5386\u53f2\u7eaa\u5f55
p2755
I1
sV\u5175\u5de5
p2756
I1
sV\u58f0\u8a89
p2757
I1
sV\u5766\u627f
p2758
I1
sV\u4e50\u8d2d
p2759
I1
sV\u4ef7\u683c\u8868
p2760
I1
sV\u70b9\u540d
p2761
I1
sV\u4ea7\u8fd0
p2762
I1
sV\u8db3\u8db3
p2763
I1
sV\u773c\u955c
p2764
I1
sV\u632a\u7528\u516c\u6b3e
p2765
I1
sV\u628a\u63e1\u4f4f
p2766
I1
sV\u8d8b\u5411
p2767
I1
sV\u5c3e\u54c1
p2768
I1
sV\u5165\u51fa\u5883
p2769
I1
sV\u88c5\u9970\u54c1
p2770
I1
sV\u4e3b\u98df
p2771
I1
sV\u6ce5\u6f6d
p2772
I1
sV\u804c\u5de5
p2773
I4
sV\u57f9\u8bad
p2774
I1
sV\u8d22\u653f\u6536\u5165
p2775
I1
sV\u6210\u4e3a
p2776
I75
sV\u54a8\u8be2\u7ec4
p2777
I1
sV\u785d\u70df
p2778
I1
sV\u4e0b\u4e61
p2779
I1
sV\u9500\u552e\u4ef7\u683c
p2780
I5
sV\u8272\u60c5
p2781
I3
sV\u5a5a\u59fb\u5bb6\u5ead
p2782
I1
sV\u4e8b\u4ef6
p2783
I12
sV\u81f4\u529b\u4e8e
p2784
I2
sV\u4fe1\u7528\u7b49\u7ea7
p2785
I1
sV\u610f\u5473
p2786
I1
sV\u4ea4\u6613\u5e73\u53f0
p2787
I1
sV\u76f4\u6d41\u7535
p2788
I1
sV\u7eaa\u5f55
p2789
I2
sV\u9ad8\u5ea6
p2790
I2
sV\u5927\u5e86
p2791
I4
sV\u516c\u5173
p2792
I2
sV\u673a\u4f1a
p2793
I7
sV\u95ea\u7535
p2794
I1
sV\u5171\u7528
p2795
I1
sV\u7b14\u8005
p2796
I1
sV\u65b9\u6cd5
p2797
I9
sV\u9732\u5929
p2798
I1
sV\u7528\u91cf
p2799
I1
sV\u540e\u7eed
p2800
I3
sV\u5546\u4e18
p2801
I1
sV\u5546\u4e1a
p2802
I17
sV\u7279\u522b\u7248
p2803
I1
sV\u4e13\u5c5e
p2804
I1
sV\u5f39\u7c27
p2805
I1
sV\u6b3e\u7269
p2806
I1
sV\u6539\u4e3a
p2807
I2
sV\u4fa0\u98ce
p2808
I1
sV\u5012\u95ed
p2809
I1
sV\u6cd5\u5f8b\u6cd5\u89c4
p2810
I6
sV\u53c2\u4e0e\u8005
p2811
I2
sV\u5185\u8499\u53e4\u81ea\u6cbb\u533a
p2812
I1
sV\u6728\u5bb6\u5177
p2813
I1
sV\u6c1b\u56f4
p2814
I3
sV\u7ebf\u5212
p2815
I1
sV\u53d7\u8ba9
p2816
I1
sV\u5305\u94a2
p2817
I1
sV\u4eae\u76f8
p2818
I1
sV\u9ad8\u9644\u52a0\u503c
p2819
I3
sV\u4e0b\u5c5e\u5355\u4f4d
p2820
I1
sV\u64cd\u4f5c
p2821
I8
sV\u8f93\u5f80
p2822
I1
sV\u65b9\u6b63\u96c6\u56e2
p2823
I2
sV\u610f\u5411
p2824
I2
sV\u5174\u594b
p2825
I1
sV\u5bb9\u5668
p2826
I1
sV\u652f\u884c
p2827
I2
sV\u539f\u6709
p2828
I1
sV\u5e95\u4ef7
p2829
I1
sV\u652f\u4ed8
p2830
I10
sV\u5fc3\u7406
p2831
I1
sV\u597d\u6d88\u606f
p2832
I3
sV\u519c\u8d44
p2833
I4
sV\u9075\u5b88
p2834
I1
sV\u6210\u4ea4
p2835
I24
sV\u6e56\u5317
p2836
I10
sV\u7f13\u89e3
p2837
I9
sV\u7a81\u8fdb
p2838
I1
sV\u5b81\u6ce2
p2839
I2
sV\u8d8b\u5347
p2840
I2
sV\u5408\u7406\u6536\u5165
p2841
I1
sV\u4fdd\u6696\u6027
p2842
I1
sV\u5927\u9762\u79ef
p2843
I3
sV\u5168\u56fd
p2844
I91
sV\u8ba4\u6e05\u5f62\u52bf
p2845
I1
sV\u83b7\u53d6
p2846
I2
sV\u786b\u542b\u91cf
p2847
I1
sV\u80fd\u7701
p2848
I1
sV\u5927\u5e02
p2849
I1
sV\u8d2d\u7f6e\u7a0e
p2850
I1
sV\u7f13\u51b2
p2851
I1
sV\u5356\u8f66
p2852
I1
sV\u6b8b\u7559
p2853
I1
sV\u66f4\u6362
p2854
I4
sV\u623f\u79df
p2855
I1
sV\u8d44\u91d1\u6765\u6e90
p2856
I1
sV\u897f\u997c
p2857
I1
sV\u53f0\u5317
p2858
I2
sV\u84dd\u8393
p2859
I2
sV\u4f4d\u7f6e
p2860
I4
sV\u7537\u88c5
p2861
I1
sV\u8083\u6e05
p2862
I1
sV\u7fbd\u7ed2\u8863
p2863
I1
sV\u5173\u53e3
p2864
I1
sV\u6e56\u5357
p2865
I10
sV\u5546\u4e8b
p2866
I2
sV\u5976\u7279\u724c
p2867
I1
sV\u5de5\u4e1a\u56ed\u533a
p2868
I1
sV\u7406\u987a
p2869
I1
sV\u5e73\u8c37
p2870
I1
sV\u7279\u522b\u8282\u76ee
p2871
I1
sV\u5e93\u5b58\u91cf
p2872
I1
sV\u4fdd\u62a4
p2873
I10
sV\u7eaa\u5f8b
p2874
I2
sV\u4e8b\u4e1a
p2875
I3
sV\u628a\u63e1
p2876
I1
sV\u793a\u8303\u533a
p2877
I2
sV\u7ebf\u8def
p2878
I4
sV\u5e9f\u6c34
p2879
I1
sV\u8bba\u65a4
p2880
I1
sV\u62c5\u4efb
p2881
I6
sV\u9ad8\u9f84
p2882
I1
sV\u89e3\u8bfb
p2883
I3
sV\u6c99\u7279\u963f\u62c9\u4f2f
p2884
I1
sV\u53ef\u671b
p2885
I1
sV\u5de5\u7a0b\u6280\u672f
p2886
I1
sV\u5bf9\u6bd4
p2887
I2
sV\u5927\u5b66\u751f
p2888
I1
sV\u84dd\u8272
p2889
I1
sV\u8d22\u5bcc
p2890
I1
sV\u4fdd\u62a4\u4e3b\u4e49
p2891
I3
sV\u5047\u8d27
p2892
I3
sV\u8868\u683c
p2893
I1
sV\u62ff\u4e0b
p2894
I1
sV\u4e49\u52a1
p2895
I3
sV\u86ee\u5e72
p2896
I1
sV\u76f8\u6bd4
p2897
I13
sV\u4f9b\u4f53
p2898
I1
sV\u5e97\u5546
p2899
I2
sV\u589e\u591a
p2900
I2
sV\u7126\u70b9
p2901
I1
sV\u5dee\u5f02
p2902
I3
sV\u5b69\u5b50
p2903
I3
sV\u83b7\u5229
p2904
I2
sV\u5730\u94c1
p2905
I2
sV\u4fdd\u6301
p2906
I15
sV\u53d1\u8868
p2907
I6
sV\u8d8b\u52bf
p2908
I17
sV\u5b66\u751f\u4f1a
p2909
I1
sV\u6d77\u76f8
p2910
I1
sV\u5e7f\u5dde
p2911
I13
sV\u95e8\u7ad9
p2912
I1
sV\u77ed\u4fe1
p2913
I1
sV\u6297\u6495\u88c2
p2914
I1
sV\u5e94\u53ca
p2915
I1
sV\u9b3c\u57ce
p2916
I1
sV\u5927\u4e2d\u57ce\u5e02
p2917
I4
sV\u63d0\u7a0e
p2918
I1
sV\u53d1\u884c
p2919
I3
sV\u524d\u8fdb
p2920
I1
sV\u9690\u6027
p2921
I1
sV\u690d\u5165
p2922
I2
sV\u7535\u7ad9
p2923
I3
sV\u52a0\u5267
p2924
I4
sV\u5236\u5ea6
p2925
I20
sV\u52a0\u5927\u529b\u5ea6
p2926
I1
sV\u9ad8\u5f03
p2927
I1
sV\u7a3b\u761f\u75c5
p2928
I1
sV\u7f51\u7edc\u8d44\u6e90
p2929
I1
sV\u8089\u86cb
p2930
I1
sV\u8f66\u7528
p2931
I12
sV\u7a7a\u6c14\u8d28\u91cf
p2932
I1
sV\u7565\u964d
p2933
I1
sV\u53ef\u9760\u6027
p2934
I3
sV\u767d\u6761\u732a
p2935
I1
sV\u6307\u51fa
p2936
I27
sV\u6784\u9020
p2937
I2
sV\u822a\u884c
p2938
I1
sV\u767b\u5c01
p2939
I1
sV\u7ec4\u5efa
p2940
I7
sV\u4e91\u96c6
p2941
I1
sV\u7a81\u7834\u53e3
p2942
I2
sV\u6076\u6027
p2943
I1
sV\u6253\u8d77
p2944
I1
sV\u6709\u529b
p2945
I1
sV\u51fa\u53e3\u5546
p2946
I1
sV\u6c47\u603b
p2947
I3
sV\u8f6c\u6696
p2948
I2
sV\u4e2d\u539f
p2949
I8
sV\u4e34\u8fd1
p2950
I5
sV\u51c0\u589e
p2951
I1
sV\u7535\u63a7
p2952
I1
sV\u86cb\u767d
p2953
I1
sV\u5e02\u573a\u90e8
p2954
I1
sV\u94dc\u9675
p2955
I1
sV\u6708\u4efd
p2956
I32
sV\u7cd6\u9152\u4f1a
p2957
I1
sV\u9999\u9165
p2958
I1
sV\u5c65\u884c
p2959
I3
sV\u5229\u76ca
p2960
I6
sV\u4e0a\u5468\u4e94
p2961
I1
sV\u672c\u62a5\u8bb0\u8005
p2962
I6
sV\u8170\u65a9
p2963
I1
sV\u5706\u684c\u4f1a\u8bae
p2964
I1
sV\u8868\u793a
p2965
I160
sV\u9001\u68c0
p2966
I1
sV\u8282\u7701
p2967
I3
sV\u505a\u4e8b
p2968
I1
sV\u9152\u697c
p2969
I1
sV\u8ba4\u77e5
p2970
I1
sV\u7cd6\u5e02
p2971
I1
sV\u5df4\u9ece
p2972
I1
sV\u5229\u7528
p2973
I14
sV\u6b7b\u4ea1
p2974
I1
sV\u81ea\u7528
p2975
I2
sV\u56de\u590d
p2976
I2
sV\u5927\u89c2
p2977
I1
sV\u94fe\u6761
p2978
I1
sV\u9047\u4e0a
p2979
I1
sV\u5e02\u573a\u5316
p2980
I7
sV\u8d2d\u8f66
p2981
I1
sV\u9752\u5c9b\u5e02
p2982
I3
sV\u56db\u5ddd\u7701
p2983
I4
sV\u89c4\u5212
p2984
I14
sV\u6df7\u5408
p2985
I9
sV\u897f\u5b89
p2986
I9
sV\u57fa\u7ad9
p2987
I4
sV\u505a\u5f3a
p2988
I1
sV\u9ad8\u7ea7\u6280\u5de5
p2989
I1
sV\u63d0\u793a
p2990
I2
sV\u5fae\u89c2
p2991
I1
sV\u592a\u539f\u5e02
p2992
I1
sV\u65e5\u843d
p2993
I1
sV\u60c5\u8282\u6076\u52a3
p2994
I1
sV\u6392\u6c61
p2995
I2
sV\u51fa\u793a
p2996
I1
sV\u544a\u77e5
p2997
I1
sV\u745e\u514b
p2998
I1
sV\u5357\u56fd
p2999
I1
sV\u516c\u8bc9\u4eba
p3000
I1
sV\u533a\u514d
p3001
I1
sV\u7eba\u7ec7\u4e1a
p3002
I1
sV\u653f\u5e9c
p3003
I52
sV\u8bf1\u5bfc
p3004
I1
sV\u72ec\u5bb6
p3005
I1
sV\u59d4\u5458\u4f1a
p3006
I16
sV\u4e2d\u503c
p3007
I1
sV\u5317\u56fd
p3008
I1
sV\u83dc\u5e02\u573a
p3009
I2
sV\u7834\u89e3
p3010
I1
sV\u65b0\u897f\u5170
p3011
I1
sV\u8fdb\u5c55
p3012
I2
sV\u52a0\u5165
p3013
I3
sV\u6b63\u7248\u8f6f\u4ef6
p3014
I1
sV\u5b89\u68c0
p3015
I1
sV\u9a7e\u8f66
p3016
I2
sV\u5bcc\u96c6
p3017
I1
sV\u8131\u56f0
p3018
I2
sV\u7ecf\u7406
p3019
I2
sV\u5f62\u5f0f
p3020
I3
sV\u7a33\u5b9a\u6027
p3021
I1
sV\u60c5\u4fa3
p3022
I1
sV\u4e61\u6751
p3023
I1
sV\u51fa\u79df
p3024
I1
sV\u6cb9\u4ef7
p3025
I95
sV\u5b9a\u4ef7
p3026
I11
sV\u6ce2\u6298
p3027
I1
sV\u8865\u8d27
p3028
I2
sV\u516c\u53f8
p3029
I135
sV\u5c0f\u5fae
p3030
I1
sV\u5730\u5757
p3031
I1
sV\u9ad8\u5c42
p3032
I4
sV\u6ce1\u6cab
p3033
I3
sV\u91d1\u6c99\u6c5f
p3034
I1
sV\u5730\u5740
p3035
I1
sV\u5bb6\u7535\u4ea7\u54c1
p3036
I2
sV\u6218\u7ee9
p3037
I1
sV\u4e13\u9898\u7814\u7a76
p3038
I1
sV\u7ecf\u6d4e\u793e\u4f1a
p3039
I1
sV\u5347\u53ca
p3040
I1
sV\u4e1c\u839e\u5e02
p3041
I1
sV\u767b\u5f55
p3042
I1
sV\u897f\u5b50
p3043
I1
sV\u5730\u9762
p3044
I3
sV\u751f\u4ea7\u8005
p3045
I1
sV\u8bc9\u8bbc\u72b6
p3046
I1
sV\u5b9a\u4f4d
p3047
I8
sV\u5143\u7d20
p3048
I1
sV\u94c1\u77ff\u77f3
p3049
I9
sV\u724c\u7167
p3050
I2
sV\u5ba2\u7968
p3051
I1
sV\u5feb\u9012
p3052
I4
sV\u4e3b\u9898
p3053
I3
sV\u9884\u5b9a
p3054
I1
sV\u4e3b\u8425\u4e1a\u52a1
p3055
I2
sV\u4fdd\u8d28\u671f
p3056
I2
sV\u8f68\u9053\u4ea4\u901a
p3057
I1
sV\u6cb9\u54c1
p3058
I16
sV\u9886\u5bfc\u54c1\u724c
p3059
I1
sV\u5c0f\u5e45
p3060
I21
sV\u7a0e\u7387
p3061
I3
sV\u53d1\u8a00
p3062
I2
sV\u4f9b\u8d27
p3063
I1
sV\u641e\u81ed
p3064
I1
sV\u901f\u5ea6
p3065
I5
sV\u51fa\u79df\u8f66
p3066
I6
sV\u635f\u8017
p3067
I2
sV\u5357\u660c
p3068
I1
sV\u97f3\u4e50\u4f5c\u54c1
p3069
I1
sV\u5bf9\u4ea7
p3070
I1
sV\u53d7\u4f24\u5bb3
p3071
I1
sV\u964d\u81f3
p3072
I36
sV\u6cb9\u94b1
p3073
I4
sV\u9009\u7387
p3074
I1
sV\u4e3a\u5148
p3075
I2
sV\u5e97\u9762
p3076
I4
sV\u9a8c\u8bc1
p3077
I1
sV\u5546\u8d38
p3078
I1
sV\u5927\u5ddd
p3079
I1
sV\u60c5\u7eea
p3080
I5
sV\u5851\u5316\u5242
p3081
I1
sV\u7ecf\u62a5
p3082
I1
sV\u9c9c\u660e\u5bf9\u6bd4
p3083
I2
sV\u4ef7\u503c\u94fe
p3084
I1
sV\u73cd\u9152
p3085
I1
sV\u4e8c\u8fde
p3086
I1
sV\u5546\u8d29
p3087
I1
sV\u4e0a\u8bc1\u6307\u6570
p3088
I1
sV\u5168\u8d44
p3089
I4
sV\u697c\u4ef7
p3090
I1
sV\u7acb\u6848
p3091
I4
sV\u6401\u6d45
p3092
I29
sV\u4f1a\u8bae\u5ba4
p3093
I1
sV\u836f\u7406
p3094
I1
sV\u8003\u8bc1
p3095
I1
sV\u98df\u6750
p3096
I1
sV\u83b7\u6089
p3097
I22
sV\u90d1\u5dde
p3098
I6
sV\u7535\u78c1
p3099
I1
sV\u7591\u95ee
p3100
I1
sV\u5b9e\u540d\u5236
p3101
I2
sV\u7709\u5c71
p3102
I1
sV\u6210\u54c1\u6cb9
p3103
I128
sV\u5b58\u7ba1
p3104
I1
sV\u7ecf\u8425\u6237
p3105
I1
sV\u732a\u4ef7
p3106
I1
sV\u623f\u5c4b
p3107
I3
sV\u6668\u62a5\u8baf
p3108
I2
sV\u62e8\u5907
p3109
I1
sV\u5de5\u4f5c\u65e5
p3110
I35
sV\u73af\u5883\u4fdd\u62a4
p3111
I4
sV\u519c\u4e1a
p3112
I12
sV\u624b\u7eed
p3113
I3
sV\u5bbd\u5e26\u63a5\u5165
p3114
I1
sV\u5317\u975e
p3115
I2
sV\u5408\u4f19\u4eba
p3116
I5
sV\u51c0\u5229\u6da6
p3117
I3
sV\u8463\u4e8b
p3118
I6
sV\u997c\u5e97
p3119
I1
sV\u8461\u8404
p3120
I1
sV\u6536\u89c6
p3121
I1
sV\u4fe1\u8a89
p3122
I1
sV\u5e74\u7ec8\u5956
p3123
I1
sV\u8282\u76ee
p3124
I2
sV\u9996\u64ad
p3125
I1
sV\u94c1\u8def
p3126
I8
sV\u5012\u8ba1\u65f6
p3127
I1
sV\u5c0f\u5e97
p3128
I1
sV\u5927\u578b\u8d85\u5e02
p3129
I1
sV\u52a0\u901f
p3130
I14
sV\u91d1\u878d\u673a\u6784
p3131
I3
sV\u575a\u5b88
p3132
I1
sV\u5931\u8054
p3133
I1
sV\u6daa\u9675
p3134
I1
sV\u6cb3\u5357
p3135
I8
sV\u6da8\u4ef7
p3136
I12
sV\u514d\u75ab
p3137
I1
sV\u5546\u5708
p3138
I2
sV\u9752\u6d77
p3139
I1
sV\u7a00\u4e16
p3140
I1
sV\u5de5\u827a
p3141
I3
sV\u5355\u65a4
p3142
I1
sV\u6572\u8bc8
p3143
I1
sV\u52a0\u8db3\u9a6c\u529b
p3144
I1
sV\u76d1\u6d4b\u6570\u636e
p3145
I8
sV\u8d60\u9001
p3146
I1
sV\u9020\u51fa\u6765
p3147
I1
sV\u6848\u4ef6
p3148
I12
sV\u53d1\u751f
p3149
I15
sV\u5927\u4e9a\u6e7e
p3150
I1
sV\u4eba\u7fa4
p3151
I1
sV\u4e70\u8f66
p3152
I1
sV\u8425\u4e1a
p3153
I3
sV\u8d85\u51fa
p3154
I7
sV\u516c\u5b89\u90e8\u95e8
p3155
I4
sV\u957f\u671f\u6027
p3156
I1
sV\u89c1\u4e60
p3157
I1
sV\u4fe1\u7528
p3158
I3
sV\u6cb3\u5317
p3159
I6
sV\u54c1\u724c
p3160
I59
sV\u5b9e\u6709
p3161
I1
sV\u603b\u9700\u6c42
p3162
I1
sV\u96f7\u519b
p3163
I1
sV\u4e32\u901a
p3164
I1
sV\u8154\u9aa8
p3165
I1
sV\u5355\u65e5
p3166
I1
sV\u5bf9\u51c6
p3167
I2
sV\u7528\u9519
p3168
I1
sV\u521b\u4e1a\u8005
p3169
I2
sV\u60c5\u611f
p3170
I1
sV\u63a9\u76d6
p3171
I1
sV\u89c4\u683c
p3172
I1
sV\u63a5\u8fde
p3173
I4
sV\u9047\u706b
p3174
I1
sV\u6bdb\u76ae
p3175
I1
sV\u76f8\u9694
p3176
I1
sV\u5927\u6237
p3177
I1
sV\u9500\u5f80
p3178
I1
sV\u4eba\u4f24
p3179
I1
sV\u4e98\u90a6
p3180
I1
sV\u961f\u4f0d
p3181
I2
sV\u65b0\u7586
p3182
I5
sV\u53a6\u95e8
p3183
I1
sV\u610f\u5473\u7740
p3184
I4
sV\u6e17\u900f\u7387
p3185
I3
sV\u8df3\u697c\u4ef7
p3186
I1
sV\u5171\u540c\u4f53
p3187
I1
sV\u53d8\u8d28
p3188
I1
sV\u8d1f\u503c
p3189
I2
sV\u5b9e\u9a8c\u5ba4
p3190
I3
sV\u7ba1\u7406\u7cfb\u7edf
p3191
I1
sV\u5347\u6e29
p3192
I3
sV\u914d\u65b9
p3193
I8
sV\u6280\u672f
p3194
I59
sV\u540d\u5355
p3195
I1
sV\u62c9\u52a8
p3196
I6
sV\u5fbd\u5546
p3197
I1
sV\u8d27\u5e01
p3198
I4
sV\u7164\u5236\u6cb9
p3199
I1
sV\u4e94\u5e02
p3200
I1
sV\u79c1\u8425\u7ecf\u6d4e
p3201
I1
sV\u79bd\u6d41\u611f
p3202
I1
sV\u5347\u6da8
p3203
I10
sV\u7a3b\u8c37
p3204
I1
sV\u63a5\u8f68
p3205
I1
sV\u67aa\u68b0
p3206
I1
sV\u65b9\u4e08\u5ba4
p3207
I1
sV\u8015\u5730
p3208
I1
sV\u63a5\u8f7d
p3209
I1
sV\u7164\u77ff
p3210
I2
sV\u5de5\u7a0b\u9879\u76ee
p3211
I2
sV\u672c\u8349\u7ecf
p3212
I1
sV\u7f5a\u5355
p3213
I3
sV\u98df\u5802
p3214
I1
sV\u6276\u6301
p3215
I5
sV\u6c7d\u8f66\u51fa\u53e3
p3216
I1
sV\u6536\u76ca
p3217
I3
sV\u7f8e\u5fc3
p3218
I1
sV\u5f71\u89c6\u7f51
p3219
I1
sV\u5f31\u52bf
p3220
I1
sV\u63a5\u5f85
p3221
I1
sV\u56fd\u5b66
p3222
I1
sV\u7535\u4fe1\u4e1a\u52a1
p3223
I2
sV\u6536\u76d8
p3224
I2
sV\u6d77\u5173
p3225
I2
sV\u4fdd\u9669\u884c\u4e1a
p3226
I2
sV\u6574\u6d41\u7f69
p3227
I1
sV\u4eba\u4f53
p3228
I1
sV\u517b\u6b96\u6237
p3229
I2
sV\u52a0\u6ee1
p3230
I3
sV\u98de\u5411
p3231
I1
sV\u67f4\u6cb9\u8f66
p3232
I3
sV\u6d17\u8863\u673a
p3233
I1
sV\u53d7\u76ca
p3234
I4
sV\u589e\u6548
p3235
I2
sV\u4ee3\u8868
p3236
I15
sV\u907f\u8ba9
p3237
I1
sV\u7ed5\u822a
p3238
I1
sV\u5165\u56f4
p3239
I1
sV\u5546\u4e1a\u5730\u4ea7
p3240
I2
sV\u5e7f\u4e1c\u7701
p3241
I9
sV\u57ce\u5e02\u5c45\u6c11
p3242
I1
sV\u7981\u6b62
p3243
I3
sV\u8d70\u8d77
p3244
I1
sV\u836f\u5242\u5e08
p3245
I1
sV\u4ea7\u751f
p3246
I10
sV\u751f\u4ea7\u91cf
p3247
I1
sV\u5b8f\u89c2
p3248
I2
sV\u5236\u6210
p3249
I1
sV\u7a7f\u8d8a
p3250
I1
sV\u534a\u5bfc\u4f53
p3251
I2
sV\u661f\u7ea7
p3252
I1
sV\u4f9b\u5e94\u5546
p3253
I2
sV\u4f9d\u6cd5
p3254
I13
sV\u571f\u58e4\u73af\u5883
p3255
I1
sV\u6563\u552e
p3256
I1
sV\u6295\u673a
p3257
I4
sV\u8d85\u6807
p3258
I2
sV\u4e2d\u592e
p3259
I8
sV\u529f\u80fd
p3260
I8
sV\u7a7a\u5ba2
p3261
I1
sV\u4e34\u5e8a\u8bd5\u9a8c
p3262
I1
sV\u53d8\u9769
p3263
I4
sV\u516c\u6c11
p3264
I1
sV\u4e13\u7528\u8bbe\u5907
p3265
I1
sV\u5212\u62e8
p3266
I1
sV\u7ec4\u6210
p3267
I3
sV\u5efa\u7b51\u4e1a
p3268
I1
sV\u51b2\u81f3
p3269
I2
sV\u8017\u7aed
p3270
I2
sV\u7eba\u7ec7
p3271
I2
sV\u573a\u6240
p3272
I2
sV\u589e\u6536
p3273
I1
sV\u9006\u88ad
p3274
I1
sV\u5784\u65ad\u6848
p3275
I4
sV\u9053\u5916\u533a
p3276
I1
sV\u8d70\u8d27
p3277
I1
sV\u8bbf\u8c08
p3278
I1
sV\u6d3d\u8c08
p3279
I2
sV\u7edf\u8ba1\u5e08
p3280
I1
sV\u62b5\u62bc\u7269
p3281
I1
sV\u6b27\u6d32
p3282
I5
sV\u5b89\u4e18\u5e02
p3283
I1
sV\u67e5\u51fa
p3284
I1
sV\u56de\u6696
p3285
I9
sV\u7a0e\u8d39
p3286
I2
sV\u5782\u76f4
p3287
I3
sV\u5f15\u5165
p3288
I8
sV\u69a8\u5b63
p3289
I1
sV\u6c2e\u6c27\u5316\u5408\u7269
p3290
I1
sV\u8d70\u8dcc
p3291
I3
sV\u603b\u4f53
p3292
I14
sV\u9636\u6bb5\u6027
p3293
I4
sV\u67dc\u53f0
p3294
I1
sV\u6c34\u7a3b
p3295
I1
sV\u95ee\u8be2
p3296
I1
sV\u53cc\u91cd
p3297
I1
sV\u53f0\u6e7e
p3298
I8
sV\u57ce\u9645
p3299
I1
sV\u6d41\u5931
p3300
I1
sV\u98ce\u795e
p3301
I2
sV\u8c03\u81f3
p3302
I4
sV\u4e0d\u4f11
p3303
I1
sV\u7528\u54c1
p3304
I1
sV\u77e5\u540d\u54c1\u724c
p3305
I3
sV\u8001\u677f
p3306
I4
sV\u5438\u5f15
p3307
I9
sV\u8336\u51e0
p3308
I1
sV\u4e4c\u9c81\u6728\u9f50
p3309
I1
sV\u68c0\u5bdf\u673a\u5173
p3310
I3
sV\u6295\u8d44\u603b\u989d
p3311
I1
sV\u836f\u5178
p3312
I1
sV\u7cae\u5546
p3313
I1
sV\u4f20\u64ad
p3314
I10
sV\u884c\u5c45
p3315
I1
sV\u6263\u62bc
p3316
I2
sV\u822a\u7a7a\u5668
p3317
I1
sV\u7518\u8083\u5170\u5dde
p3318
I1
sV\u9752\u5c9b
p3319
I2
sV\u5546\u54c1\u8d28\u91cf
p3320
I1
sV\u5382\u77ff
p3321
I1
sV\u8fdb\u53e3\u8f7f\u8f66
p3322
I1
sV\u8c82\u76ae
p3323
I1
sV\u725b\u5cad
p3324
I1
sV\u6551\u6d4e
p3325
I3
sV\u8d26\u53f7
p3326
I1
sV\u4fdd\u7ba1\u8d39
p3327
I1
sV\u5173\u5e97
p3328
I2
sV\u4e73\u5236\u54c1
p3329
I1
sV\u7528\u4e0d\u5b8c
p3330
I1
sV\u52a0\u6df1
p3331
I3
sV\u91cd\u9633
p3332
I1
sV\u4e13\u9898\u62a5\u544a
p3333
I1
sV\u7f3a\u5931
p3334
I4
sV\u5df4\u897f\u5229\u4e9a
p3335
I1
sV\u5907\u6848
p3336
I3
sV\u771f\u85cf
p3337
I1
sV\u5356\u623f\u5b50
p3338
I1
sV\u5730\u6bb5
p3339
I1
sV\u5ba3\u5e03
p3340
I18
sV\u6574\u6539
p3341
I4
sV\u76ae\u80a4
p3342
I1
sV\u4e0b\u964d
p3343
I67
sV\u8ba4\u8bc1
p3344
I5
sV\u5370\u8c61
p3345
I1
sV\u7b7e\u7ea6
p3346
I3
sV\u95f2\u7f6e
p3347
I1
sV\u4e24\u57ce
p3348
I1
sV\u4e3a\u6c11
p3349
I1
sV\u79cd\u4e1a
p3350
I1
sV\u91c7\u53d6
p3351
I8
sV\u8840\u6a80
p3352
I1
sV\u7528\u5730
p3353
I2
sV\u53d8\u8fc1
p3354
I1
sV\u5fa1\u56ed
p3355
I1
sV\u4f1a\u89c1
p3356
I1
sV\u4f53\u9a8c\u5f0f
p3357
I2
sV\u4e2d\u6c11
p3358
I1
sV\u5f00\u7f5a
p3359
I1
sV\u6fb3\u5e01
p3360
I1
sV\u900f\u9732
p3361
I17
sV\u663e\u793a
p3362
I54
sV\u7684\u58eb
p3363
I1
sV\u5206\u6790\u62a5\u544a
p3364
I1
sV\u8bd5\u70b9\u5de5\u4f5c
p3365
I5
sV\u89c4\u6a21
p3366
I36
sV\u5929\u7136\u6c14
p3367
I8
sV\u963f\u8054\u914b
p3368
I1
sV\u6d77\u89d2
p3369
I1
sV\u6746\u8def
p3370
I1
sV\u65b0\u54c1\u79cd
p3371
I1
sV\u50cf\u662f
p3372
I1
sV\u5206\u5b50
p3373
I1
sV\u5148\u751f
p3374
I5
sV\u8d35\u5dde
p3375
I3
sV\u4e0d\u9760
p3376
I1
sV\u521b\u4e1a
p3377
I9
sV\u63a5\u8d27
p3378
I1
sV\u521b\u4e0b
p3379
I10
sV\u540d\u917f
p3380
I1
sV\u5c45\u6c11
p3381
I2
sV\u5bf9\u5934
p3382
I1
sV\u57fa\u77f3
p3383
I1
sV\u51b0\u7bb1
p3384
I1
sV\u8d26\u5355
p3385
I1
sV\u9999\u6e2f
p3386
I13
sV\u8001\u767e\u59d3
p3387
I5
sV\u5c71\u897f\u8def
p3388
I1
sV\u83b1\u829c\u5e02
p3389
I1
sV\u540e\u8005
p3390
I1
sV\u516c\u5173\u90e8
p3391
I1
sV\u57ce\u9547
p3392
I2
sV\u8def\u7ebf
p3393
I5
sV\u5907\u5fd8\u5f55
p3394
I1
sV\u5267\u60c5
p3395
I2
sV\u66b4\u6da8
p3396
I3
sV\u90e8\u5206
p3397
I52
sV\u767e\u5f3a
p3398
I2
sV\u8c03\u8282
p3399
I1
sV\u9001\u540d
p3400
I1
sV\u5c45\u6c42
p3401
I1
sV\u90e8\u526f
p3402
I3
sV\u9886\u5148\u6c34\u5e73
p3403
I2
sV\u626e\u6f14
p3404
I1
sV\u5b9e\u65bd
p3405
I32
sV\u82b1\u8d39
p3406
I1
sV\u5206\u7c7b
p3407
I2
sV\u75be\u75c5
p3408
I1
sV\u964c\u751f
p3409
I1
sV\u96be\u6c42
p3410
I1
sV\u91cd\u56de
p3411
I6
sV\u9633\u6027
p3412
I1
sV\u62a5\u9053
p3413
I39
sV\u5f15\u7528
p3414
I2
sV\u5ba1\u8ba1
p3415
I1
sV\u4fdd\u969c\u6027
p3416
I1
sV\u8bad\u7ec3
p3417
I1
sV\u4ea4\u6613\u65b9\u5f0f
p3418
I1
sV\u5f85\u9047
p3419
I1
sV\u653e\u5728
p3420
I2
sV\u6398\u8fdb
p3421
I1
sV\u91cd\u5730
p3422
I1
sV\u6d77\u6e7e
p3423
I2
sV\u884c\u52a8\u8ba1\u5212
p3424
I2
sV\u8d38\u6613\u90e8
p3425
I1
sV\u8d70\u4f4e
p3426
I2
sV\u6c11\u529e\u975e
p3427
I1
sV\u8c03\u836f
p3428
I1
sV\u89e3\u51b3\u65b9\u6848
p3429
I1
sV\u503e\u5012
p3430
I1
sV\u5c3e\u6c14
p3431
I4
sV\u9009\u62e9\u6027
p3432
I1
sV\u70df\u53f0
p3433
I1
sV\u79d1\u6280\u90e8
p3434
I2
sV\u51a0\u519b
p3435
I2
sV\u8ba1\u7b97
p3436
I33
sV\u7535\u529b\u4f01\u4e1a
p3437
I2
sV\u516b\u65b9
p3438
I1
sV\u6c11\u65cf
p3439
I3
sV\u6295\u653e
p3440
I1
sV\u7981\u6b62\u4ee4
p3441
I1
sV\u8fbe\u80fd
p3442
I2
sV\u63a2\u7d22
p3443
I3
sV\u9ad8\u5206
p3444
I1
sV\u518d\u6b21\u51fa\u73b0
p3445
I1
sV\u636e\u4ecb\u7ecd
p3446
I1
sV\u5c0f\u623f
p3447
I1
sV\u98df\u5b89
p3448
I1
sV\u53ef\u71c3\u51b0
p3449
I1
sV\u52a0\u6cb9
p3450
I9
sV\u4e0d\u60dc
p3451
I2
sV\u767e\u5ea6
p3452
I4
sV\u6709\u70b9
p3453
I3
sV\u5eb8\u4eba
p3454
I1
sV\u5386\u5e74
p3455
I1
sV\u6c7d\u8f66\u4e1a
p3456
I2
sV\u6838\u51c6
p3457
I1
sV\u53ea\u964d
p3458
I1
sV\u5de1\u89c6\u5458
p3459
I1
sV\u8d5e\u6210\u7968
p3460
I1
sV\u9632\u6b62
p3461
I2
sV\u6d6e\u73b0
p3462
I1
sV\u8f6f\u94f6
p3463
I1
sV\u52a0\u6c99
p3464
I1
sV\u53d1\u7535
p3465
I6
sV\u6837\u8863
p3466
I1
sV\u59cb\u672b
p3467
I1
sV\u9700\u6c42\u9884\u6d4b
p3468
I1
sV\u76ae\u8102
p3469
I1
sV\u4f18\u54c1
p3470
I2
sV\u745e\u5c14
p3471
I1
sV\u5de5\u5546\u6237
p3472
I3
sV\u4fdd\u8bc1\u91d1
p3473
I1
sV\u9884\u671f
p3474
I21
sV\u65f6\u8bf4
p3475
I2
sV\u670d\u9970
p3476
I2
sV\u719f\u6089
p3477
I3
sV\u8f7d\u5ba2
p3478
I1
sV\u63a5\u53e3\u7c7b
p3479
I1
sV\u62db\u884c
p3480
I1
sV\u80a1\u5e02
p3481
I1
sV\u7efc\u5408\u4f53
p3482
I1
sV\u4e0d\u964d
p3483
I1
sV\u996d\u5e97\u4e1a
p3484
I1
sV\u5b66\u4f1a
p3485
I2
sV\u4ea7\u54c1\u76ee\u5f55
p3486
I1
sV\u9178\u4ef7
p3487
I1
sV\u70ed\u6c34
p3488
I1
sV\u5f62\u6210
p3489
I49
sV\u9152\u54c1
p3490
I1
sV\u9ed1\u571f\u5730
p3491
I1
sV\u5c1a\u6e38
p3492
I1
sV\u4f63\u91d1
p3493
I1
sV\u4f4e\u4ef7
p3494
I9
sV\u5904\u7406\u7ed3\u679c
p3495
I1
sV\u53d7\u7406
p3496
I1
sV\u7a7a\u5929
p3497
I1
sV\u4e00\u89c8
p3498
I2
sV\u53d7\u5230
p3499
I21
sV\u8bc8\u9a97
p3500
I2
sV\u7b79\u5efa
p3501
I2
sV\u8336\u53f6
p3502
I1
sV\u4e2a\u522b
p3503
I7
sV\u4e13\u5356\u5e97
p3504
I2
sV\u8d22\u653f
p3505
I5
sV\u53bb\u6389
p3506
I1
sV\u8fea\u62dc
p3507
I3
sV\u542f\u822a
p3508
I1
sV\u79cd\u690d\u4e1a
p3509
I1
sV\u74f6\u9888
p3510
I4
sV\u6d4e\u5b81
p3511
I1
sV\u673a\u5668\u4eba
p3512
I1
sV\u884c\u7a0b
p3513
I1
sV\u5efa\u5382
p3514
I2
sV\u505c\u8f66\u573a
p3515
I3
sV\u94c1\u77ff
p3516
I1
sV\u8054\u5408
p3517
I18
sV\u5ba2\u89c2\u89c4\u5f8b
p3518
I1
sV\u6392\u91cf
p3519
I3
sV\u52a8\u6f2b
p3520
I1
sV\u7ba1\u7406\u4f53\u7cfb
p3521
I1
sV\u91cd\u9022
p3522
I1
sV\u82af\u7247
p3523
I2
sV\u4e2a\u4eba\u4fe1\u606f
p3524
I1
sV\u5165\u53e3
p3525
I2
sV\u8eab\u4f53
p3526
I3
sV\u62e5\u5835
p3527
I1
sV\u4f4e\u7a7a
p3528
I1
sV\u5185\u8d44
p3529
I2
sV\u5165\u53f8
p3530
I1
sV\u601d\u8003
p3531
I3
sV\u8bbe\u8ba1
p3532
I12
sV\u4e8b\u4e1a\u90e8
p3533
I1
sV\u6ee8\u6c5f\u9053
p3534
I1
sV\u5149\u7ebf
p3535
I1
sV\u4e8c\u624b\u623f
p3536
I4
sV\u5b9e\u65bd\u65b9\u6848
p3537
I2
sV\u4e0d\u51cf
p3538
I1
sV\u6392\u961f
p3539
I5
sV\u8c05\u89e3
p3540
I1
sV\u989d\u5ea6
p3541
I1
sV\u521b\u59cb\u4eba
p3542
I7
sV\u51cf\u6392
p3543
I1
sV\u9f50\u8dcc
p3544
I2
sV\u9996\u5f00
p3545
I1
sV\u8d22\u62a5
p3546
I1
sV\u4e2d\u56fd\u53f0\u6e7e
p3547
I1
sV\u5e95\u6c14
p3548
I1
sV\u6307\u6807
p3549
I12
sV\u53c2\u6295
p3550
I1
sV\u5bb6\u7535\u884c\u4e1a
p3551
I3
sV\u83cc\u843d
p3552
I1
sV\u4f18\u5316
p3553
I8
sV\u66ff\u6362
p3554
I1
sV\u65b9\u9488
p3555
I1
sV\u4e89\u593a
p3556
I2
sV\u5168\u7403\u5316
p3557
I1
sV\u6761\u6587
p3558
I1
sV\u56f4\u6bb4
p3559
I1
sV\u5b89\u5229
p3560
I1
sV\u62a2\u8517
p3561
I1
sV\u5bcc\u6c11
p3562
I1
sV1\u53f7\u5e97
p3563
I2
sV\u79c1\u8bbe
p3564
I1
sV\u653e\u5047
p3565
I1
sV\u4f1f\u4e1a
p3566
I2
sV\u4f4e\u7aef
p3567
I3
sV\u5468\u8fb9\u56fd\u5bb6
p3568
I2
sV\u73b0\u5b9e
p3569
I3
sV\u8d1f\u5411
p3570
I1
sV\u7f8e\u5bb9
p3571
I1
sV\u8bf4\u660e\u4e66
p3572
I2
sV\u9636\u6bb5
p3573
I8
sV\u4e0d\u4f26\u745e\u514b
p3574
I1
sV\u96c6\u6c14
p3575
I1
sV\u4e73\u4f01
p3576
I2
sV\u533b\u836f
p3577
I7
sV\u6d88\u8d39\u5e02\u573a
p3578
I1
sV\u6807\u53f7
p3579
I8
sV\u72b6\u6001
p3580
I6
sV\u50a8\u5b58
p3581
I1
sV\u5077\u9003
p3582
I1
sV\u5e95\u76d8
p3583
I2
sV\u90e8\u5411
p3584
I1
sV\u51cf\u6301
p3585
I1
sV\u9632\u6cbb
p3586
I4
sV\u5305\u4ed3
p3587
I1
sV\u7406\u6027
p3588
I5
sV\u65b0\u673a\u9047
p3589
I1
sV\u5927\u660c
p3590
I1
sV\u5408\u7ea6
p3591
I2
sV\u95ee\u4ef7
p3592
I1
sV\u8c03\u67e5\u7ec4
p3593
I2
sV\u5168\u5c40
p3594
I1
sV\u623f\u7956\u540d
p3595
I1
sV\u5fc5\u80dc
p3596
I1
sV\u57ce\u533a
p3597
I3
sV\u5165\u533a
p3598
I1
sV\u4fe1\u8d37
p3599
I5
sV\u9690\u5f62
p3600
I1
sV\u8bd5\u98de
p3601
I1
sV\u519c\u7530
p3602
I1
sV\u722c\u5761
p3603
I1
sV\u62e8\u6253
p3604
I1
sV\u603b\u884c
p3605
I2
sV\u9881\u5956\u5178\u793c
p3606
I1
sV\u6765\u6e90
p3607
I6
sV\u7535\u529b\u7ebf
p3608
I1
sV\u8f89\u5c71
p3609
I1
sV\u8fd0\u5f80
p3610
I1
sV\u9152\u5382
p3611
I2
sV\u5957\u73b0
p3612
I1
sV\u65b9\u5411
p3613
I7
sV\u7279\u5356
p3614
I1
sV\u6cf0\u4e2d
p3615
I1
sV\u65f6\u4ee3\u7279\u5f81
p3616
I1
sV\u534f\u4f1a\u4f1a\u957f
p3617
I1
sV\u6e7f\u75b9
p3618
I1
sV\u81ea\u4e3b
p3619
I20
sV\u751f\u4ea7\u6027
p3620
I1
sV\u539f\u7814
p3621
I1
sV\u987e\u95ee\u516c\u53f8
p3622
I1
sV\u6bcd\u732a
p3623
I1
sV\u7533\u7acb
p3624
I1
sV\u5927\u5b66\u6bd5\u4e1a
p3625
I1
sV\u4e1c\u4e49
p3626
I1
sV\u7d2f\u79ef
p3627
I2
sV\u6765\u6536
p3628
I1
sV\u6848\u5f00\u5ead
p3629
I1
sV\u4e2d\u6b62
p3630
I1
sV\u8206\u8bba
p3631
I4
sV\u5206\u7ba1
p3632
I1
sV\u6cf8\u5dde
p3633
I3
sV\u5357\u5c71
p3634
I1
sV\u6551\u63f4\u961f
p3635
I1
sV\u7b7e\u8bc1
p3636
I1
sV\u5168\u7701
p3637
I6
sV\u9ad8\u67b6
p3638
I1
sV\u5bf9\u5e94
p3639
I7
sV\u8bf1\u60d1
p3640
I1
sV\u573a\u666f
p3641
I1
sV\u6291\u5236
p3642
I2
sV\u7814\u7a76
p3643
I26
sV\u516c\u76ca
p3644
I4
sV\u538b\u88c2\u8f66
p3645
I1
sV\u597d\u83b1\u575e
p3646
I1
sV\u8ba8\u85aa
p3647
I1
sV\u90e8\u95e8
p3648
I28
sV\u8054\u52a8
p3649
I3
sV\u6280\u672f\u53c2\u6570
p3650
I2
sV\u5012\u5356
p3651
I1
sV\u7b7e\u8ba2
p3652
I7
sV\u62cd\u6444
p3653
I2
sV\u4e2d\u6b27
p3654
I2
sV\u9014\u725b
p3655
I2
sV\u5408\u7f72
p3656
I1
sV\u836f\u4ee3
p3657
I1
sV\u9996\u5e2d
p3658
I8
sV\u7528\u9014
p3659
I2
sV\u7529\u5356
p3660
I1
sV\u4fb5\u72af
p3661
I3
sV\u56e0\u6d89\u5acc
p3662
I1
sV\u9057\u5931
p3663
I1
sV\u88c5\u673a\u5bb9\u91cf
p3664
I1
sV\u5e72\u6563\u8d27
p3665
I1
sV\u95ef\u5173
p3666
I1
sV\u4e73\u4e1a
p3667
I5
sV\u6c34\u4ea7\u54c1
p3668
I4
sV\u7cd6\u70df\u9152
p3669
I1
sV\u7ba1\u7406\u4e2d\u5fc3
p3670
I2
sV\u8f66\u8d39
p3671
I1
sV\u65d7\u8230\u5e97
p3672
I1
sV\u8c37\u7269
p3673
I1
sV\u4fdd\u5bc6
p3674
I1
sV\u836f\u4e1a
p3675
I2
sV\u6b22\u4e50\u8c37
p3676
I1
sV\u8bc4\u59d4
p3677
I1
sV\u5927\u7247
p3678
I2
sV\u7f6e\u6362
p3679
I2
sV\u5f71\u89c6\u4f5c\u54c1
p3680
I1
sV\u64ac\u52a8
p3681
I2
sV\u571f\u5730
p3682
I17
sV\u81ea\u884c\u8f66
p3683
I1
sV\u8eab\u4ef7
p3684
I1
sV\u4ea7\u86cb\u91cf
p3685
I1
sV\u5370\u5ea6
p3686
I4
sV\u5e02\u573a\u4e3b\u4f53
p3687
I2
sV\u589e\u503c
p3688
I4
sV\u56de\u62a5
p3689
I1
sV\u8eab\u4efd
p3690
I3
sV\u6e2f\u533a
p3691
I1
sV\u8981\u5f85
p3692
I1
sV\u90e8\u957f
p3693
I4
sV\u5317\u6d41
p3694
I1
sV\u8ba4\u8bc6
p3695
I3
sV\u6240\u5f97\u7a0e
p3696
I2
sV\u76ee\u7684
p3697
I4
sV\u54c1\u8d28
p3698
I8
sV\u77ff\u5c71
p3699
I4
sV\u6b4c\u661f
p3700
I1
sV\u5c31\u4e1a
p3701
I4
sV\u8001\u631d
p3702
I1
sV\u76f4\u8a00
p3703
I1
sV\u9c9c\u6709
p3704
I1
sV\u5f8b\u653f\u53f8
p3705
I1
sV\u8f7f\u8f66
p3706
I11
sV\u5bb6\u5c45
p3707
I3
sV\u9996\u5ea6
p3708
I2
sV\u91cd\u91cf
p3709
I2
sV\u5f53\u5f53\u7f51
p3710
I1
sV\u7ec6\u8282
p3711
I1
sV\u8c6a\u8d4c
p3712
I1
sV\u53f8\u6cd5\u89e3\u91ca
p3713
I1
sV\u4f18\u52bf
p3714
I22
sV\u653f\u7b56
p3715
I61
sV\u4e1c\u4eac
p3716
I1
sV\u52a8\u6001
p3717
I1
sV\u5bb6\u5c5e
p3718
I1
sV\u672a\u80fd
p3719
I3
sV\u4f18\u5148
p3720
I2
sV\u8d28\u76d1
p3721
I1
sV\u9ad8\u538b
p3722
I2
sV\u4e0d\u53ef
p3723
I1
sV\u804c\u4e1a
p3724
I4
sV\u8d77\u6da8
p3725
I1
sV\u822a\u73ed
p3726
I8
sV\u80a1\u96f7\u58eb
p3727
I1
sV\u91d1\u878d\u5e02\u573a
p3728
I1
sV\u5951\u7ea6
p3729
I2
sV\u6807\u914d
p3730
I2
sV\u62d6\u6b20
p3731
I1
sV\u7d22\u8d54
p3732
I1
sV\u643a\u7a0b
p3733
I1
sV\u65e5\u76ca\u589e\u957f
p3734
I1
sV\u5929\u6c14
p3735
I4
sV\u603b\u88c1
p3736
I9
sV\u503e\u9500
p3737
I2
sV\u5168\u7403
p3738
I59
sV\u4e0d\u53d8
p3739
I1
sV\u5165\u51ac
p3740
I1
sV\u9655\u897f\u7701
p3741
I2
sV\u4eba\u4e8b\u90e8
p3742
I1
sV\u5148\u626c
p3743
I1
sV\u7535\u8111
p3744
I1
sV\u6cd5\u5236\u5316
p3745
I1
sV\u76f8\u90bb
p3746
I2
sV\u7ebd\u7ea6
p3747
I9
sV\u6b20\u7f34
p3748
I1
sV\u5546\u4eba
p3749
I1
sV\u8001\u5e08
p3750
I1
sV\u7f8e\u5973
p3751
I1
sV\u6392\u6324
p3752
I1
sV\u51c0\u6c34\u673a
p3753
I1
sV\u9884\u62e8
p3754
I1
sV\u7269\u4ef7\u5c40
p3755
I30
sV\u653b\u5173
p3756
I2
sV\u9650\u989d
p3757
I1
sV\u5d29\u584c
p3758
I1
sV\u6295\u8d44\u8005
p3759
I17
sV\u516c\u6b3e
p3760
I1
sVH\u80a1
p3761
I2
sV\u8d70\u5411\u5e02\u573a
p3762
I1
sV\u96ea\u5d29
p3763
I1
sV\u59ff\u52bf
p3764
I1
sV\u8bae\u6848
p3765
I1
sV\u65f6\u4ee3
p3766
I16
sV\u767b\u673a
p3767
I2
sV\u8f66\u4e3b
p3768
I14
sV\u6807\u51c6
p3769
I74
sV\u4e3e\u63aa
p3770
I1
sV\u9a6c\u6876\u76d6
p3771
I1
sV\u4f1a\u5458
p3772
I10
sV\u65f6\u4efb
p3773
I2
sV\u70ed\u8840\u4f20\u5947
p3774
I1
sV\u5165\u5173
p3775
I1
sV\u7f51\u6c11
p3776
I6
sV\u7b49\u4e3a
p3777
I1
sV\u87ba\u7eb9\u94a2
p3778
I1
sV\u57fa\u7840\u8bbe\u65bd
p3779
I18
sV\u6fb3\u5927\u5229\u4e9a
p3780
I4
sV\u4e0a\u7f34
p3781
I1
sV\u5496\u54e9
p3782
I1
sV\u91cd\u707e\u533a
p3783
I1
sV\u53d1\u5c55\u671f
p3784
I1
sV\u611f\u5230
p3785
I3
sV\u7cfb\u7edf\u96c6\u6210
p3786
I1
sV\u8bd5\u9a8c
p3787
I7
sV\u5e7f\u544a\u6cd5
p3788
I1
sV\u8d38\u6613\u5546
p3789
I2
sV\u56fe\u4e66
p3790
I2
sV\u5546\u4e1a\u8d37\u6b3e
p3791
I1
sV\u4e0a\u6d77\u5730\u533a
p3792
I2
sV\u56ed\u533a
p3793
I3
sV\u76f8\u9022
p3794
I1
sV\u7ecf\u9500\u5546
p3795
I8
sV\u65b0\u673a\u5236
p3796
I8
sV\u94f6\u884c\u8d37\u6b3e
p3797
I2
sV\u56fd\u9645\u54c1\u724c
p3798
I1
sV\u8d39\u6cb9
p3799
I1
sV\u521d\u88c1
p3800
I1
sV\u79d1\u5b66\u6280\u672f
p3801
I1
sV\u5929\u6d25\u5e02
p3802
I2
sV\u9e21\u7fc5
p3803
I1
sV\u671d\u9633
p3804
I1
sV\u62a5\u544a
p3805
I39
sV\u4f1a\u5426
p3806
I1
sV\u5f97\u514b\u8428\u65af
p3807
I1
sV\u5fa1\u9053
p3808
I1
sV\u8d5e\u6210
p3809
I1
sV\u878d\u5f97
p3810
I1
sV\u7ed3\u6784\u6027
p3811
I3
sV\u6d88\u706d
p3812
I1
sV\u624b\u673a\u82af\u7247
p3813
I1
sV\u50a8\u5907
p3814
I1
sV\u4eba\u6c11\u5e01
p3815
I9
sV\u5a31\u4e50
p3816
I4
sV\u5ddd\u5357
p3817
I1
sV\u53d1\u73b0
p3818
I31
sV\u68c0\u6d4b
p3819
I13
sV\u7ecf\u5178
p3820
I1
sV\u5bb6\u5ead
p3821
I8
sV\u5316\u5986\u54c1
p3822
I2
sV\u4eac\u4e1c
p3823
I5
sV\u7403\u7f50
p3824
I2
sV\u5929\u6d25
p3825
I10
sV\u65e0\u7ebf
p3826
I2
sV\u63a8\u5e7f
p3827
I8
sV\u8fdb\u53e3
p3828
I24
sV\u8089\u7c7b
p3829
I1
sV\u4e0a\u7ebf
p3830
I7
sV\u503e\u5411
p3831
I1
sV\u8ba2\u5355\u6570
p3832
I1
sV\u7f57\u9a6c
p3833
I1
sV\u89c2\u5bdf\u62a5
p3834
I6
sV\u627f\u538b
p3835
I3
sV\u8f66\u8f86
p3836
I20
sV\u5bb6\u5e97
p3837
I1
sV\u9644\u4ef6
p3838
I3
sV\u8de8\u5883
p3839
I5
sV\u6539\u7528
p3840
I1
sV\u865a\u6807
p3841
I1
sV\u7f51\u8def
p3842
I1
sV\u611f\u53d7
p3843
I1
sV\u6027\u80fd
p3844
I6
sV\u77ed\u671f\u5185
p3845
I19
sV\u6c7d\u6cb9\u8f66
p3846
I1
sV\u589e\u52a0\u503c
p3847
I4
sV\u81ea\u8c6a
p3848
I1
sV\u5bfc\u7ba1
p3849
I1
sV\u8f6c\u57fa\u56e0
p3850
I2
sV\u73af\u4fdd\u90e8
p3851
I4
sV\u624b\u7eed\u8d39
p3852
I1
sV\u5927\u65d7
p3853
I1
sV\u9000\u5761
p3854
I1
sV\u6089\u5c3c
p3855
I1
sV\u611f\u53f9
p3856
I1
sV\u5efa\u56fd
p3857
I1
sV\u6cb3\u5317\u7701
p3858
I3
sV\u7701\u653f\u5e9c
p3859
I1
sV\u4e1a\u52a1
p3860
I49
sV\u5c9a\u5c71
p3861
I2
sV\u745e\u58eb
p3862
I3
sV\u5408\u80a5\u5e02
p3863
I1
sV\u5546\u7528
p3864
I3
sV\u5173\u952e\u95ee\u9898
p3865
I1
sV\u4e34\u5b89\u5e02
p3866
I1
sV\u7164\u70ad
p3867
I7
sV\u91ce\u9a6c
p3868
I1
sV\u5efa\u7b51
p3869
I1
sV\u53cd\u503e\u9500
p3870
I4
sV\u6218\u7ebf
p3871
I1
sV\u80ce\u9762
p3872
I1
sV\u65b9\u9762
p3873
I71
sV\u9762\u4e34
p3874
I28
sV\u6dfb\u52a0
p3875
I2
sV\u7ecf\u8d39
p3876
I1
sV\u7ecf\u8d38
p3877
I2
sV\u76f8\u5173
p3878
I62
sV\u6d89\u6848\u4eba\u5458
p3879
I1
sV\u4e3e\u62a5
p3880
I8
sV\u9a73\u56de
p3881
I1
sV\u53ec\u8f66
p3882
I1
sV\u91cd\u8fd4
p3883
I1
sV\u671f\u671b
p3884
I1
sV\u6bd2\u5bb3
p3885
I2
sV\u589e\u63f4
p3886
I2
sV\u62a5\u9500
p3887
I2
sV\u697c\u76d8
p3888
I9
sV\u513f\u5b50
p3889
I2
sV\u9776\u5b50
p3890
I1
sV\u52a8\u624b
p3891
I1
sV\u4e0b\u53d1
p3892
I2
sV\u4f1a\u957f
p3893
I1
sV\u4ee3\u66ff
p3894
I1
sV\u5b9e\u60e0
p3895
I1
sV\u53d7\u707e
p3896
I1
sV\u5171\u4eab
p3897
I4
sV\u5c5e\u6027
p3898
I4
sV\u7d20\u8d28
p3899
I1
sV\u89c2\u666f\u53f0
p3900
I1
sV\u9f13\u52b1
p3901
I14
sV\u8f66\u8f7d
p3902
I1
sV\u6765\u534e
p3903
I1
sV\u8ba4\u4e3a
p3904
I90
sV\u4e0d\u5230
p3905
I7
sV\u6388\u6743
p3906
I4
sV\u8c6a\u8f66
p3907
I3
sV\u8d34\u8fd1
p3908
I1
sV\u89e6\u5e95
p3909
I3
sV\u91ca\u653e
p3910
I3
sV\u5145\u586b
p3911
I1
sV\u4e3b\u6f14
p3912
I1
sV\u8d70\u8bbf
p3913
I4
sV\u8c03\u51cf
p3914
I1
sV\u79e9\u5e8f
p3915
I9
sV\u7f8e\u98df
p3916
I1
sV\u70ae\u8f70
p3917
I1
sV\u8ba1\u7f5a
p3918
I1
sV\u8f66\u4f4d
p3919
I1
sV\u63a5\u73ed\u4eba
p3920
I1
sV\u91d1\u5c71\u516c\u53f8
p3921
I1
sV\u6574\u4f53
p3922
I33
sV\u7eff\u5730
p3923
I2
sV\u5e72\u88c2
p3924
I1
sV\u6709\u8fdd
p3925
I1
sV\u8d76\u96c6
p3926
I1
sV\u73b0\u573a
p3927
I12
sV\u901a\u77e5
p3928
I59
sV\u8d2d\u7968
p3929
I1
sV\u6d3b\u8dc3
p3930
I2
sV\u540c\u8d28\u5316
p3931
I4
sV\u8d62\u5f97
p3932
I3
sV\u57fa\u672c\u4fdd\u969c
p3933
I1
sV\u6574\u8f66
p3934
I3
sV\u4fae\u8fb1
p3935
I1
sV\u9610\u660e
p3936
I1
sV\u4e0b\u5c5e
p3937
I3
sV\u627e\u51c6
p3938
I1
sV\u7ea2\u9178\u679d
p3939
I1
sV\u884c\u653f\u5904\u7f5a
p3940
I1
sV\u538b\u69a8
p3941
I1
sV\u7535\u5b50
p3942
I7
sV\u540d\u5bb6
p3943
I1
sV\u9ad8\u54c1\u4f4d
p3944
I1
sV\u77ff\u7269
p3945
I1
sV\u5b9c\u5bb6
p3946
I1
sV\u98a0\u8986
p3947
I1
sV\u4ea4\u66ff
p3948
I1
sV\u4e8c\u624b\u8f66
p3949
I2
sV\u8109\u51b2
p3950
I1
sV\u8d2d\u623f\u8005
p3951
I6
sV\u6392\u884c\u699c
p3952
I1
sV\u8089\u732a
p3953
I1
sV\u7f8e\u975e
p3954
I1
sV\u6280\u672f\u4eba\u5458
p3955
I1
sV\u8fd0\u8425\u5546
p3956
I12
sV\u5f15\u9886
p3957
I2
sV\u8ba1\u7b97\u65b9\u6cd5
p3958
I5
sV\u5904\u4e8e
p3959
I26
sV\u534f\u8bae
p3960
I11
sV\u9178\u96e8
p3961
I1
sV\u8868\u8fbe
p3962
I1
sV\u5956\u52b1
p3963
I4
sV\u6536\u7ea6
p3964
I1
sV\u4fc3\u9000
p3965
I1
sV\u5954\u9a70
p3966
I6
sV\u6237\u6570
p3967
I1
sV\u6d41\u901a
p3968
I5
sV\u8f6c\u53d8
p3969
I5
sV\u7528\u5de5
p3970
I1
sV\u52a0\u6743
p3971
I1
sV\u81ea\u4f4f\u578b
p3972
I1
sV\u63a2\u6d4b\u5668
p3973
I1
sV\u53ef\u52a0
p3974
I1
sV\u5fb7\u65af
p3975
I1
sV\u540d\u5b57
p3976
I3
sV\u7269\u6d41\u4e1a
p3977
I4
sV\u95e8\u6237
p3978
I1
sV\u7535\u4fe1
p3979
I11
sV\u884c\u4e1a\u534f\u4f1a
p3980
I3
sV\u5236\u9020\u5546
p3981
I4
sV\u51c6\u5907\u5c31\u7eea
p3982
I1
sV\u6295\u8d44\u4eba
p3983
I2
sV\u4fdd\u969c
p3984
I17
sV\u8868\u8ff0
p3985
I1
sV\u4e0a\u7f51
p3986
I5
sV\u589e\u52a0
p3987
I45
sV\u652f\u516c\u53f8
p3988
I1
sV\u6709\u5229\u4e8e
p3989
I10
sV\u5b89\u5e86
p3990
I1
sV\u53cc\u5411
p3991
I1
sV\u5168\u7ad9
p3992
I1
sV\u6cd5\u4eba\u4ee3\u8868
p3993
I1
sV\u63d0\u4f9b
p3994
I36
sV\u5904\u4ee5
p3995
I1
sV\u6267\u6cd5\u4eba\u5458
p3996
I2
sV\u7eff\u57ce
p3997
I1
sV\u9500\u552e\u91cf
p3998
I2
sV\u6ee8\u6d77\u65b0\u533a
p3999
I1
sV\u5ba2\u6d41\u91cf
p4000
I1
sV\u5ba2\u8f66
p4001
I3
sV\u5168\u7a0b
p4002
I1
sV\u591a\u7528\u6237
p4003
I1
sV\u865a\u6784
p4004
I1
sV\u6536\u7f29
p4005
I1
sV\u9886\u519b\u4eba\u7269
p4006
I1
sV\u8fde\u9501
p4007
I6
sV\u5f8b\u5e08\u56e2
p4008
I1
sV\u6cf0\u56fd
p4009
I5
sV\u5e9f\u5f03
p4010
I2
sV\u897f\u57ce\u533a
p4011
I1
sV\u9635\u75db
p4012
I1
sV\u6307\u6570
p4013
I24
sV\u5b58\u8d27
p4014
I1
sV\u4fe1\u606f\u5316
p4015
I12
sV\u79fb\u9001
p4016
I2
sV\u6536\u7f16
p4017
I1
sV\u820c\u6218
p4018
I1
sV\u62bd\u68c0
p4019
I1
sV\u9700\u6c42
p4020
I74
sV\u7248\u6743\u4fdd\u62a4
p4021
I1
sV\u4fe1\u606f\u7f51\u7edc
p4022
I2
sV\u9769\u65b0
p4023
I3
sV\u6d41\u91cf
p4024
I8
sV\u76f4\u9500\u4e1a
p4025
I1
sV\u610f\u613f
p4026
I7
sV\u4e0b\u529f\u592b
p4027
I1
sV\u88c5\u4fee
p4028
I2
sV\u8dd1\u9a6c
p4029
I3
sV\u6301\u80a1
p4030
I5
sV\u504f\u4f4e
p4031
I3
sV\u6846\u67b6
p4032
I6
sV\u533b\u9662
p4033
I7
sV\u519c\u6c11\u5de5
p4034
I1
sV\u4e00\u836f
p4035
I1
sV\u90e8\u59d4
p4036
I2
sV\u51c0\u6c34
p4037
I1
sV\u70eb\u6b7b
p4038
I1
sV\u5356\u51fa
p4039
I1
sV\u5e73\u5747\u4ef7\u683c
p4040
I30
sV\u975e\u6cd5\u624b\u6bb5
p4041
I1
sV\u63d0\u4ef7
p4042
I1
sV\u7a0b\u5e8f
p4043
I6
sV\u9002\u5408
p4044
I5
sV\u8513\u5ef6
p4045
I1
sV\u5408\u4f5c\u4f19\u4f34
p4046
I4
sV\u5e02\u6c11\u5316
p4047
I1
sV\u9a8c\u653e
p4048
I1
sV\u6676\u6676
p4049
I1
sV\u51fa\u4efb
p4050
I4
sV\u626c\u5dde
p4051
I1
sV\u4fe1\u6258\u516c\u53f8
p4052
I1
sV\u6500\u5347
p4053
I3
sV\u7535\u4ef7
p4054
I1
sV\u5168\u56fd\u6027
p4055
I2
sV\u56fd\u6807
p4056
I3
sV\u6fb3\u95e8
p4057
I4
sV\u5ba2\u8fd0
p4058
I5
sV\u5173\u952e
p4059
I10
sV\u7537\u5b50
p4060
I1
sV\u5357\u90fd
p4061
I2
sV\u6dee\u5b89
p4062
I2
sV\u4e13\u8bbf
p4063
I2
sV\u9884\u6d4b
p4064
I13
sV\u51fa\u8eab
p4065
I1
sV\u7ed3\u679c\u663e\u793a
p4066
I2
sV\u4ef7\u683c\u6307\u6570
p4067
I8
sV\u7f8e\u56fd
p4068
I50
sV\u63d0\u4ea4
p4069
I3
sV\u7f72\u540d
p4070
I1
sV\u8fd0\u52a8
p4071
I2
sV\u4eba\u53e3
p4072
I3
sV\u6c2e\u6c27\u5316\u7269
p4073
I1
sV\u50e7\u4f17
p4074
I1
sV\u5178\u578b
p4075
I3
sV\u51fa\u4e8e
p4076
I1
sV\u8ba1\u751f\u59d4
p4077
I1
sV\u5b89\u5fbd
p4078
I1
sV\u68c0\u63a7
p4079
I1
sV\u7cbe\u795e
p4080
I5
sV\u5151\u5956
p4081
I1
sV\u8fd0\u529b
p4082
I1
sV\u57ce\u5e02
p4083
I46
sV\u62d3\u5c55
p4084
I5
sV\u5165\u5e02
p4085
I4
sV\u5750\u6807
p4086
I1
sV\u8282\u80fd
p4087
I5
sV\u601d\u8def
p4088
I3
sV\u8bc1\u5b9e
p4089
I3
sV\u7ed3\u8bba
p4090
I1
sV\u8d1f\u8d23\u4eba
p4091
I29
sV\u6e14\u573a
p4092
I1
sV\u63d0\u8d77
p4093
I1
sV\u534e\u4fa8\u57ce
p4094
I1
sV\u582a\u79f0
p4095
I1
sV\u4f4e\u4ef7\u4f4d
p4096
I1
sV\u77f3\u6cb9\u5e02\u573a
p4097
I1
sV\u51fa\u8d70
p4098
I1
sV\u6e05\u7b97
p4099
I3
sV\u5305\u62ec
p4100
I39
sV\u4fc3\u52a8
p4101
I1
sV\u9000\u51fa
p4102
I3
sV\u4fdd\u547d
p4103
I1
sV\u6d41\u52a8
p4104
I2
sV\u9500\u552e
p4105
I86
sV\u8d34\u94b1
p4106
I1
sV\u9ad8\u54c1\u8d28
p4107
I2
sV\u8d1f\u503a\u7387
p4108
I1
sV\u96c6\u56e2
p4109
I54
sV\u5c71\u897f
p4110
I4
sV\u767e\u57ce
p4111
I2
sV\u963f\u80f6
p4112
I1
sV\u6784\u67b6
p4113
I1
sV\u8463\u7b56
p4114
I1
sV\u4f5c\u7528
p4115
I15
sV\u673a\u7968
p4116
I2
sV\u627f\u5efa
p4117
I1
sV\u505c\u8f66\u5e93
p4118
I1
sV\u5609\u5584\u53bf
p4119
I1
sV\u51fa\u8d27
p4120
I7
sV\u94a2\u4ea7\u91cf
p4121
I3
sV\u5357\u5317
p4122
I1
sV\u91cd\u5361
p4123
I1
sV\u9ad8\u65b0\u6280\u672f
p4124
I3
sV\u8fde\u964d
p4125
I8
sV\u63d0\u8d28
p4126
I2
sV\u7279\u8272
p4127
I3
sV\u767e\u5b89\u5c45
p4128
I1
sV\u8def\u900f\u793e
p4129
I1
sV\u517d\u533b\u5c40
p4130
I1
sV\u8de8\u533a
p4131
I1
sV\u4e58\u8f66
p4132
I1
sV\u5c40\u957f
p4133
I4
sV\u652f\u7ebf
p4134
I3
sV\u5df7\u9053
p4135
I1
sV\u6c7d\u8f66\u4ea7\u91cf
p4136
I2
sV\u624e\u5806\u513f
p4137
I1
sV\u571f\u58e4
p4138
I1
sV\u9690\u85cf
p4139
I1
sV\u5b88\u5219
p4140
I1
sV\u4ea4\u706b
p4141
I1
sV\u9886\u8896
p4142
I2
sV\u51b3\u5b9a
p4143
I44
sV\u9a7b\u573a
p4144
I1
sV\u8f6c\u51c9
p4145
I1
sV\u8854\u63a5
p4146
I1
sV\u98de\u5f80
p4147
I1
sV\u5de5\u4e1a\u4f53\u7cfb
p4148
I1
sV\u96c6\u5408
p4149
I1
sV\u6027\u8d28
p4150
I3
sV\u4e3b\u6253
p4151
I1
sV\u501f\u6b3e
p4152
I2
sV\u6253\u9020
p4153
I14
sV\u5546\u754c
p4154
I1
sV\u6d88\u8d39\u578b
p4155
I1
sV\u731c\u6d4b
p4156
I2
sV\u4e8f\u635f
p4157
I11
sV\u578b\u6750
p4158
I1
sV\u76f4\u8425\u5e97
p4159
I1
sV\u4f53\u7cfb
p4160
I17
sV\u98ce\u53e3\u6d6a\u5c16
p4161
I1
sV\u8bd5\u56fe
p4162
I3
sV\u53a8\u623f
p4163
I1
sV\u6253\u901a
p4164
I3
sV\u5927\u5ba2\u8f66
p4165
I2
sV\u914d\u7f6e
p4166
I4
sV\u8bdd\u9898
p4167
I2
sV\u7ec4\u59d4\u4f1a
p4168
I1
sV\u5927\u6865
p4169
I1
sV\u52a0\u6536
p4170
I1
sV\u7f04\u9ed8
p4171
I1
sV\u5f71\u89c6
p4172
I3
sV\u7701\u4f1a
p4173
I1
sV\u5386\u57ce
p4174
I1
sV\u519c\u7267\u573a
p4175
I1
sV\u63d0\u540d\u5956
p4176
I1
sV\u6d17\u8863
p4177
I1
sV\u8d27\u8f66
p4178
I6
sV\u53d7\u7d2f
p4179
I1
sV\u7164\u70ad\u5de5\u4e1a
p4180
I1
sV\u6276\u690d
p4181
I1
sV\u5cf0\u503c
p4182
I1
sV\u5458\u5de5
p4183
I14
sV\u8d2d\u7269\u4e2d\u5fc3
p4184
I2
sV\u8282\u594f\u5feb
p4185
I1
sV\u751f\u7269
p4186
I3
sV\u4ea7\u7ecf
p4187
I1
sV\u90fd\u5e02\u62a5
p4188
I3
sV\u7ecf\u8425\u4e0d\u5584
p4189
I1
sV\u9102\u5c14\u591a\u65af\u5e02
p4190
I1
sV\u672a\u8c03
p4191
I2
sV\u8bc9\u8bbc\u8bf7\u6c42
p4192
I1
sV\u5f15\u5bfc
p4193
I5
sV\u793e\u533a
p4194
I6
sV\u53cc\u8fb9\u5408\u4f5c
p4195
I1
sV\u7ba1\u63a7
p4196
I1
sV\u6536\u7d27
p4197
I2
sV\u65e5\u7167
p4198
I2
sV\u76f8\u5de6
p4199
I1
sV\u6295\u878d\u8d44
p4200
I3
sV\u4ea7\u9500\u91cf
p4201
I1
sV\u4e34\u5e8a
p4202
I2
sV\u80b2\u624d
p4203
I1
sV\u8ba2\u8d27\u4f1a
p4204
I1
sV\u51b6\u70bc
p4205
I1
sV\u8d28\u91cf
p4206
I28
sV\u505c\u7535
p4207
I1
sV\u62df\u51fa
p4208
I1
sV\u70ed\u64ad
p4209
I1
sV\u8fc7\u654f\u6027
p4210
I1
sV\u4e00\u8fde\u4e32
p4211
I1
sV\u60a3\u8005
p4212
I4
sV\u7ea6\u675f
p4213
I4
sV\u5143\u533a
p4214
I1
sV\u5b9e\u4e60\u751f
p4215
I3
sV\u9707\u8361
p4216
I26
sV\u653e\u5f00
p4217
I5
sV\u653e\u5f03
p4218
I4
sV\u7701\u4efd
p4219
I2
sV\u64ad\u51fa
p4220
I1
sV\u8ba8\u8bba
p4221
I2
sV\u822a\u7ebf
p4222
I3
sV\u4e0b\u5355
p4223
I3
sV\u5ea7\u8f66
p4224
I1
sV\u884c\u8d3f\u8005
p4225
I1
sV\u4ea7\u4e1a\u5316
p4226
I2
sV\u77ed\u79df
p4227
I1
sV\u4e00\u81f4\u6027
p4228
I1
sV\u4e2d\u95f4\u4eba
p4229
I1
sV\u5404\u7701\u5e02
p4230
I1
sV\u6570\u636e
p4231
I37
sV\u519c\u4e1a\u90e8\u95e8
p4232
I1
sV\u98ce\u7387
p4233
I1
sV\u62db\u80a1
p4234
I2
sV\u8fdb\u53e3\u8f66
p4235
I1
sV\u7a81\u7834
p4236
I11
sV\u9634\u96e8
p4237
I1
sV\u5ea7\u4f4d
p4238
I2
sV\u6e05\u6cb3
p4239
I1
sV\u680f\u76ee
p4240
I1
sV\u63a8\u529b\u5668
p4241
I1
sV\u79ef\u538b
p4242
I1
sV\u798f\u7279
p4243
I3
sV\u7ba1\u7406\u5de5\u4f5c
p4244
I1
sV\u76c8\u79d1
p4245
I1
sV\u9886\u5bfc\u4eba\u5458
p4246
I1
sV\u4e94\u82b1\u8089
p4247
I2
sV\u76ae\u5e26\u4f20\u52a8
p4248
I1
sV\u5de5\u4f5c\u91cf
p4249
I1
sV\u5df2\u6210
p4250
I1
sV\u5b98\u7f51
p4251
I4
sV\u661f\u7403
p4252
I1
sV\u548c\u89e3
p4253
I1
sV\u5e2e\u52a9
p4254
I4
sV\u7535\u4fe1\u4e1a
p4255
I2
sV\u4e58\u4eba
p4256
I1
sV\u751f\u732a
p4257
I3
sV\u6c5f\u95e8
p4258
I1
sV\u6697\u8bbf
p4259
I1
sV\u65f6\u62a5\u8baf
p4260
I2
sV\u629b\u50a8
p4261
I1
sV\u9500\u4ef7
p4262
I1
sV\u4f53\u64cd\u961f
p4263
I1
sV\u653b\u9632
p4264
I1
sV\u9677\u5165
p4265
I4
sV\u8f68\u8ff9
p4266
I1
sV\u6210\u5458\u56fd
p4267
I1
sV\u627e\u5230
p4268
I3
sV\u54c1\u79cd
p4269
I12
sV\u73af\u8282
p4270
I13
sV\u4e0a\u724c
p4271
I1
sV\u66f4\u540d
p4272
I1
sV\u6d3b\u5f97
p4273
I1
sV\u6ce2\u97f3
p4274
I3
sV\u8131\u6389
p4275
I1
sV\u5f00\u76d8
p4276
I2
sV\u7ea2\u7ebf
p4277
I6
sV\u91c7\u96c6
p4278
I2
sV\u53d1\u7ed9
p4279
I1
sV\u7834\u4ea7\u6cd5
p4280
I1
sV\u9887\u4e3a
p4281
I1
sV\u4e3b\u6301
p4282
I2
sV\u6d77\u8054
p4283
I1
sV\u5a18\u5bb6
p4284
I1
sV\u6b65\u884c\u8857
p4285
I1
sV\u7c7b\u4ea7\u54c1
p4286
I2
sV\u52a3\u8d28
p4287
I3
sV\u5192\u843d
p4288
I1
sV\u94a2\u8f68
p4289
I1
sV\u9152\u7c7b
p4290
I5
sV\u8f85\u6599
p4291
I1
sV\u589e\u6301
p4292
I2
sV\u98df\u54c1
p4293
I23
sV\u5ef6\u957f
p4294
I1
sV\u4ea4\u6613\u989d
p4295
I2
sV\u56de\u6b3e
p4296
I2
sV\u4e2d\u5c42
p4297
I1
sV\u51b3\u5b9a\u6027
p4298
I1
sV\u5904\u7406
p4299
I10
sV\u90ae\u8f6e
p4300
I2
sV\u65c5\u6e38
p4301
I12
sV\u653f\u6cc9
p4302
I2
sV\u65f6\u70b9
p4303
I1
sV\u65e0\u8517
p4304
I1
sV\u5185\u810f
p4305
I1
sV\u653f\u6cbb
p4306
I14
sV\u534e\u4e2d
p4307
I2
sV\u638c\u63e1
p4308
I4
sV\u9152\u9b3c
p4309
I1
sV\u62a2\u8d2d
p4310
I1
sV\u75c5\u4eba
p4311
I2
sV\u6807\u51c6\u5236
p4312
I1
sV\u4fee\u7406
p4313
I1
sV\u865a\u62df
p4314
I4
sV\u7cae\u98df
p4315
I5
sV\u53d1\u7968
p4316
I1
sV\u969c\u788d
p4317
I2
sV\u5272\u8089
p4318
I1
sV\u62bd\u6837\u68c0\u67e5
p4319
I1
sV\u73b0\u5370
p4320
I1
sV\u6742\u8d27
p4321
I1
sV\u96a7\u9053
p4322
I1
sV\u7eb8\u724c
p4323
I1
sV\u671f\u4ef7
p4324
I1
sV\u7528\u9910
p4325
I1
sV\u732a\u6e90
p4326
I1
sV\u7267\u4e1a
p4327
I1
sV\u7535\u52a8\u6c7d\u8f66
p4328
I7
sV\u5976\u6e90
p4329
I2
sV\u627f\u53d7
p4330
I2
sV\u534f\u4f5c
p4331
I1
sV\u534e\u4e1c
p4332
I1
sV\u5de5\u4e1a
p4333
I28
sV\u52a0\u91cd
p4334
I4
sV\u5c4f\u5e55
p4335
I2
sV\u4fdd\u5229
p4336
I1
sV\u7535\u8bdd
p4337
I4
sV\u8d2b\u56f0\u6751
p4338
I1
sV\u6d3b\u4f53
p4339
I1
sV\u5168\u7ebf
p4340
I3
sV\u4e27\u5931
p4341
I1
sV\u7efd\u653e
p4342
I1
sV\u5916\u754c
p4343
I4
sV\u7c7b\u4f3c
p4344
I3
sV\u6d41\u5411
p4345
I2
sV\u53d8\u5f62\u91d1\u521a
p4346
I1
sV\u75b2\u6001
p4347
I1
sV\u5927\u6e2f
p4348
I1
sV\u5fae\u7b11
p4349
I2
sV\u8b66\u5bdf
p4350
I1
sV\u5de5\u5546\u884c\u653f
p4351
I1
sV\u67f4\u6e7e
p4352
I1
sV\u7f51\u6613
p4353
I2
sV\u9ad8\u6e29
p4354
I1
sV\u798f\u5229
p4355
I4
sV\u4e61\u9547
p4356
I1
sV\u670b\u53cb
p4357
I5
sV\u6253\u7b97
p4358
I4
sV\u6cb9\u516c\u53f8
p4359
I1
sV\u4ef7\u533a
p4360
I4
sV\u4ea7\u4e1a\u94fe
p4361
I11
sV\u81ea\u878d
p4362
I1
sV\u5fae\u6ce2\u7089
p4363
I1
sV\u4e3b\u529e\u65b9
p4364
I1
sV\u5e95\u7ebf
p4365
I1
sV\u8ffd\u7a76
p4366
I3
sV\u9650\u5236
p4367
I9
sV\u51fa\u8ba9
p4368
I1
sV\u9884\u6848
p4369
I1
sV\u9879\u76ee
p4370
I59
sV\u4f9b\u7ed9
p4371
I3
sV\u5bf9\u9762
p4372
I1
sV\u5c45\u6240
p4373
I1
sV\u5b63\u62a5
p4374
I1
sV\u673a\u7ffc
p4375
I1
sV\u534e\u4eba
p4376
I1
sV\u901a\u8def
p4377
I1
sV\u5de5\u4eba
p4378
I1
sV\u6570\u989d
p4379
I2
sV\u63d0\u8bae
p4380
I1
sV\u6267\u7eaa
p4381
I1
sV\u53d8\u5316\u7387
p4382
I16
sV\u6251\u6551
p4383
I2
sV\u7565\u6709
p4384
I3
sV\u5168\u7edf
p4385
I3
sV\u4e91\u6797
p4386
I1
sV\u4f18\u5ba2
p4387
I2
sV\u7eaf\u5ea6
p4388
I1
sV\u6b3e\u9879
p4389
I1
sV\u53d1\u724c
p4390
I1
sV\u7535\u8baf
p4391
I2
sV\u53ef\u80fd\u6027
p4392
I1
sV\u4e0d\u591f
p4393
I1
sV\u670d\u88c5\u4e1a
p4394
I1
sV\u6545\u4e8b
p4395
I2
sV\u4e5d\u8fde
p4396
I1
sV\u6cbb\u6c61
p4397
I1
sV\u5934\u578b
p4398
I1
sV\u6c34\u6e90\u5730
p4399
I1
sV\u62c9\u5f00
p4400
I2
sV\u5de5\u4f4d
p4401
I1
sV\u5f81\u6c42\u610f\u89c1
p4402
I3
sV\u5371\u53ca
p4403
I1
sV\u7f51\u8d37
p4404
I1
sV\u9500\u552e\u5e02\u573a
p4405
I1
sV\u51bb\u571f\u5e26
p4406
I1
sV\u4f4d\u4e8e
p4407
I14
sV\u57fa\u7840
p4408
I23
sV\u76d1\u7763\u7ba1\u7406
p4409
I3
sV\u9876\u68da
p4410
I1
sV\u7206\u53d1
p4411
I3
sV\u5e73\u76d8
p4412
I1
sV\u4e0b\u5927
p4413
I1
sV\u6676\u62a5
p4414
I1
sV\u795e\u5dde
p4415
I1
sV\u5c0f\u5ba2\u8f66
p4416
I1
sV\u6ce2\u516d
p4417
I2
sV\u8d8a\u5357
p4418
I1
sV\u5ef6\u7eed
p4419
I6
sV\u526f\u53f8\u957f
p4420
I3
sV\u7ea0\u7eb7
p4421
I1
sV\u5c3d\u8d23
p4422
I1
sV\u5e73\u677f
p4423
I1
sV\u6bcd\u516c\u53f8
p4424
I3
sV\u7f3a\u9677
p4425
I1
sV\u5a74\u5e7c\u513f
p4426
I7
sV\u6d77\u86c7
p4427
I1
sV\u540d\u5e84
p4428
I1
sV\u6709\u8272\u91d1\u5c5e
p4429
I4
sV\u6838\u5fc3
p4430
I15
sV\u6807\u51c6\u5316
p4431
I2
sV\u878d\u5408
p4432
I5
sV\u624e\u5806
p4433
I1
sV\u53ef\u9760
p4434
I1
sV\u96c5\u52a0\u8fbe
p4435
I1
sV\u914d\u5236
p4436
I1
sV\u56de\u62a5\u7387
p4437
I1
sV\u5c71\u7cfb
p4438
I1
sV\u840e\u7f29
p4439
I2
sV\u76d1\u63a7
p4440
I2
sV\u5361\u8f66
p4441
I2
sV\u4fc3\u9500
p4442
I15
sV\u5de5\u4fe1
p4443
I14
sV\u6f5c\u529b
p4444
I1
sV\u7763\u67e5
p4445
I3
sV\u94a2\u4ef7
p4446
I2
sV\u5e26\u6765
p4447
I20
sV\u5165\u9a7b
p4448
I2
sV\u8fdd\u53cd
p4449
I8
sV\u811a\u8155
p4450
I1
sV\u5c71\u4e1c\u7701
p4451
I2
sV\u65b9\u4fbf\u9762
p4452
I1
sV\u89c4\u7a0b
p4453
I1
sV\u65e0\u7406
p4454
I1
sV\u6708\u7ebf
p4455
I1
sV\u5feb\u62a5
p4456
I3
sV\u68c0\u67e5
p4457
I15
sV\u5e38\u52a1\u4f1a\u8bae
p4458
I2
sV\u519b\u65b9
p4459
I1
sV\u4e2d\u539a\u677f
p4460
I1
sV\u5361\u4f4d
p4461
I1
sV\u4ed8\u6b3e
p4462
I1
sV\u5168\u8fc7\u7a0b
p4463
I2
sV\u90ae\u653f
p4464
I3
sV\u6b3a\u9a97
p4465
I1
sV\u8ba1\u751f
p4466
I1
sV\u96f6\u552e\u4ef7\u683c
p4467
I66
sV\u70ef\u70c3
p4468
I1
sV\u957f\u4e09\u89d2
p4469
I1
sV\u51fa\u7248\u793e
p4470
I1
sV\u7565\u663e
p4471
I1
sV\u8d44\u91d1\u5468\u8f6c
p4472
I1
sV\u4e39\u9ea6\u514b\u6717
p4473
I1
sV\u98de\u884c\u5458
p4474
I1
sV\u98ce\u7535
p4475
I1
sV\u4fdd\u538b
p4476
I1
sV\u4ea7\u7ecf\u65b0\u95fb
p4477
I1
sV\u673a\u7ec4
p4478
I2
sV\u6545\u4e61
p4479
I1
sV\u5e97\u94fa
p4480
I3
sV\u613f\u610f
p4481
I5
sV\u4f24\u519c
p4482
I1
sV\u6bd4\u7387
p4483
I3
sV\u8bd5\u91c7
p4484
I1
sV\u53d7\u8ba9\u65b9
p4485
I2
sV\u4e0a\u8bc9
p4486
I1
sV\u9000\u5e02
p4487
I3
sV\u5927\u6cb3
p4488
I1
sV\u8054\u59fb
p4489
I1
sV\u7688\u4f9d
p4490
I1
sV\u5c71\u4e1c
p4491
I10
sV\u5e76\u79f0
p4492
I1
sV\u4f34\u968f
p4493
I5
sV\u6293\u6355
p4494
I3
sV\u6dee\u9633\u53bf
p4495
I1
sV\u5357\u975e
p4496
I1
sV\u4f18\u79c0\u4eba\u624d
p4497
I1
sV\u5408\u7406
p4498
I3
sV\u5efa\u5e73
p4499
I1
sV\u63a8\u76d8
p4500
I1
sV\u5976\u7c7b
p4501
I2
sV\u536b\u62a5
p4502
I1
sV\u8d2d\u7f6e
p4503
I4
sV\u76f4\u81f3
p4504
I1
sV\u505a\u7ebf
p4505
I1
sV\u50a8\u91cf
p4506
I3
sV\u88c5\u673a
p4507
I1
sV\u629b\u552e
p4508
I2
sV\u732a\u6cb9
p4509
I3
sV\u65e0\u77e5
p4510
I1
sV\u9aa8\u5e72\u7f51
p4511
I1
sV\u89d2\u5ea6
p4512
I6
sV\u6c7d\u8f66
p4513
I42
sV\u5f00\u8f66
p4514
I2
sV\u501f\u8d37
p4515
I2
sV\u4e24\u5730
p4516
I2
sV\u67f4\u6cb9
p4517
I119
sV\u8f6c\u552e
p4518
I1
sV\u4ef7\u4f4d
p4519
I5
sV\u4e91\u5357\u7701
p4520
I1
sV\u6cb9\u6599
p4521
I1
sV\u9a8c\u6536
p4522
I1
sV\u54c1\u7c7b
p4523
I9
sV\u5e74\u4ea7\u91cf
p4524
I2
sV\u5927\u6c34
p4525
I1
sV\u7cae\u6cb9
p4526
I2
sV\u5237\u5361
p4527
I1
sV\u884c\u653f\u90e8\u95e8
p4528
I1
sV\u7ecf\u8425
p4529
I39
sV\u8d27\u503c
p4530
I1
sV\u6ce2\u52a8
p4531
I7
sV\u8e2a\u5f71
p4532
I1
sV\u89c9\u5f97
p4533
I9
sV\u4e89\u53d6
p4534
I2
sV\u6d59\u6c5f
p4535
I10
sV\u4e0a\u770b
p4536
I1
sV\u53f7\u7ebf
p4537
I1
sV\u5e94\u6025
p4538
I7
sV\u5173\u5207
p4539
I1
sV\u5730\u670d
p4540
I1
sV\u8840\u5236\u54c1
p4541
I1
sV\u4ea7\u4e1a\u56ed
p4542
I3
sV\u66f4\u5177
p4543
I1
sV\u6c34\u7535
p4544
I1
sV\u62cd\u5356
p4545
I2
sV\u8c03\u4ef7
p4546
I89
sV\u9910\u996e
p4547
I5
sV\u73b0\u91d1
p4548
I2
sV\u6d1e\u6d1e
p4549
I1
sV\u8fdb\u6c14
p4550
I1
sV\u4ef7\u683c\u4e0b\u964d
p4551
I5
sV\u6587\u521b
p4552
I1
sV\u9500\u91cf
p4553
I18
sV\u4f9d\u6cd5\u6cbb\u56fd
p4554
I1
sV\u6e38\u827a
p4555
I1
sV\u590d\u5236
p4556
I1
sV\u82b1\u56ed
p4557
I1
sV\u9ad8\u7ba1
p4558
I11
sV\u5931\u4e8b
p4559
I1
sV\u514d\u7b7e
p4560
I1
sV\u6d88\u8d39\u8005
p4561
I60
sV\u745e\u5178
p4562
I1
sV\u59a5\u534f
p4563
I1
sV\u53d7\u5bb3\u8005
p4564
I2
sV\u9020\u8c23\u8bfd\u8c24
p4565
I1
sV\u4ee3\u6301
p4566
I1
sV\u5730\u677f
p4567
I1
sV\u4e0e\u4f1a\u8005
p4568
I1
sV\u6076\u5316
p4569
I1
sV\u82cf\u8054
p4570
I1
sV\u8d22\u52a1\u62a5\u8868
p4571
I1
sV\u8c03\u4f4e
p4572
I3
sV\u6253\u7834
p4573
I4
sV\u80a1\u4e1c\u5927\u4f1a
p4574
I2
sV\u5e94\u5c3d
p4575
I1
sV\u7a7a\u95f4
p4576
I13
sV\u81ea\u8425
p4577
I1
sV\u89c2\u5bdf
p4578
I6
sV\u4ef7\u4e3a
p4579
I1
sV\u51fa\u884c
p4580
I12
sV\u53ef\u552e
p4581
I1
sV\u9ad8\u6da8
p4582
I1
sV\u79d1\u7814
p4583
I1
sV\u4ed3\u5e93
p4584
I1
sV\u5de5\u8d44
p4585
I2
sV\u534f\u8c03
p4586
I11
sV\u4fdd\u517b
p4587
I1
sV\u6742\u4e71
p4588
I1
sV\u5141\u8bb8
p4589
I5
sV\u5bb6\u56e0
p4590
I1
sV\u5c71\u4f53
p4591
I1
sV\u6551\u63f4
p4592
I3
sV\u653b\u52bf
p4593
I1
sV\u8fd4\u5c97
p4594
I1
sV\u8f6c\u5411
p4595
I3
sV\u7535\u5f71\u7f51
p4596
I1
sV\u76d7\u7248
p4597
I2
sV\u6d41\u57df
p4598
I1
sV\u6218\u672f
p4599
I1
sV\u89e3\u7981
p4600
I2
sV\u62c9\u4f24
p4601
I1
sV\u6307\u6325
p4602
I3
sV\u5ffd\u89c6
p4603
I1
sV\u53cd\u8150
p4604
I4
sV\u8d27\u91cf
p4605
I1
sV\u76f8\u5f53\u4e8e
p4606
I8
sV\u538c\u5026
p4607
I1
sV\u653e\u5bbd
p4608
I3
sV\u822a\u7a7a
p4609
I10
sV\u52a0\u606f
p4610
I1
sV\u9910\u996e\u4f01\u4e1a
p4611
I4
sV\u4e24\u56fd
p4612
I4
sV\u6587\u5316\u4ea7\u4e1a
p4613
I2
sV\u8c03\u8fd0
p4614
I7
sV\u8d2b\u56f0\u4eba\u53e3
p4615
I1
sV\u7d2b\u765c
p4616
I1
sV\u4ea4\u754c
p4617
I1
sV\u6280\u6821
p4618
I1
sV\u5ba2\u89c2
p4619
I1
sV\u6062\u590d
p4620
I9
sV\u77e5\u8bc6
p4621
I2
sV\u5f00\u8f9f
p4622
I1
sV\u5931\u4fe1
p4623
I1
sV\u58a8\u897f\u54e5
p4624
I2
sV\u666f\u533a
p4625
I2
sV\u671f\u8d27
p4626
I2
sV\u8d38\u6613
p4627
I16
sV\u5356\u573a
p4628
I2
sV\u9ec4\u91d1
p4629
I6
sV\u5546\u4f1a
p4630
I4
sV\u6d59\u6c5f\u7701
p4631
I2
sV\u5927\u6d77
p4632
I1
sV\u6587\u5316
p4633
I12
sV\u5305\u6708
p4634
I1
sV\u6563\u5ba2
p4635
I1
sV\u4f9d\u6258
p4636
I3
sV\u6807\u9898
p4637
I1
sV\u503a\u52a1\u4eba
p4638
I1
sV\u5fd7\u5411
p4639
I1
sV\u67d3\u4e0a
p4640
I1
sV\u5e02\u573a\u9700\u6c42
p4641
I8
sV\u53cd\u5784\u65ad\u6cd5
p4642
I3
sV\u6742\u4ea4
p4643
I1
sV\u5c0f\u65f6\u6570
p4644
I1
sV\u65b9\u5f0f
p4645
I28
sV\u559c\u7231
p4646
I1
sV\u9655\u5357
p4647
I4
sV\u504f\u89c1
p4648
I1
sV\u6cb9\u6c14
p4649
I4
sV\u6307\u63a7
p4650
I3
sV\u4fdd\u62a4\u5668
p4651
I1
sV\u770b\u5230
p4652
I16
sV\u8bba\u575b
p4653
I11
sV\u6240\u793a
p4654
I2
sV\u62b1\u6028
p4655
I2
sV\u89e3\u6790
p4656
I1
sV\u4e0a\u699c
p4657
I1
sV\u7b49\u989d
p4658
I5
sV\u9650\u4ef7
p4659
I13
sV\u6491\u8d77
p4660
I1
sV\u53d1\u6539
p4661
I2
sV\u653f\u6cbb\u5c40\u52bf
p4662
I2
sV\u51fa\u9762
p4663
I1
sV\u53d1\u653e
p4664
I1
sV\u5357\u7f8e\u6d32
p4665
I1
sV\u5360\u5230
p4666
I2
sV\u6ce2\u8c37
p4667
I1
sV\u6761\u4ef6
p4668
I15
sV\u60ac\u6302
p4669
I1
sV\u57fa\u6570
p4670
I1
sV\u8fa9\u62a4
p4671
I1
sV\u6c14\u6e29
p4672
I1
sV\u6743\u5229
p4673
I3
sV\u7ecf\u9a8c
p4674
I4
sV\u6d77\u5b81
p4675
I1
sV\u7b80\u62a5
p4676
I1
sV\u6d88\u9632\u652f\u961f
p4677
I2
sV\u94a2\u534f
p4678
I3
sV\u6e2f\u53e3
p4679
I3
sV\u65b0\u653f
p4680
I6
sV\u62d6\u7d2f
p4681
I4
sV\u9633\u6cc9\u5e02
p4682
I1
sV\u9700\u7531
p4683
I1
sV\u62db\u80a1\u4e66
p4684
I2
sV\u76d1\u7406
p4685
I1
sV\u5e72\u90e8
p4686
I3
sV\u5212\u8bbe
p4687
I1
sV\u7ba1\u7406\u5904
p4688
I2
sV\u62cd\u7167
p4689
I2
sV\u884c\u653f\u5316
p4690
I1
sV\u8282\u594f
p4691
I2
sV\u5730\u79df
p4692
I1
sV\u578b\u53f7
p4693
I3
sV\u59a5\u5584\u5904\u7406
p4694
I2
sV\u4e13\u5229
p4695
I6
sV\u4f59\u989d
p4696
I3
sV\u9650\u4ea7
p4697
I1
sV\u4ef7\u5171
p4698
I1
sV\u6cb9\u7bb1
p4699
I5
sV\u611f\u5174\u8da3
p4700
I1
sV\u5dde\u9645
p4701
I1
sV\u652f\u6491
p4702
I14
sV\u670d\u88c5\u884c\u4e1a
p4703
I1
sV\u5de5\u4f5c\u529b\u5ea6
p4704
I1
sV\u5546\u6237
p4705
I3
sV\u7f51\u7ad9
p4706
I13
sV\u6c5f\u5317\u533a
p4707
I1
sV\u8206\u60c5
p4708
I1
sV\u62ab\u9732
p4709
I3
sV\u5bf9\u8bdd
p4710
I2
sV\u5b9e\u4e1a\u5bb6
p4711
I1
sV\u521b\u51fa
p4712
I1
sV\u6218\u7565\u90e8\u7f72
p4713
I1
sV\u63d0\u4f9b\u652f\u63f4
p4714
I1
sV\u6c60\u5dde\u5e02
p4715
I1
sV\u5e02\u573a\u539f\u6cb9
p4716
I21
sV\u4fdd\u6301\u826f\u597d
p4717
I1
sV\u4e09\u6e58
p4718
I2
sV\u7eaf\u5c5e\u634f\u9020
p4719
I1
sV\u9171\u9999
p4720
I1
sV\u5a92\u4f53\u62a5\u9053
p4721
I1
sV\u4e2d\u7ecf
p4722
I1
sV\u964d\u6e29
p4723
I3
sV\u6253\u67b6
p4724
I1
sV\u6743\u529b
p4725
I2
sV\u53f8\u957f
p4726
I2
sV\u7ef4\u6743
p4727
I3
sV\u4fb5\u6743
p4728
I5
sV\u5f3a\u5236\u63aa\u65bd
p4729
I2
sV\u767d\u6761\u9e21
p4730
I2
sV\u79d1\u6280\u80a1\u4efd
p4731
I2
sV\u7ea0\u6b63\u9519\u8bef
p4732
I1
sV\u4fee\u6539
p4733
I1
sV\u915d\u917f
p4734
I1
sV\u6ce8\u518c\u8d44\u672c
p4735
I1
sV\u53e4\u5178\u5bb6\u5177
p4736
I1
sV\u624b\u518c
p4737
I1
sV\u53cd\u5e94
p4738
I1
sV\u7535\u5b50\u6e38\u620f
p4739
I1
sV\u724c\u5b50
p4740
I2
sV\u6837\u5b50
p4741
I1
sV\u8f6c\u964d
p4742
I1
sV\u5317\u4eac\u5e02
p4743
I15
sV\u5b58\u94b1
p4744
I1
sV\u6da8\u5e45
p4745
I10
sV\u521b\u5c55
p4746
I1
sV\u8ba1\u5212\u5355\u5217\u5e02
p4747
I1
sV\u53c2\u5408
p4748
I1
sV\u6d41\u884c
p4749
I3
sV\u8bf4\u660e
p4750
I13
sV\u98ce\u683c
p4751
I1
sV\u518d\u73b0
p4752
I1
sV\u8377\u5170
p4753
I2
sV\u6df1\u8015
p4754
I1
sV\u4f24\u4ea1
p4755
I1
sV\u767e\u8d27
p4756
I3
sV\u6682\u65e0
p4757
I4
sV\u94a2\u5382
p4758
I2
sV\u996d\u56e2
p4759
I1
sV\u7f62\u514d
p4760
I1
sV\u8f6c\u8ba9
p4761
I6
sV\u8d8b\u7f13
p4762
I2
sV\u8bc1\u5238\u65f6\u62a5
p4763
I2
sV\u5546\u62a5
p4764
I15
sV\u8584\u8377
p4765
I1
sV\u589e\u5927
p4766
I2
sV\u4e13\u4e1a\u5316
p4767
I2
sV\u8944\u9633
p4768
I1
sV\u8c03\u914d
p4769
I1
sV\u4eea\u7535
p4770
I1
sV\u56f4\u7ed5
p4771
I4
sV\u5406\u559d
p4772
I1
sV\u4e1c\u5317\u4e9a
p4773
I1
sV\u9b54\u517d
p4774
I1
sV\u8f6c\u5ac1\u7ed9
p4775
I1
sV\u5c0f\u65f6
p4776
I11
sV\u97e9\u56fd
p4777
I3
sV\u4ef7\u503c
p4778
I11
sV\u53cd\u5f39
p4779
I7
sV\u72c2\u98da
p4780
I1
sV\u7518\u8083\u7701
p4781
I1
sV\u6293\u597d
p4782
I1
sV\u5904\u5728
p4783
I3
sV\u4e3b\u5bfc\u6743
p4784
I1
sVB\u8f6e
p4785
I1
sV\u6fb3\u58eb\u8fbe
p4786
I1
sV\u4fbf\u9053
p4787
I1
sV\u5230\u8bbf
p4788
I3
sV\u5de5\u4e1a\u5316
p4789
I3
sV\u8fc7\u5ea6
p4790
I1
sV\u82f9\u679c
p4791
I3
sV\u524d\u6392
p4792
I1
sV\u70ed\u7ebf
p4793
I2
sV\u53cd\u503e\u9500\u7a0e
p4794
I2
sV\u534e\u5357
p4795
I2
sV\u81ea\u9a7e
p4796
I3
sV\u8d35\u9633\u5e02
p4797
I1
sV\u519c\u526f\u4ea7\u54c1
p4798
I4
sV\u673a\u8f66\u8f66\u8f86
p4799
I1
sV\u8ffd\u67e5
p4800
I3
sV\u4e24\u6781\u5206\u5316
p4801
I1
sV\u8c03\u52a8
p4802
I1
sV\u5f80\u8fd4
p4803
I1
sV\u670d\u52a1\u5e73\u53f0
p4804
I5
sV\u88ab\u544a\u4eba
p4805
I2
sV\u6551\u62a4\u8f66
p4806
I1
sV\u7cbe\u7ec6\u5316
p4807
I1
sV\u897f\u74dc
p4808
I2
sV\u4e0b\u8f6e
p4809
I1
sV\u5bb6\u88c5
p4810
I1
sV\u8d27\u8fd0
p4811
I1
sV\u4fdd\u9669
p4812
I6
sV\u6761\u4f8b
p4813
I1
sV\u5bb6\u7535\u5e02\u573a
p4814
I3
sV\u5f3a\u5236\u6027
p4815
I2
sV\u51b2\u51fb
p4816
I5
sV\u8d44\u683c\u8003\u8bd5
p4817
I1
sV\u5b98\u65b9
p4818
I12
sV\u524d\u63d0
p4819
I4
sV\u603b\u7ecf\u7406
p4820
I11
sV\u534e\u5317
p4821
I1
sV\u56e0\u7d20
p4822
I47
sV\u88ab\u68c0
p4823
I1
sV\u8f66\u5934
p4824
I1
sV\u534f\u52a9
p4825
I1
sV\u96f6\u589e\u957f
p4826
I1
sV\u5e94\u7f34
p4827
I1
sV\u4f0a\u6717
p4828
I1
sV\u5206\u6790\u5e08
p4829
I52
sV\u4ef7\u683c\u6218
p4830
I6
sV\u51fa\u56fd
p4831
I2
sV\u6d88\u9632\u5b98\u5175
p4832
I2
sV\u96c6\u8d44
p4833
I1
sV\u652f\u6559
p4834
I1
sV\u7c7b\u522b
p4835
I2
sV\u6709\u6240
p4836
I26
sV\u8f7b\u8d28
p4837
I1
sV\u64e6\u4eae
p4838
I1
sV\u7406\u7531
p4839
I5
sV\u4e00\u5ba1
p4840
I1
sV\u5317\u4eac\u5730\u94c1
p4841
I1
sV\u539f\u6cb9
p4842
I57
sV\u6237\u7c4d
p4843
I1
sV\u5bfb\u627e
p4844
I1
sV\u57cb\u4f0f
p4845
I1
sV\u63a5\u5230
p4846
I5
sV\u4f4d\u5217
p4847
I1
sV\u5949\u732e
p4848
I1
sV\u4f5b\u95e8
p4849
I1
sV\u670d\u52a1\u4f53\u7cfb
p4850
I1
sV\u652f\u6570
p4851
I1
sV\u4e2d\u4f4e\u4ea7\u7530
p4852
I1
sV\u63aa\u65bd
p4853
I14
sV\u7533\u8d2d
p4854
I1
sV\u9886\u53d6
p4855
I1
sV\u51cf\u7a0e
p4856
I2
sV\u53d8\u5c40
p4857
I1
sV\u73af\u5883
p4858
I21
sV\u7f51\u7b7e
p4859
I2
sV\u97e7\u5e26
p4860
I1
sV\u6d77\u529b
p4861
I1
sV\u8fde\u8dcc
p4862
I24
sV\u8d37\u6b3e
p4863
I7
sV\u672c\u5e02
p4864
I1
sV\u73b0\u4ef7
p4865
I2
sV\u5de5\u5382
p4866
I10
sV\u8ddf\u8e2a
p4867
I1
sV\u957f\u5047
p4868
I6
sV\u5236\u9020
p4869
I12
sV\u63a7\u5236\u80fd\u529b
p4870
I1
sV\u62a2\u5360
p4871
I2
sV\u7701\u57ce
p4872
I1
sV\u8584\u819c
p4873
I1
sV\u53bf\u5e02\u533a
p4874
I1
sV\u7535\u5546
p4875
I26
sV\u53d8\u5f97
p4876
I1
sV\u6c11\u95f4
p4877
I4
sV\u670d\u88c5
p4878
I4
sV\u6587\u4ef6
p4879
I6
sV\u4e8b\u60c5
p4880
I1
sV\u521b\u65b0\u578b
p4881
I1
sV\u6539\u8fdb
p4882
I1
sV\u4fc3\u9500\u4ef7
p4883
I1
sV\u6e20\u9053
p4884
I34
sV\u73b0\u8d27
p4885
I4
sV\u53d6\u6837
p4886
I1
sV\u4eba\u5219
p4887
I1
sV\u5f3a\u8c03
p4888
I8
sV\u51fa\u552e
p4889
I8
sV\u53ef\u884c
p4890
I1
sV\u5ba2\u6751
p4891
I1
sV\u4eba\u5de5
p4892
I2
sV\u52a0\u5de5\u70b9
p4893
I1
sV\u7ea2\u6728
p4894
I1
sV\u9972\u6599
p4895
I4
sV\u987a\u52bf
p4896
I1
sV\u5f31\u8005
p4897
I1
sV\u5316\u7597
p4898
I1
sV\u798f\u5dde\u5e02
p4899
I1
sV\u5c0f\u5bb6\u7535
p4900
I1
sV\u9762\u5bf9
p4901
I9
sV\u5206\u6563
p4902
I3
sV\u521b\u5efa
p4903
I1
sV\u4e0d\u5229\u4e8e
p4904
I1
sV\u5370\u5c3c
p4905
I1
sV\u65e0\u6bd2
p4906
I1
sV\u6b62\u8dcc
p4907
I1
sV\u603b\u6536\u5165
p4908
I1
sV\u8ba4\u5b9a
p4909
I5
sV\u5927\u5927\u964d\u4f4e
p4910
I1
sV\u8c03\u5236
p4911
I1
sV\u9009\u5ea7
p4912
I2
sV\u94fe\u65ad\u88c2
p4913
I1
sV\u89d2\u8272
p4914
I1
sV\u79c1\u8425\u4f01\u4e1a
p4915
I1
sV\u4ef7\u683c\u6c34\u5e73
p4916
I9
sV\u627f\u8f7d\u91cf
p4917
I1
sV\u5ef6\u8bef
p4918
I2
sV\u6821\u65b9
p4919
I1
sV\u7ec8\u88c1
p4920
I3
sV\u6d77\u5173\u76d1\u7ba1
p4921
I1
sV\u94bb\u63a2
p4922
I1
sV\u4eba\u7269
p4923
I1
sV\u6700\u65b0\u6d88\u606f
p4924
I1
sV\u8d31\u4ef7
p4925
I1
sV\u80fd\u591f
p4926
I20
sV\u4fe1\u606f\u6280\u672f
p4927
I1
sV\u6253\u6597
p4928
I1
sV\u603b\u5c40
p4929
I9
sV\u8f9e\u804c
p4930
I3
sV\u82f1\u5229
p4931
I1
sV\u4ef7\u683c\u4f18\u52bf
p4932
I1
sV\u670d\u52a1\u516c\u53f8
p4933
I3
sV\u804c\u52c7
p4934
I1
sV\u957f\u6625\u5e02
p4935
I3
sV\u5bfc\u6e38
p4936
I1
sV\u5b9e\u4f53\u5e97
p4937
I3
sV\u95ee\u9898
p4938
I85
sV\u5e7f\u897f
p4939
I4
sV\u62c6\u5206
p4940
I2
sV\u5236\u7a0b
p4941
I1
sV\u6269\u5927
p4942
I15
sV\u8054\u52a8\u673a\u5236
p4943
I3
sV\u7eb8\u5c3f\u88e4
p4944
I2
sV\u7535\u5b50\u90ae\u4ef6
p4945
I2
sV\u8fdb\u53e3\u56fd
p4946
I1
sV\u672c\u606f
p4947
I1
sV\u9500\u8def
p4948
I1
sV\u8d44\u683c
p4949
I4
sV\u4f01\u4e1a\u5bb6
p4950
I5
sV\u533b\u836f\u96c6\u56e2
p4951
I1
sV\u96c6\u4e2d
p4952
I11
sV\u96c6\u8fd0
p4953
I1
sV\u6807\u5fd7
p4954
I2
sV\u5f97\u4e0d\u5230
p4955
I2
sV\u5bb9\u79ef
p4956
I1
sV\u7167\u987e
p4957
I1
sV\u5ba3\u4f20
p4958
I8
sV\u72ec\u8d44
p4959
I1
sV\u8d21\u732e
p4960
I2
sV\u8ba1\u7b97\u673a\u4fe1\u606f
p4961
I1
sV\u8fdc\u79bb
p4962
I3
sV\u5de5\u5177
p4963
I2
sV\u8def\u6f14
p4964
I2
sV\u65b0\u660c
p4965
I1
sV\u7ade\u6807
p4966
I1
sV\u660e\u7801\u6807\u4ef7
p4967
I2
sV\u5b58\u5728
p4968
I46
sV\u59bb\u5b50
p4969
I1
sV\u6e14\u4e1a
p4970
I1
sV\u5e03\u4f26\u7279\u5170
p4971
I1
sV\u5c71\u533a
p4972
I1
sV\u63a2\u6d4b
p4973
I1
sV\u4f9d\u5b58\u5ea6
p4974
I1
sV\u529e\u516c
p4975
I6
sV\u5730\u4e0b\u901a\u9053
p4976
I1
sV\u6b27\u7f8e
p4977
I13
sV\u5ba1\u5b9a
p4978
I1
sV\u5fc3\u6001
p4979
I6
sV\u8fd0\u884c
p4980
I27
sV\u60e0\u9633\u533a
p4981
I1
sV\u6447\u53f7
p4982
I2
sV\u52b3\u52a8\u5bc6\u96c6\u578b
p4983
I1
sV\u515a\u7ec4
p4984
I1
sV\u907f\u7a0e
p4985
I1
sV\u81c0\u5c16
p4986
I2
sV\u8d44\u672c
p4987
I22
sV\u603b\u4ea7\u91cf
p4988
I1
sV\u76d1\u7763
p4989
I17
sV\u533b\u836f\u5de5\u4e1a
p4990
I1
sV\u62b5\u6d88
p4991
I2
sV\u80a1\u4ef7
p4992
I4
sV\u4e0d\u592a\u60f3
p4993
I1
sV\u9886\u5148
p4994
I3
sV\u80a1\u4efd
p4995
I10
sV\u7ebf\u7d22
p4996
I1
sV\u5a74\u513f
p4997
I3
sV\u5408\u6cd5\u6743\u76ca
p4998
I1
sV\u542f\u52a8
p4999
I19
sV\u8d70\u5f3a
p5000
I1
sV\u7f51\u7b7e\u91cf
p5001
I1
sV\u4fdd\u8d39
p5002
I1
sV\u8bba\u8bc1
p5003
I1
sV\u6210\u4ea4\u91cf
p5004
I8
sV\u5bfb\u6c42
p5005
I2
sV\u73b0\u8c61
p5006
I11
sV\u4ea7\u6743
p5007
I1
sV\u5bb4\u8bf7
p5008
I1
sV\u6267\u610f
p5009
I1
sV\u8d2d\u623f
p5010
I6
sV\u7eb3\u7a0e\u4eba
p5011
I1
sV\u9aa8\u5e72
p5012
I1
sV\u8f6c\u53d1
p5013
I10
sV\u79bd\u7c7b
p5014
I1
sV\u52a3\u52bf
p5015
I1
sV\u64a4\u9500
p5016
I1
sV\u70df\u8349
p5017
I1
sV\u4f18\u52bf\u4ea7\u4e1a
p5018
I1
sV\u80a1\u4efd\u516c\u53f8
p5019
I4
sV\u5236\u9020\u4e1a
p5020
I15
sV\u5f81\u4fe1
p5021
I1
sV\u7fbd\u7ed2\u670d
p5022
I1
sV\u8d77\u7801
p5023
I1
sV\u7279\u70b9
p5024
I2
sV\u51fa\u54c1
p5025
I1
sV\u5c71\u53bf
p5026
I1
sV\u6cb3\u5317\u5730\u533a
p5027
I1
sV\u540c\u5e97
p5028
I1
sV\u70e7\u56fd
p5029
I1
sV\u4f01\u4e1a\u4e3b
p5030
I2
sV\u9875\u5ca9
p5031
I3
sV\u878d\u8d44\u989d
p5032
I2
sV\u5eca\u6865
p5033
I1
sV\u98ce\u9669\u7ba1\u7406
p5034
I1
sV\u80a1\u4e1c
p5035
I12
sV\u9650\u8d37
p5036
I1
sV\u5173\u952e\u65f6\u523b
p5037
I1
sV\u6570\u5b57\u7b7e\u540d
p5038
I1
sV\u7b26\u5408\u56fd\u5bb6
p5039
I1
sV\u7ade\u4e89\u5bf9\u624b
p5040
I3
sV\u4ef7\u683c\u884c\u60c5
p5041
I3
sV\u5de5\u51b5
p5042
I1
sV\u6c11\u7528
p5043
I3
sV\u9650\u8d2d
p5044
I7
sV\u963f\u62c9\u5c71\u53e3
p5045
I1
sV\u519c\u6237
p5046
I1
sV\u822a\u6807
p5047
I1
sV\u5b64\u7acb
p5048
I1
sV\u77db\u5934
p5049
I1
sV\u76ae\u9769\u5382
p5050
I1
sV\u5931\u53bb
p5051
I1
sV\u519c\u8d38\u5e02\u573a
p5052
I2
sV\u4e3b\u7ba1
p5053
I2
sV\u6c11\u751f
p5054
I1
sV\u89c4\u7ba1
p5055
I1
sV\u6cb3\u5357\u7701
p5056
I4
sV\u903c\u8fd1
p5057
I1
sV\u5386\u4ee3
p5058
I1
sV\u8fc7\u5269
p5059
I15
sV\u6d88\u6563
p5060
I1
sV\u70c2\u5c3e
p5061
I1
sV\u5b9e\u540d
p5062
I2
sV\u6de1\u5b63
p5063
I1
sV\u6574\u5408
p5064
I12
sV\u6765\u81ea
p5065
I11
sV\u9002\u7528
p5066
I1
sV\u98ce\u6ce2
p5067
I2
sV\u4ea7\u54c1\u8d28\u91cf
p5068
I3
sV\u6e24\u6d77
p5069
I1
sV\u7814\u7a76\u6240
p5070
I3
sV\u6536\u623f
p5071
I1
sV\u70bc\u5316
p5072
I1
sV\u878d\u8d44
p5073
I18
sV\u91cd\u5e86\u5e02
p5074
I6
sV\u6c7d\u8f66\u884c\u4e1a
p5075
I4
sV\u4e00\u5e26
p5076
I3
sV\u5de5\u7a0b\u5e08
p5077
I2
sV\u6d0b\u623f
p5078
I1
sV\u5207\u5165\u70b9
p5079
I1
sV\u53cd\u5784\u65ad
p5080
I8
sV\u8fd0\u4f5c
p5081
I4
sV\u6c61\u67d3
p5082
I9
sV\u4e0a\u6da8
p5083
I32
sV\u6df1\u5733\u7279\u533a
p5084
I1
sV\u9605\u8bfb
p5085
I1
sV\u4e09\u548c\u56fd
p5086
I3
sV\u77e5\u9053
p5087
I4
sV\u9ec4\u6c5f\u9547
p5088
I1
sV\u8c03\u5408
p5089
I1
sV\u526f\u7406\u4e8b\u957f
p5090
I2
sV\u5408\u8d44\u4f01\u4e1a
p5091
I2
sV\u96f6\u552e
p5092
I37
sV\u9662\u58eb
p5093
I1
sV\u9020\u5c31
p5094
I1
sV\u4fe1\u4efb\u5371\u673a
p5095
I1
sV\u9a71\u52a8
p5096
I5
sV\u6743\u9650
p5097
I2
sV\u4e3b\u5bfc\u4ea7\u4e1a
p5098
I1
sV\u7ea6\u675f\u529b
p5099
I1
sV\u5bf9\u65b9
p5100
I2
sV\u8de8\u7701
p5101
I1
sV\u5305\u5b50\u94fa
p5102
I1
sV\u8bf7\u6c42
p5103
I2
sV\u5728\u7ebf\u97f3\u4e50
p5104
I1
sV\u6c47\u91d1
p5105
I1
sV\u8f68\u9053
p5106
I4
sV\u8def\u6865
p5107
I1
sV\u6750\u6599
p5108
I8
sV\u7f51\u7edc
p5109
I15
sV\u6b66\u88c5
p5110
I1
sV\u73af\u536b\u5de5
p5111
I1
sV\u516c\u793a
p5112
I2
sV\u6001\u52bf
p5113
I18
sV\u5916\u6d41
p5114
I1
sV\u6cd5\u5f8b\u8d23\u4efb
p5115
I1
sV\u8336\u6811
p5116
I1
sV\u5929\u7ebf
p5117
I1
sV\u5b89\u8e0f
p5118
I1
sV\u9996\u8fce
p5119
I1
sV\u51fa\u53e3
p5120
I19
sV\u884c\u4f7f\u804c\u6743
p5121
I1
sV\u6d8c\u5165
p5122
I1
sV\u641c\u6551
p5123
I1
sV\u8f6c\u8fd0
p5124
I1
sV\u53d7\u635f
p5125
I1
sV\u6709\u6743
p5126
I2
sV\u6536\u62bc
p5127
I1
sV\u7559\u4e0d\u4f4f
p5128
I1
sV\u5371\u5bb3
p5129
I3
sV\u603b\u90e8
p5130
I7
sV\u6cdb\u6d77
p5131
I1
sV\u5168\u6c11
p5132
I1
sV\u8d4c\u5c40
p5133
I2
sV\u82cf\u5dde
p5134
I1
sV\u673a\u6784
p5135
I42
sV\u4e2d\u7aef
p5136
I1
sV\u755c\u79bd
p5137
I1
sV\u706b\u8f66\u7ad9
p5138
I1
sV\u6b67\u89c6
p5139
I1
sV\u70bc\u5382
p5140
I3
sV\u6cbb\u75c5
p5141
I1
sV\u9910\u5385
p5142
I2
sV\u96f6\u914d\u4ef6
p5143
I1
sV\u6784\u5efa
p5144
I3
sV\u51fa\u53d1
p5145
I1
sV\u670b\u53cb\u5708
p5146
I2
sV\u6709\u671b
p5147
I17
sV\u5ba2\u52a1
p5148
I1
sV\u8c03\u548c
p5149
I1
sV\u5927\u767d
p5150
I1
sV\u9996\u4f8b
p5151
I2
sV\u65b0\u54c1
p5152
I3
sV\u671f\u9650
p5153
I2
sV\u5927\u91cf
p5154
I18
sV\u6253\u4e86\u4e2a
p5155
I1
sV\u4e1c\u5f81
p5156
I1
sV\u6269\u5f20
p5157
I8
sV\u7f3a\u53e3
p5158
I1
sV\u5546\u4e1a\u5316
p5159
I3
sV\u5021\u5bfc
p5160
I1
sV\u60c5\u4eba\u8282
p5161
I1
sV\u7ef4\u6301
p5162
I13
sV\u8fd0\u8f93
p5163
I26
sV\u6709\u673a
p5164
I2
sV\u6cbb\u7597
p5165
I2
sV\u78cb\u5546
p5166
I2
sV\u5b9e\u73b0
p5167
I43
sV\u5c71\u4e1c\u5730\u533a
p5168
I1
sV\u4f4e\u6c34\u5e73
p5169
I1
sV\u4e0a\u6d77
p5170
I58
sV\u53d7\u632b
p5171
I1
sV\u51fa\u5382
p5172
I3
sV\u5236\u4f5c
p5173
I6
sV\u4e0a\u6d6e
p5174
I1
sV\u60ac\u5ff5
p5175
I1
sV\u6d77\u5f52
p5176
I1
sV\u4e0a\u6d77\u5e02
p5177
I6
sV\u98ce\u6c14
p5178
I1
sV\u590d\u82cf
p5179
I6
sV\u70bc\u5236
p5180
I1
sV\u8471\u6cb9\u997c
p5181
I1
sV\u786e\u7acb
p5182
I1
sV\u8d60\u4e0e
p5183
I1
sV\u5bb6\u5177
p5184
I3
sV\u7269\u4ef7
p5185
I2
sV\u6545\u969c
p5186
I4
sV\u7a96\u9152
p5187
I1
sV\u836f\u5e97
p5188
I1
sV\u793c\u54c1
p5189
I1
sV\u6210\u672c
p5190
I65
sV\u4e66\u5e97
p5191
I1
sV\u589e\u957f\u7387
p5192
I4
sV\u5230\u8fbe
p5193
I1
sV\u82cf\u5b81
p5194
I3
sV\u5b9e\u7269
p5195
I1
sV\u6df1\u5ea6
p5196
I2
sV\u590d\u5ba1
p5197
I1
sV\u6838\u5de5\u4e1a
p5198
I1
sV\u63d0\u524d
p5199
I7
sV\u4e13\u573a
p5200
I1
sV\u63d0\u5230
p5201
I2
sV\u9886\u519b
p5202
I1
sV\u5173\u952e\u6280\u672f
p5203
I2
sV\u9e21\u6c64
p5204
I1
sV\u5bff\u53f8
p5205
I1
sV\u5927\u77ff
p5206
I1
sV\u6743\u76ca
p5207
I3
sV\u6253\u6270
p5208
I1
sV\u7267\u573a
p5209
I2
sV\u8d23\u4ee4
p5210
I4
sV\u8d23\u4efb
p5211
I9
sV\u63a8\u6da8
p5212
I1
sV\u7389\u7c73\u4ef7\u683c
p5213
I1
sV\u5de5\u573a
p5214
I3
sV\u7834\u62c6
p5215
I1
sV\u627f\u8bfa
p5216
I7
sV\u5de5\u5730
p5217
I1
sV\u5e02\u573a\u89c4\u5f8b
p5218
I1
sV\u7f3a\u4e4f
p5219
I2
sV\u5927\u671b\u8def
p5220
I1
sV\u51fa\u79df\u6c7d\u8f66
p5221
I1
sV\u7ba1\u7406\u5c40
p5222
I3
sV\u7ba1\u7406\u5c42
p5223
I5
sV\u63a8\u5012
p5224
I1
sV\u5f71\u9662
p5225
I1
sV\u505c\u6b62
p5226
I6
sV\u6cbb\u7406
p5227
I10
sV\u65e0\u6cd5
p5228
I15
sV\u5957\u623f
p5229
I1
sV\u7ef4\u62a4
p5230
I13
sV\u9644\u52a0\u503c
p5231
I1
sV\u8f6c\u4e3a
p5232
I2
sV\u86cb\u9e21
p5233
I1
sV\u8fd0\u4ef7
p5234
I2
sV\u6cd5\u6cbb
p5235
I1
sV\u5916\u6c47
p5236
I1
sV\u5170\u5dde
p5237
I4
sV\u5218\u6dc4
p5238
I1
sV\u590d\u5408
p5239
I1
sV\u4e1c\u98ce
p5240
I3
sV\u70d8\u7119
p5241
I1
sV\u4fdd\u8bc1
p5242
I7
sV\u8bc6\u5047
p5243
I1
sV\u9996\u4ed8
p5244
I2
sV\u88c1\u5b9a
p5245
I3
sV\u6570\u91cf
p5246
I12
sV\u6c7d\u8f66\u4ea7\u4e1a
p5247
I6
sV\u6253\u6298
p5248
I4
sV\u751f\u6d3b
p5249
I13
sV\u8d2a\u8150
p5250
I1
sV\u6210\u679c
p5251
I4
sV\u7b7e\u5b57
p5252
I1
sV\u79d1\u6280
p5253
I23
sV\u7ed3\u5408
p5254
I11
sV\u5316\u5de5\u5382
p5255
I2
sV\u5b8c\u6210
p5256
I31
sV\u79c1\u4eba
p5257
I2
sV\u5c55\u5f00
p5258
I7
sV\u5fc3\u5b58\u4fa5\u5e78
p5259
I1
sV\u907f\u5f00
p5260
I1
sV\u53ea\u80fd
p5261
I5
sV\u96f6\u552e\u603b\u989d
p5262
I2
sV\u5b58\u91cf
p5263
I4
sV\u7535\u529b
p5264
I8
sV\u5cf0\u4f1a
p5265
I1
sV\u4e1a\u8005
p5266
I6
sV\u5723\u8c61
p5267
I1
sV\u8bc6\u8d27
p5268
I1
sV\u5b66\u672f\u4f1a\u8bae
p5269
I1
sV\u9886\u57df
p5270
I45
sV\u8d8b\u7a33
p5271
I1
sV\u9996\u4e91
p5272
I1
sV\u6ee1\u8db3
p5273
I3
sV\u8bd5\u6c34
p5274
I2
sV\u6210\u7acb
p5275
I22
sV\u7164\u70ad\u4f01\u4e1a
p5276
I3
sV\u6cf8\u5dde\u5e02
p5277
I1
sV\u51b0\u6cc9
p5278
I1
sV\u8b66\u544a
p5279
I1
sV\u5230\u4f4d
p5280
I2
sV\u5ba2\u5385
p5281
I1
sV\u7269\u4e1a
p5282
I4
sV\u56fd\u9645\u60ef\u4f8b
p5283
I1
sV\u4e5d\u5730
p5284
I1
sV\u8fd4\u56de
p5285
I1
sV\u57ce\u9547\u5316
p5286
I5
sV\u76d7\u7528
p5287
I1
sV\u4e86\u4e0d\u5f97
p5288
I1
sV\u53e3\u611f
p5289
I1
sV\u7535\u52a8
p5290
I2
sV\u7f29\u51cf
p5291
I3
sV\u7cfb\u5217\u4ea7\u54c1
p5292
I1
sV\u6da8\u52bf
p5293
I1
sV\u6743\u5c5e
p5294
I1
sV\u5206\u884c\u4e1a
p5295
I1
sV\u9e2d\u8840
p5296
I1
sV\u8f6e\u80ce
p5297
I2
sV\u53c2\u89c2\u8005
p5298
I1
sV\u67e5\u6263
p5299
I1
sV\u4e0a\u6d77\u6d66\u4e1c
p5300
I2
sV\u5408\u751f
p5301
I1
sV\u589e\u957f\u70b9
p5302
I2
sV\u5976\u74f6
p5303
I1
sV\u7ffb\u756a
p5304
I1
sV\u51fa\u5177
p5305
I1
sV\u53ef\u8c13
p5306
I1
sV\u6742\u4ea4\u7a3b
p5307
I1
sV\u843d\u5e55
p5308
I1
sV\u5347\u7ea7
p5309
I32
sV\u8461\u8404\u9152
p5310
I1
sV\u59d4\u6258
p5311
I3
sV\u5e97\u5bb6
p5312
I1
sV\u539f\u6cb9\u4ef7\u683c
p5313
I3
sV\u7f34\u7eb3
p5314
I3
sV\u4e4b\u65e5\u8d77
p5315
I1
sV\u79cb\u6536\u5b63\u8282
p5316
I2
sV\u79c1\u5bb6\u8f66
p5317
I29
sV\u62ac\u5347
p5318
I1
sV\u4ee3\u7ba1
p5319
I1
sV\u8fd0\u8d39
p5320
I1
sV\u4e3b\u7ebf
p5321
I1
sV\u547c\u5438
p5322
I1
sV\u542c\u53d6
p5323
I1
sV\u5ea7\u8d39
p5324
I2
sV\u5ef6\u4f38
p5325
I2
sV\u5927\u4f7f\u9986
p5326
I1
sV\u4f53\u6064
p5327
I1
sV\u7530\u95f4
p5328
I1
sV\u534f\u5546
p5329
I2
sV\u5f00\u5de5\u7387
p5330
I2
sV\u82f1\u56fd
p5331
I3
sV\u603b\u989d
p5332
I5
sV\u5382\u65b9
p5333
I1
sV\u56de\u7b3c\u8d44\u91d1
p5334
I2
sV\u519c\u6751
p5335
I4
sV\u4e0a\u6f14
p5336
I3
sV\u8d70\u9ad8
p5337
I4
sV\u50f5\u5316
p5338
I1
sV\u8c03\u96c6
p5339
I2
sV\u8f7d\u4eba
p5340
I1
sV\u7535\u91cf
p5341
I2
sV\u670d\u52a1\u884c\u4e1a
p5342
I1
sV\u6295\u8d44\u90e8
p5343
I2
sV\u6709\u9650\u516c\u53f8
p5344
I49
sV\u793e\u4ea4
p5345
I2
sV\u6728\u5de5
p5346
I1
sV\u5546\u54c1\u4f4f\u5b85
p5347
I5
sV\u8def\u8fc7
p5348
I1
sV\u8f66\u5e02
p5349
I4
sV\u5f53\u5730\u653f\u5e9c
p5350
I2
sV\u51c6\u5165
p5351
I3
sV\u53cd\u589e
p5352
I1
sV\u7269\u8d44
p5353
I2
sV\u8bbe\u5907
p5354
I17
sV\u534e\u4e1c\u5730\u533a
p5355
I1
sV\u5408\u6cd5
p5356
I1
sV\u65b0\u95fb\u8bb0\u8005
p5357
I5
sV\u8861\u5c71\u8def
p5358
I1
sV\u6350\u732e
p5359
I1
sV\u7eed\u5b58
p5360
I1
sV\u63d0\u9192
p5361
I1
sV\u9500\u552e\u90e8
p5362
I1
sV\u6355\u635e
p5363
I1
sV\u5c40\u90e8\u5730\u533a
p5364
I1
sV\u6467\u6bc1
p5365
I1
sV\u7a7a\u8c03
p5366
I8
sV\u5faa\u73af
p5367
I1
sV\u5185\u5bb9
p5368
I10
sV\u6d88\u606f
p5369
I56
sV\u4e89\u8bae
p5370
I3
sV\u7f29\u77ed
p5371
I2
sV\u7701\u533a
p5372
I1
sV\u590d\u68c0
p5373
I1
sV\u4e0b\u67b6
p5374
I2
sV\u76f4\u98de
p5375
I1
sV\u6d77\u6d0b\u5de5\u7a0b
p5376
I1
sV\u4e58\u7528\u8f66
p5377
I7
sV\u6e38\u5ba2
p5378
I3
sV\u5317\u7f8e
p5379
I1
sV\u53d7\u60e0
p5380
I1
sV\u95e8\u5e97
p5381
I8
sV\u87b3\u8782
p5382
I1
sV\u8bbe\u8ba1\u5e08
p5383
I1
sV\u706b\u8f66\u7968
p5384
I1
sV\u6c5f\u897f
p5385
I1
sV\u793e\u4f1a
p5386
I33
sV\u534f\u540c
p5387
I1
sV\u56de\u6e29
p5388
I1
sV\u5de5\u5546
p5389
I4
sV\u65b0\u623f
p5390
I5
sV\u521b\u5ba2
p5391
I2
sV\u606a\u5b88
p5392
I2
sV\u6a21\u4eff
p5393
I1
sV\u4fe1\u6258
p5394
I4
sV\u6d77\u9c9c
p5395
I1
sV\u4f19\u4f34
p5396
I1
sV\u8017\u6cb9
p5397
I1
sV\u5de5\u4f5c\u4eba\u5458
p5398
I9
sV\u516c\u7ea6
p5399
I1
sV\u6d77\u5ce1
p5400
I1
sV\u4eba\u58eb
p5401
I30
sV\u6a21\u5757\u5316
p5402
I1
sV\u4e07\u80fd\u94a5\u5319
p5403
I1
sV\u4f59\u676d\u533a
p5404
I1
sV\u5165\u80a1
p5405
I2
sV\u9ed1\u8272\u661f\u671f
p5406
I1
sV\u4fc3\u8fdb
p5407
I15
sV\u5b9a\u671f
p5408
I3
sV\u671d\u9633\u533a
p5409
I1
sV\u4ef7\u6362\u91cf
p5410
I1
sV\u6d3b\u52a8
p5411
I15
sV\u638c\u95e8\u4eba
p5412
I1
sV\u73b0\u884c
p5413
I34
sV\u4e0d\u6cd5
p5414
I1
sV\u8f7d\u4f53
p5415
I1
sV\u6d3b\u529b
p5416
I4
sV\u6c34\u6cf5
p5417
I1
sV\u88c1\u5b9a\u4e66
p5418
I1
sV\u5c0f\u6392\u91cf
p5419
I1
sV\u6355\u6349
p5420
I1
sV\u79cd\u5b50
p5421
I2
sV\u6c34\u6ce5
p5422
I2
sV\u592a\u6781
p5423
I2
sV\u4e88\u4ee5
p5424
I5
sV\u603b\u6307\u6325
p5425
I1
sV\u6d78\u6deb
p5426
I1
sV\u4e0d\u660e
p5427
I1
sV\u53d6\u6d88
p5428
I14
sV\u603b\u516c\u53f8
p5429
I2
sV\u5706\u901a
p5430
I1
sV\u8fdd\u89c4
p5431
I10
sV\u5939\u51fb
p5432
I1
sV\u4e13\u95e8
p5433
I7
sV\u4e2d\u79d1
p5434
I2
sV\u5e02\u6c11
p5435
I19
sV\u79fb\u4ea4
p5436
I4
sV\u6536\u85cf
p5437
I1
sV\u5bb6\u7535\u4e1a
p5438
I2
sV\u519b\u53f7
p5439
I1
sV\u62dc\u5e08
p5440
I1
sV\u6700\u4f4e\u6807\u51c6
p5441
I1
sV\u53c2\u7167
p5442
I2
sV\u94a2\u94c1
p5443
I11
sV\u4e8b\u6545
p5444
I6
sV\u7279\u5f81
p5445
I2
sV\u5b89\u88c5
p5446
I6
sV\u4f9b\u65b9
p5447
I1
sV\u8de8\u56fd
p5448
I2
sV\u6269\u5c55
p5449
I5
sV\u6d6e\u6765
p5450
I1
sV\u4ea4\u6d41
p5451
I4
sV\u5bbd\u5e45
p5452
I1
sV\u6301\u5e73
p5453
I3
sV\u622a\u6b62
p5454
I2
sV\u7a98\u5883
p5455
I1
sV\u9ad8\u7530
p5456
I1
sV\u88f8\u5356
p5457
I1
sV\u6751\u6c11
p5458
I1
sV\u8eab\u4efd\u8bc1
p5459
I1
sV\u53ec\u5f00
p5460
I10
sV\u5bf9\u8c61
p5461
I4
sV\u73a9\u5177
p5462
I1
sV\u836f\u5c40
p5463
I1
sV\u51cf\u707e
p5464
I1
sV\u5bbd\u5e26
p5465
I2
sV\u6bd2\u7d20
p5466
I1
sV\u5b81\u590f
p5467
I1
sV\u7687\u540e
p5468
I1
sV\u74f7\u5668
p5469
I1
sV\u5f71\u54cd
p5470
I85
sV\u8f93\u9001
p5471
I1
sV\u8d70\u5b8c
p5472
I1
sV\u665a\u996d
p5473
I1
sV\u6c34\u6c7d
p5474
I1
sV\u6709\u6ca1\u6709
p5475
I1
sV\u751f\u4ea7\u80fd\u529b
p5476
I1
sV\u5409\u6797\u7701
p5477
I1
sV\u5f98\u5f8a\u4e0d\u524d
p5478
I1
sV\u6311\u6218
p5479
I5
sV\u5357\u4eac
p5480
I3
sV\u6d41\u8f6c
p5481
I1
sV\u706b\u707e
p5482
I1
sV\u4e58\u5ba2
p5483
I8
sV\u6740\u5230
p5484
I1
sV\u7801\u5934
p5485
I1
sV\u5e02\u573a\u884c\u60c5
p5486
I1
sV\u9075\u4e49
p5487
I3
sV\u8bc6\u522b
p5488
I2
sV\u6240\u5f97
p5489
I2
sV\u4e1c\u5357
p5490
I2
sV\u521d\u5f00
p5491
I1
sV\u7968\u623f
p5492
I3
sV\u65c5\u7a0b
p5493
I1
sV\u8d44\u672c\u8fd0\u4f5c
p5494
I3
sV\u6bcd\u6e2f
p5495
I1
sV\u724c\u53f7
p5496
I1
sV\u4efb\u6027
p5497
I1
sV\u534e\u5c14\u8857
p5498
I2
sV\u54a8\u8be2
p5499
I5
sV\u8ffd\u6eaf
p5500
I2
sV\u7535\u529b\u884c\u4e1a
p5501
I1
sV\u6f14\u827a
p5502
I1
sV\u4f5b\u5c71
p5503
I3
sV\u5212\u7b97
p5504
I1
sV\u9020\u5047
p5505
I5
sV\u7275\u5934
p5506
I2
sV\u8d22\u7ecf
p5507
I5
sV\u7535\u5f71
p5508
I4
sV\u5f00\u652f
p5509
I1
sV\u8054\u8fd0
p5510
I1
sV\u8d44\u6599
p5511
I4
sV\u5de5\u5546\u5206\u5c40
p5512
I1
sV\u7f29\u5c0f
p5513
I1
sV\u5f00\u653e
p5514
I7
sV\u7eb3\u5165
p5515
I5
sV\u5b89\u4e18
p5516
I1
sV\u8d70\u5411
p5517
I6
sV\u4e3b\u57ce\u533a
p5518
I4
sV\u76ae\u80a4\u764c
p5519
I1
sV\u51fa\u4e0d
p5520
I1
sV\u6ca6\u4e3a
p5521
I1
sV\u5c3f\u6db2
p5522
I1
sV\u5e72\u9884
p5523
I4
sV\u7535\u5f0f
p5524
I1
sV\u5706\u5fc3
p5525
I1
sV\u5bff\u9669
p5526
I1
sV\u6842\u4e1c
p5527
I1
sV\u65ad\u4f9b
p5528
I2
sV\u4e0b\u8c03
p5529
I84
sV\u7687\u5bb6
p5530
I5
sV\u65f6\u4ee3\u8d8b\u52bf
p5531
I1
sV\u9ad8\u7aef
p5532
I21
sV\u6001\u5ea6
p5533
I2
sV\u63a2\u660e
p5534
I2
sV\u4e1c\u533a
p5535
I1
sV\u516c\u7528
p5536
I2
sV\u5145\u7535\u7ad9
p5537
I3
sV\u4e86\u4e0d\u8d77
p5538
I1
sV\u5197\u957f
p5539
I1
sV\u544a\u6025
p5540
I1
sV\u51b7\u5e93
p5541
I1
sV\u65f6\u901f
p5542
I1
sV\u5206\u516c\u53f8
p5543
I7
sV\u83b7\u77e5
p5544
I1
sV\u539f\u6599
p5545
I7
sV\u9881\u5956
p5546
I1
sV\u6ce8\u518c\u5546\u6807
p5547
I3
sV\u8bbe\u5728
p5548
I1
sV\u996d\u5e97
p5549
I1
sV\u4eab\u53d7
p5550
I8
sV\u5927\u6c14
p5551
I2
sV\u904f\u5236
p5552
I4
sV\u751f\u6001
p5553
I4
sV\u8de8\u5730\u533a
p5554
I1
sV\u5165\u4f4f
p5555
I1
sV\u5e93\u5b58\u5546\u54c1
p5556
I1
sV\u8f66\u901f
p5557
I1
sV\u4ef7\u9996
p5558
I1
sV\u76d1\u7ba1\u53f8
p5559
I1
sV\u7c73\u8d28
p5560
I1
sV\u526f\u603b
p5561
I1
sV\u516c\u5e03
p5562
I17
sV\u964d\u661f
p5563
I1
sV\u51cf\u7f13
p5564
I2
sV\u964d\u606f
p5565
I1
sV\u5173\u95ed
p5566
I1
sV\u6301\u7eed\u589e\u957f
p5567
I4
sV\u65e5\u62a5
p5568
I2
sV\u53d1\u884c\u4ef7
p5569
I2
sV\u5236\u4f5c\u65b9
p5570
I1
sV\u9001\u4e0a
p5571
I1
sV\u8bbe\u5b9a
p5572
I1
sV\u6742\u5fd7\u793e
p5573
I2
sV\u4ea4\u623f
p5574
I1
sV\u8dcc\u5e45
p5575
I19
sV\u5730\u5e73\u7ebf
p5576
I1
sV\u8fdb\u7a0b
p5577
I1
sV\u8f6f\u4f53
p5578
I1
sV\u5165\u5e97
p5579
I1
sV\u53cd\u5b63\u8282
p5580
I1
sV\u533a\u77f3
p5581
I1
sVA\u8f6e
p5582
I2
sV\u6d77\u5357
p5583
I12
sV\u62a5\u544a\u4f1a
p5584
I1
sV\u6e05\u7f34
p5585
I1
sV\u5546\u6807\u6743
p5586
I1
sV\u5708\u5730
p5587
I4
sV\u7ed3\u7b97\u4ef7
p5588
I2
sV\u5206\u6790
p5589
I28
sV\u96c6\u56e2\u516c\u53f8
p5590
I6
sV\u8b66\u65b9
p5591
I5
sV\u6539\u6b63
p5592
I1
sV\u76f8\u4fe1
p5593
I3
sV\u5929\u732b
p5594
I3
sV\u64a4\u51fa
p5595
I2
sV\u571f\u8c46
p5596
I1
sV\u7a00\u571f
p5597
I1
sV\u58f0\u97f3
p5598
I1
sV\u66f2\u548f
p5599
I1
sV\u6bcf\u516c\u65a4
p5600
I1
sV\u517b\u6b96
p5601
I2
sV\u7ecf\u5386
p5602
I24
sV\u660e\u786e\u63d0\u51fa
p5603
I1
sV\u540c\u540d
p5604
I1
sV\u7247\u533a
p5605
I2
sV\u6d89\u6d77
p5606
I1
sV\u8d44\u91d1\u7d27\u5f20
p5607
I1
sV\u91cd\u8d1f
p5608
I1
sV\u5c55\u89c8\u4f1a
p5609
I3
sV\u52a0\u76df
p5610
I3
sV\u63d0\u5347
p5611
I35
sV\u670d\u52a1
p5612
I52
sV\u51fa\u5e2d
p5613
I5
sV\u822a\u6cb9
p5614
I1
sV\u5b8c\u5907
p5615
I1
sV\u5899\u76d2
p5616
I1
sV\u4f1a\u8bae
p5617
I8
sV\u8fdb\u53e3\u5173\u7a0e
p5618
I1
sV\u5448\u73b0
p5619
I12
sV\u9152\u4e1a
p5620
I4
sV\u5192\u5145
p5621
I1
sV\u5f3a\u52bf
p5622
I3
sV\u6210\u660c
p5623
I1
sV\u4e60\u9152
p5624
I1
sV\u8f6f\u4ef6
p5625
I8
sV\u7cbe\u70bc
p5626
I1
sV\u9001\u8fbe
p5627
I1
sV\u79ef\u6781\u6027
p5628
I2
sV\u8fbe\u5230
p5629
I43
sV\u7a81\u53d1\u4e8b\u4ef6
p5630
I1
sV\u57ce\u4e61
p5631
I1
sV\u79c1\u6709\u5316
p5632
I1
sV\u8c03\u5ea6
p5633
I6
sV\u751f\u610f
p5634
I4
sV\u76f4\u964d
p5635
I1
sV\u81ea\u52a8
p5636
I5
sV\u8ba1\u7b97\u673a
p5637
I2
sV\u519b\u56e2
p5638
I1
sV\u540c\u5b66\u4eec
p5639
I1
sV\u4e25\u7981
p5640
I2
sV\u9152\u4ed9
p5641
I1
sV\u5f00\u64ad
p5642
I1
sV\u6b66\u6c49\u5e02
p5643
I1
sV\u6d88\u8d39\u54c1
p5644
I4
sV\u6d4b\u7b97
p5645
I35
sV\u539f\u6750\u6599
p5646
I4
sV\u91d1\u878d\u7c7b
p5647
I1
sV\u80a1\u7968\u4ee3\u7801
p5648
I1
sV\u8fdb\u51fa\u53e3
p5649
I5
sV\u542b\u6709
p5650
I4
sV\u836f\u5242
p5651
I1
sV\u5236\u9020\u4e1a\u8005
p5652
I1
sV\u76f8\u4f3c
p5653
I1
sV\u5077\u8d70
p5654
I1
sV\u6295\u7968\u6570
p5655
I1
sV\u9662\u957f
p5656
I3
sV\u9ad8\u7b56
p5657
I1
sV\u8d2a\u8d22
p5658
I1
sV\u5ba2\u6237\u7aef
p5659
I2
sV\u8bd5\u8863\u95f4
p5660
I1
sV\u8bbe\u9650
p5661
I1
sV\u9886\u5bfc
p5662
I4
sV\u4ee3\u7406
p5663
I1
sV\u8bef\u5bfc
p5664
I1
sV\u6c7d\u8f66\u96c6\u56e2
p5665
I1
sV\u6d45\u8272
p5666
I1
sV\u8ba4\u53ef
p5667
I4
sV\u4e13\u9879
p5668
I10
sV\u8d38\u6613\u58c1\u5792
p5669
I1
sV\u7f51\u70b9
p5670
I2
sV\u8bf4\u6cd5
p5671
I2
sV\u53d1\u6325
p5672
I7
sV\u53d7\u5236\u4e8e
p5673
I2
sV\u88ab\u6355
p5674
I1
sV\u7528\u8f66
p5675
I2
sV\u5fae\u6da8
p5676
I1
sV\u503c\u5f97
p5677
I5
sV\u4e1c\u5174
p5678
I1
sV\u5976\u7c89
p5679
I8
sV\u6cb3\u897f
p5680
I1
sV\u4e1c\u5173
p5681
I1
sV\u91c7\u8bbf
p5682
I25
sV\u4f1a\u7b7e
p5683
I1
sV\u51c9\u8336
p5684
I1
sV\u539f\u672c
p5685
I1
sV\u53cd\u5411
p5686
I1
sV\u8d44\u6e90
p5687
I32
sV\u957f\u5b89
p5688
I1
sV\u9ad8\u98ce\u9669
p5689
I1
sV\u804c\u4e1a\u6280\u80fd
p5690
I1
sV\u63a8\u4ecb\u4f1a
p5691
I1
sV\u56e4\u79ef
p5692
I2
sV\u5185\u5708
p5693
I1
sV\u5149\u7ea4
p5694
I1
sV\u6d88\u6cd5
p5695
I1
sV\u5145\u6362
p5696
I2
sV\u5546\u6807
p5697
I1
sV\u88c1\u5458
p5698
I1
sV\u65f6\u523b
p5699
I1
sV\u529e\u516c\u697c
p5700
I1
sV\u4f18\u8d28
p5701
I4
sV\u6389\u843d
p5702
I1
sV\u7edf\u8ba1\u6570\u636e
p5703
I1
sV\u62a5\u88c5
p5704
I1
sV\u4f5c\u8005
p5705
I1
sV\u626d\u8f6c
p5706
I2
sV\u8089\u677e
p5707
I1
sV\u6c49\u53e3
p5708
I1
sV\u5564\u9152
p5709
I4
sV\u5185\u5730
p5710
I10
sV\u4e9a\u6d32
p5711
I3
sV\u7fe1\u7fe0
p5712
I1
sV\u4ee5\u8272\u5217
p5713
I2
sV\u6392\u9664
p5714
I8
sV\u62cd\u5356\u4f1a
p5715
I2
sV\u78b0\u649e
p5716
I3
sV\u8fc7\u9519
p5717
I1
sV\u751f\u6210
p5718
I2
sV\u6d41\u884c\u65f6\u88c5
p5719
I1
sV\u56f0\u6270
p5720
I1
sV\u5e26\u6709
p5721
I2
sV\u6eda\u52a8
p5722
I1
sV\u900f\u8fc7
p5723
I1
sV\u62a5\u8868
p5724
I2
sV\u53d8\u52a8
p5725
I3
sV\u6c47\u4ed8
p5726
I1
sV\u82b1\u9500
p5727
I1
sV\u5929\u70ed
p5728
I1
sV\u82e6\u7ec3\u5185\u529f
p5729
I1
sV\u9020\u52bf
p5730
I1
sV\u76f4\u9500
p5731
I3
sV\u4f9b\u70ed
p5732
I3
sV\u4e13\u9898
p5733
I1
sV\u88ab\u63a7
p5734
I1
sV\u6837\u54c1
p5735
I4
sV\u652f\u67f1\u4ea7\u4e1a
p5736
I2
sV\u6bcf\u5347
p5737
I2
sV\u5f00\u822a
p5738
I1
sV\u6df1\u5165
p5739
I2
sV\u758f\u901a
p5740
I1
sV\u9891\u7387
p5741
I1
sV\u5173\u6ce8\u70b9
p5742
I1
sV\u77f3\u6cb9\u4e1a
p5743
I2
sV\u6c61\u67d3\u7269
p5744
I6
sV\u9707\u52a8
p5745
I1
sV\u6d3e\u51fa\u6240
p5746
I1
sV\u6e56\u5357\u4eba
p5747
I1
sV\u5185\u9646
p5748
I1
sV\u6d0b\u5feb\u9910
p5749
I1
sV\u6f2b\u6e38\u8d39
p5750
I1
sV\u51fa\u95e8
p5751
I1
sV\u56fd\u6c11
p5752
I2
sV\u6d77\u8fd0
p5753
I1
sV\u4e0b\u8f7d
p5754
I1
sV\u5c11\u89c1
p5755
I1
sV\u60e9\u7f5a
p5756
I1
sV\u6280\u672f\u90e8
p5757
I1
sV\u4e2d\u5174
p5758
I2
sV\u51fa\u5c40
p5759
I2
sV\u8425\u9500
p5760
I19
sV\u73af\u5883\u6cbb\u7406
p5761
I2
sV\u8282\u5236
p5762
I1
sV\u699c\u5355
p5763
I2
sV\u94a2\u94c1\u884c\u4e1a
p5764
I2
sV\u76f8\u8ddd
p5765
I2
sV\u4e0a\u62a5
p5766
I1
sV\u7164\u6c14
p5767
I1
sV\u51fa\u5883\u6e38
p5768
I2
sV\u7535\u5b50\u5668\u4ef6
p5769
I1
sV\u8d2d\u4e70
p5770
I24
sV\u9876\u7ea7
p5771
I1
sV\u7f29\u5f71
p5772
I1
sV\u7b7e\u91cf
p5773
I1
sV\u5185\u9601
p5774
I1
sV\u5f53\u5730\u4eba
p5775
I1
sV\u76ee\u6807
p5776
I22
sV\u4e0a\u62cd
p5777
I1
sV\u9152\u5e97
p5778
I6
sV\u5de5\u5546\u90e8\u95e8
p5779
I1
sV\u91cd\u8f7d
p5780
I6
sV\u53eb\u505a
p5781
I1
sV\u852c\u83dc
p5782
I3
sV\u5e8a\u57ab
p5783
I1
sV\u79d1\u6280\u7c7b
p5784
I1
sV\u978b\u7c7b
p5785
I2
sV\u5546\u5bb6
p5786
I7
sV\u8bb0\u8005\u4f1a
p5787
I1
sV\u534e\u590f
p5788
I1
sV\u82f1\u5bf8
p5789
I3
sV\u57cb\u85cf
p5790
I1
sV\u9644\u52a0
p5791
I1
sV\u8427\u5c71\u533a
p5792
I1
sV\u8868\u5c42
p5793
I1
sV\u8f66\u53cb
p5794
I1
sV\u8d2d\u8fdb
p5795
I1
sV\u4e2d\u753a
p5796
I1
sV\u8865\u7968
p5797
I1
sV\u56de\u8c03
p5798
I3
sV\u6fc0\u52b1\u673a\u5236
p5799
I1
sV\u603b\u957f
p5800
I1
sV\u540d\u8868
p5801
I1
sV\u5934\u8111
p5802
I1
sV\u6027\u4ef7\u6bd4
p5803
I1
sV\u751f\u4ea7\u7ebf
p5804
I4
sV\u85aa\u95e8
p5805
I1
sV\u5e94\u7528
p5806
I13
sV\u4fe1\u8d37\u4e1a\u52a1
p5807
I2
sV\u505c\u8f66\u4f4d
p5808
I1
sV\u673a\u68b0
p5809
I1
sV\u6668\u62a5
p5810
I5
sV\u81f4\u4f7f
p5811
I1
sV\u51fa\u53f0
p5812
I18
sV\u4e0d\u4e4f
p5813
I2
sV\u98df\u836f
p5814
I1
sV\u7d27\u9501
p5815
I1
sV\u4f20\u7edf
p5816
I29
sV\u7528\u4eba
p5817
I2
sV\u504f\u5dee
p5818
I1
sV\u5efa\u8bae
p5819
I9
sV\u7701\u5e02
p5820
I2
sV\u8d77\u706b
p5821
I3
sV\u9700\u7ecf
p5822
I1
sV\u9ed1\u77ff
p5823
I1
sV\u5efa\u8bbe
p5824
I60
sV\u89c2\u4f17
p5825
I2
sV\u5199\u4f5c
p5826
I1
sV\u6c11\u8425\u4f01\u4e1a
p5827
I6
sV\u6765\u4e34
p5828
I1
sV\u7d22\u8d3f
p5829
I1
sV\u7ed3\u5a5a
p5830
I1
sV\u9ad8\u7968
p5831
I1
sV\u8d28\u91cf\u6807\u51c6
p5832
I4
sV\u5acc\u7591\u4eba
p5833
I3
sV\u9001\u8d27
p5834
I1
sV\u5f8b\u5e08
p5835
I4
sV\u6982\u5ff5
p5836
I6
sV\u907f\u514d
p5837
I6
sV\u6811\u8102
p5838
I2
sV\u7528\u4e8e
p5839
I7
sV\u5c71\u5be8
p5840
I5
sV\u5c4c\u4e1d
p5841
I1
sV\u666e\u901a\u4f4f\u5b85
p5842
I1
sV\u6491\u8170
p5843
I1
sV\u6c34\u679c
p5844
I6
sV\u4f11\u95f2
p5845
I3
sV\u6c9f\u901a
p5846
I2
sV\u65c5\u884c\u7f51
p5847
I1
sV\u53d6\u51b3\u4e8e
p5848
I4
sV\u8fd0\u8425
p5849
I34
sV\u4f9b\u5e94\u4ef7\u683c
p5850
I5
sV\u521d\u521b
p5851
I1
sV\u6d89\u6848
p5852
I4
sV\u51fb\u8d25
p5853
I2
sV\u6536\u8d2d\u4ef7
p5854
I2
sV\u82b1\u53ca
p5855
I1
sV\u8fd4\u4e61
p5856
I2
sV\u725b\u8171
p5857
I1
sV\u67e5\u6848
p5858
I1
sV\u57fa\u672c\u9762
p5859
I2
sV\u4e0b\u884c
p5860
I20
sV\u5c4f\u4e1c
p5861
I1
sV\u53f7\u6bb5
p5862
I1
sV\u4e94\u8fde\u9634
p5863
I1
sV\u7ec4\u5408\u62f3
p5864
I1
sV\u8fc8\u5165
p5865
I1
sV\u5546\u54c1\u623f
p5866
I4
sV\u8054\u8425\u516c\u53f8
p5867
I1
sV\u72ec\u7acb\u62a5
p5868
I1
sV\u56de\u7b54
p5869
I1
sV\u7597\u6548
p5870
I1
sV\u96e8\u96ea
p5871
I1
sV\u6d77\u5357\u7701
p5872
I5
sV\u5206\u62c5
p5873
I1
sV\u827a\u4eba
p5874
I1
sV\u5730\u6c9f\u6cb9
p5875
I4
sV\u6da8\u8dcc
p5876
I7
sV\u505a\u6cd5
p5877
I4
sV\u62a5\u4ef7
p5878
I1
sV\u4e24\u90e8\u59d4
p5879
I1
sV\u65fa\u5730
p5880
I1
sV\u53d1\u7535\u91cf
p5881
I1
sV\u7075\u9b42
p5882
I1
sV\u62b5\u62bc
p5883
I1
sV\u6e7f\u6cd5
p5884
I1
sV\u535a\u58eb
p5885
I2
sV\u5de5\u4e1a\u534f\u4f1a
p5886
I2
sV\u53d6\u666f
p5887
I1
sV\u5973\u58eb
p5888
I1
sV\u8003\u6838
p5889
I2
sV\u6d77\u57df
p5890
I2
sV\u63a5\u53d7
p5891
I23
sV\u8d39\u6539\u7a0e
p5892
I1
sV\u7956\u56fd
p5893
I1
sV\u674f\u5b50
p5894
I1
sV\u8dc3\u4e0a
p5895
I1
sV\u6bd4\u62fc
p5896
I4
sV\u77f3\u6cb9\u5316\u5de5
p5897
I2
sV\u5e02\u59d4\u4e66\u8bb0
p5898
I1
sV\u7ed9\u4e88
p5899
I11
sV\u8fdb\u53e3\u989d
p5900
I1
sV\u96c6\u805a
p5901
I3
sV\u653f\u5e9c\u90e8\u95e8
p5902
I6
sV\u6c5f\u82cf
p5903
I6
sV\u6807\u8bc6
p5904
I1
sV\u53d6\u6696
p5905
I1
sV\u623f\u4ea7\u4e1a
p5906
I1
sV\u4e1c\u57ce
p5907
I2
sV\u8ba1\u7b97\u673a\u670d\u52a1
p5908
I1
sV\u4e8f\u635f\u4f01\u4e1a
p5909
I1
sV\u661f\u7ea7\u996d\u5e97
p5910
I1
sV\u6606\u660e
p5911
I2
sV\u8fc8\u51fa
p5912
I1
sV\u6df1\u5733
p5913
I11
sV\u8bc9\u8bbc
p5914
I5
sV\u7ba1\u7406
p5915
I45
sV\u540e\u5e02
p5916
I7
sV\u5e38\u6001
p5917
I5
sV\u76ae\u5e26
p5918
I1
sV\u521b\u9020
p5919
I5
sV\u52b3\u52a8\u62a5
p5920
I1
sV\u526f\u603b\u7f16
p5921
I1
sV\u79d1\u6280\u542b\u91cf
p5922
I1
sV\u91c7\u8d2d
p5923
I14
sV\u8c03\u5cf0
p5924
I1
sV\u524d\u666f
p5925
I2
sV\u62b5\u6263
p5926
I1
sV\u79df\u671f
p5927
I1
sV\u62bd\u6837
p5928
I1
sV\u624b\u5de5
p5929
I1
sV\u4ef7\u5dee
p5930
I5
sV\u6da8\u5230
p5931
I1
sV\u4e2a\u8d37
p5932
I1
sV\u5185\u9500
p5933
I1
sV\u5173\u8054
p5934
I1
sV\u4e66\u9762
p5935
I2
sV\u56fd\u9645\u5c40\u52bf
p5936
I1
sV\u5708\u5fc3
p5937
I1
sV\u63a8\u6421
p5938
I1
sV\u5f97\u77e5
p5939
I2
sV\u6218\u7565\u6027
p5940
I3
sV\u8f66\u7528\u6c7d\u6cb9
p5941
I8
sV\u677f\u5757
p5942
I6
sV\u8bc4\u7ea7
p5943
I2
sV\u8d22\u7a0e
p5944
I1
sV\u7cfb\u7edf
p5945
I23
sV\u917f\u9152
p5946
I2
sV\u51fa\u8d44
p5947
I5
sV\u5473\u5168
p5948
I1
sV\u5e8a\u4e0a\u7528\u54c1
p5949
I2
sV\u5c40\u5c40\u957f
p5950
I2
sV\u4ea4\u6613
p5951
I15
sV\u91cd\u5851
p5952
I1
sV\u62d6\u6cb9\u74f6
p5953
I1
sV\u96be\u73b0
p5954
I1
sV\u5212\u7ebf
p5955
I1
sV\u836f\u540d
p5956
I1
sV\u73a9\u5bb6
p5957
I1
sV\u4f4f\u623f
p5958
I9
sV\u89e3\u51b3\u95ee\u9898
p5959
I1
sV\u67a2\u7ebd
p5960
I1
sV\u671f\u5f85
p5961
I1
sV\u6398\u91d1
p5962
I1
sV\u5c0f\u7c73
p5963
I8
sV\u6469\u64e6
p5964
I2
sV\u9000\u8d27
p5965
I2
sV\u56de\u7a33
p5966
I1
sV\u6218\u7565
p5967
I24
sV\u6279\u53d1\u4ef7\u683c
p5968
I9
sV\u5b88\u4fe1
p5969
I1
sV\u4e70\u5b8c
p5970
I1
sV\u7b54\u5377
p5971
I1
sV\u7535\u5382
p5972
I1
sV\u8d5a\u94b1
p5973
I2
sV\u503a\u6743\u4eba
p5974
I2
sV\u65e5\u672c
p5975
I13
sV\u94a2\u5e26
p5976
I1
sV\u6d89\u6bd2
p5977
I1
sV\u52a8\u529b\u5b66
p5978
I1
sV\u7eff\u8272
p5979
I4
sV\u98de\u884c
p5980
I2
sV\u611f\u89c9
p5981
I3
sV\u62c9\u4f4e
p5982
I1
sV\u4e70\u5bb6
p5983
I2
sV\u540d\u4eba
p5984
I1
sV\u5e74\u6b3e
p5985
I2
sV\u641c\u96c6
p5986
I1
sV\u7763\u67e5\u7ec4
p5987
I1
sV\u8bc1\u5238\u5316
p5988
I1
sV\u514d\u68c0
p5989
I1
sV\u94a2\u5e02
p5990
I2
sV\u5609\u5bbe
p5991
I1
sV\u901a\u62a5
p5992
I2
sV\u4ecb\u7ecd
p5993
I18
sV\u8d29\u5356
p5994
I1
sV\u5408\u683c\u7387
p5995
I1
sV\u7164\u70ad\u884c\u4e1a
p5996
I2
sV\u673a\u52a8\u8f66
p5997
I1
sV\u4f53\u73b0
p5998
I1
sV\u6d77\u6d0b\u8d44\u6e90
p5999
I1
sV\u66f2\u7ebf
p6000
I1
sV\u964d\u6321
p6001
I1
sV\u5236\u7ea6
p6002
I2
sV\u6bcf\u5428
p6003
I94
sV\u7ec4\u7ec7
p6004
I23
sV\u5f15\u8d77
p6005
I7
sV\u5730\u7403
p6006
I1
sV\u65f6\u95f4
p6007
I66
sV\u5947\u8ff9
p6008
I1
sV\u578b\u98de\u673a
p6009
I1
sV\u6210\u7ee9\u5355
p6010
I1
sV\u7ecf\u8425\u8005
p6011
I2
sV\u6cfc\u6f06
p6012
I1
sV\u840c\u82bd
p6013
I1
sV\u98df\u7528\u6cb9
p6014
I4
sV\u8fd4\u8fd8
p6015
I2
sV\u8d70\u51fa
p6016
I5
sV\u63d0\u9ad8
p6017
I40
sV\u540d\u4e49
p6018
I3
sV\u591a\u897f
p6019
I1
sV\u9762\u5411
p6020
I3
sV\u6e05\u7a7a
p6021
I1
sV\u82cf\u5317
p6022
I2
sV\u8d1f\u8d23
p6023
I9
sV\u4fc4\u7f57\u65af
p6024
I7
sV\u52a9\u7406
p6025
I3
sV\u89c6\u6210
p6026
I1
sV\u6298\u5408
p6027
I11
sV\u519c\u6c11
p6028
I10
sV\u4eb2\u5c5e
p6029
I2
sV\u8f66\u957f
p6030
I1
sV\u53a8\u7528
p6031
I1
sV\u59d4\u6258\u4eba
p6032
I1
sV\u6da1\u8f6e
p6033
I1
sV\u73af\u5883\u536b\u751f
p6034
I1
sV\u4e2d\u5c0f\u677f
p6035
I1
sV\u65b0\u68c9
p6036
I1
sV\u5feb\u8f66
p6037
I1
sV\u8ba4\u540c
p6038
I1
sV\u91cd\u89c6
p6039
I5
sV\u6c34\u6676
p6040
I1
sV\u70bc\u53ca
p6041
I1
sV\u523a\u6fc0
p6042
I7
sV\u76f4\u5230
p6043
I1
sV\u5e02\u573a\u7ecf\u6d4e
p6044
I1
sV\u5df2\u6709
p6045
I6
sV\u53c2\u5c55
p6046
I1
sV\u996d\u5802
p6047
I1
sV\u7a0e\u52a1
p6048
I2
sV\u76f8\u5e94
p6049
I15
sV\u8c03\u5e45
p6050
I1
sV\u65bd\u5de5
p6051
I4
sV\u6316\u89d2
p6052
I1
sV\u53d1\u7535\u5382
p6053
I1
sV\u4e59\u70ef
p6054
I1
sV\u53ec\u56de
p6055
I5
sV\u7ecf\u9500
p6056
I2
sV\u5e02\u65a4
p6057
I1
sV\u9886\u8dd1
p6058
I1
sV\u9020\u8239
p6059
I1
sV\u76f4\u51fb
p6060
I1
sV\u653e\u91cf
p6061
I1
sV\u5851\u6599
p6062
I1
sV\u521d\u503c
p6063
I1
sV\u5f55\u5f97
p6064
I1
sV\u5170\u5dde\u5e02
p6065
I1
sV\u8305\u53f0\u9152
p6066
I1
sV\u4e0e\u4f1a
p6067
I1
sV\u8c03\u67e5\u53d6\u8bc1
p6068
I1
sV\u603b\u4e66\u8bb0
p6069
I1
sV\u4e70\u5165
p6070
I1
sV\u9ad8\u7cb1
p6071
I1
sV\u7eb2\u8981
p6072
I2
sV\u54e5\u672c\u54c8\u6839
p6073
I1
sV\u5b50\u516c\u53f8
p6074
I5
sV\u90e8\u4ef6
p6075
I1
sV\u7c3f\u8bb0
p6076
I1
sV\u4f9b\u6c42
p6077
I1
sV\u6765\u8bbf
p6078
I1
sV\u4fe1\u606f
p6079
I45
sV\u5899\u9762
p6080
I1
sV\u8d70\u91cf
p6081
I3
sV\u91ca\u653e\u51fa
p6082
I1
sV\u98ce\u66b4
p6083
I3
sV\u64e6\u8fb9\u7403
p6084
I1
sV\u987a\u5e8f
p6085
I1
sV\u6708\u997c
p6086
I1
sV\u643a\u624b
p6087
I6
sV\u5151\u4ed8
p6088
I3
sV\u673a\u7535\u4ea7\u54c1
p6089
I1
sV\u8fde\u63a5
p6090
I1
sV\u8fbd\u5b81
p6091
I1
sV\u793e\u4f1a\u5316
p6092
I1
sV\u91c7\u4fe1
p6093
I1
sV\u8d27\u5e01\u653f\u7b56
p6094
I2
sV\u54c1\u6c7d
p6095
I1
sV\u6e90\u5934
p6096
I4
sV\u5185\u53ca
p6097
I1
sV\u690d\u7269
p6098
I2
sV\u65b9\u4e66
p6099
I1
sV\u9881\u53d1
p6100
I1
sV\u7231\u5fc3
p6101
I1
sV\u9500\u552e\u989d
p6102
I8
sV\u62db\u5546
p6103
I3
sV\u7528\u8bed
p6104
I1
sV\u8fdd\u80cc
p6105
I1
sV\u6de1\u51fa
p6106
I1
sV\u53d8\u5316
p6107
I39
sV\u611f\u8a00
p6108
I1
sV\u51bb\u7ed3
p6109
I1
sV\u6267\u6cd5
p6110
I10
sV\u53d8\u9891
p6111
I1
sV\u6da8\u505c
p6112
I1
sV\u8001\u623f\u5b50
p6113
I1
sV\u884c\u674e
p6114
I2
sV\u5e76\u4e0d\u5927
p6115
I1
sV\u4e2a\u4f53
p6116
I2
sV\u9910\u9986
p6117
I1
sV\u5927\u7ea2\u8272
p6118
I1
sV\u5927\u5174\u533a
p6119
I1
sV\u5e02\u653f
p6120
I1
sV\u8d35\u5dde\u7701
p6121
I1
sV\u4f1a\u8c08
p6122
I1
sV\u63a5\u5165
p6123
I1
sV\u538b\u7f29
p6124
I5
sV\u7eb5\u5411
p6125
I3
sV\u9ed1\u9f99\u6c5f
p6126
I2
sV\u4e2d\u5b66
p6127
I1
sV\u51c6\u5907
p6128
I4
sV\u6cb9\u7530
p6129
I2
sV\u96c6\u8d44\u989d
p6130
I1
sV\u6d77\u5578
p6131
I1
sV\u5148\u673a
p6132
I1
sV\u65b9\u4e08
p6133
I1
sV\u6559\u80b2
p6134
I2
sV\u7701\u90e8\u7ea7
p6135
I1
sV\u8d70\u52bf
p6136
I29
sV\u6295\u8d44\u989d
p6137
I3
sV\u518d\u964d
p6138
I1
sV\u591a\u5143\u5316
p6139
I3
sV\u571f\u8c6a
p6140
I1
sV\u89c1\u95fb
p6141
I2
sV\u4f53\u68c0
p6142
I1
sV\u7ba1\u7406\u673a\u6784
p6143
I2
sV\u6570\u5b57
p6144
I2
sV\u6e14\u8239
p6145
I1
sV\u6b63\u672c\u6e05\u6e90
p6146
I1
sV\u88ab\u79f0\u4f5c
p6147
I2
sV\u72ec\u7acb
p6148
I4
sV\u8d85\u80fd\u529b
p6149
I1
sV\u6df7\u7528
p6150
I1
sV\u85aa\u916c
p6151
I2
sV\u5360\u9886
p6152
I1
sV\u6295\u7968
p6153
I1
sV\u957f\u5ea6
p6154
I1
sV\u627f\u8ba4
p6155
I2
sV\u9519\u7528
p6156
I1
sV\u6cd5\u5ead
p6157
I1
sV\u5f15\u8fdb
p6158
I4
sV\u4efb\u671f
p6159
I1
sV\u51fa\u5382\u4ef7
p6160
I2
sV\u9510\u7406
p6161
I1
sV\u8d43\u6b3e
p6162
I2
sV\u5b66\u5386
p6163
I1
sV\u65c5\u6e38\u7f51
p6164
I1
sV\u8f66\u578b
p6165
I13
sV\u70ed\u70b9
p6166
I3
sV\u8d39\u7528
p6167
I11
sV\u843d\u5730
p6168
I3
sV\u65e0\u9700
p6169
I1
sV\u5fb7\u514b\u8428\u65af
p6170
I1
sV\u836f\u54c1
p6171
I8
sV\u6b21\u6570
p6172
I2
sV\u529f\u6548
p6173
I1
sV\u4f73\u917f
p6174
I1
sV\u822a\u7a7a\u516c\u53f8
p6175
I9
sV\u4ef7\u683c\u6cd5
p6176
I1
sV\u5730\u7ea7\u5e02
p6177
I1
sV\u6d41\u52a8\u6027
p6178
I4
sV\u5e73\u5747\u6570
p6179
I1
sV\u6cb3\u8c37
p6180
I1
sV\u503a\u6743
p6181
I1
sV\u755c\u7267
p6182
I3
sV\u662f\u5426
p6183
I24
sV\u4f7f\u7528\u5bff\u547d
p6184
I1
sV\u500d\u589e
p6185
I1
sV\u9e21\u86cb
p6186
I6
sV\u5947\u8469
p6187
I1
sV\u5907\u7528
p6188
I1
sV\u70b9\u706b
p6189
I1
sV\u5b66\u533a
p6190
I2
sV\u5951\u673a
p6191
I1
sV\u4eba\u9020
p6192
I1
sV\u76d1\u7ba1
p6193
I23
sV\u80fd\u5426
p6194
I6
sV\u76d1\u5bdf
p6195
I1
sV\u98df\u836f\u76d1
p6196
I2
sV\u534f\u4f1a
p6197
I21
sV\u68c0\u75ab
p6198
I2
sV\u4f20\u5a92
p6199
I2
sV\u4f73\u513f
p6200
I2
sV\u89c4\u77e9
p6201
I2
sV\u9020\u57ce
p6202
I1
sV\u519c\u4f5c\u7269
p6203
I1
sV\u62db\u547c
p6204
I1
sV\u8054\u884c
p6205
I1
sV\u5355\u7a0b
p6206
I1
sV\u4ea4\u901a\u4e8b\u6545
p6207
I1
sV\u53d1\u5fae
p6208
I1
sV\u4e0a\u6620
p6209
I1
sV\u836f\u8d29\u5b50
p6210
I1
sV\u4fdd\u62a4\u533a
p6211
I2
sV\u5e26\u7535
p6212
I1
sV\u7a00\u91ca
p6213
I1
sV\u7a3b\u533a
p6214
I1
sV\u666f\u89c2
p6215
I1
sV\u9610\u91ca
p6216
I1
sV\u91cd\u5e86
p6217
I12
sV\u5c3a\u5bf8
p6218
I1
sV\u8c03\u8282\u4ef7
p6219
I1
sV\u9000\u8fd8
p6220
I1
sV\u6838\u67e5
p6221
I1
sV\u62ac\u9ad8
p6222
I1
sV\u91cd\u5de5\u4e1a
p6223
I1
sV\u5e7f\u544a\u5546
p6224
I1
sV\u9a73\u56de\u4e0a\u8bc9
p6225
I1
sV\u64ad\u653e
p6226
I3
sV\u7ec4\u7ec4\u957f
p6227
I1
sV\u7184\u706b
p6228
I1
sV\u89e3\u690d
p6229
I1
sV\u9020\u578b
p6230
I1
sV\u8c03\u6574\u671f
p6231
I1
sV\u51fa\u5883
p6232
I2
sV\u5b9e\u8d28\u6027
p6233
I3
sV\u52b3\u52a8
p6234
I2
sV\u836f\u76d1
p6235
I1
sV\u5236\u7cd6
p6236
I1
sV\u653b\u575a
p6237
I1
sV\u8d64\u6c34\u6cb3
p6238
I2
sV\u60e0\u5dde\u5e02
p6239
I1
sV\u6a21\u578b
p6240
I2
sV\u6a21\u62df
p6241
I1
stp6242
Rp6243
.